ccopy_reg
_reconstructor
p1
(cnetworkx.classes.digraph
DiGraph
p2
c__builtin__
object
p3
NtRp4
(dp5
S'node'
p6
(dp7
I1
(dp8
S'demand'
p9
I12
ssI2
(dp10
g9
I1
ssI3
(dp11
g9
I16
ssI4
(dp12
g9
I6
ssI5
(dp13
g9
I4
ssI6
(dp14
g9
I6
ssI7
(dp15
g9
I1
ssI8
(dp16
g9
I0
ssI9
(dp17
g9
I0
ssI10
(dp18
g9
I0
ssI11
(dp19
g9
I0
ssI12
(dp20
g9
I0
ssI13
(dp21
g9
I0
ssI14
(dp22
g9
I0
ssI15
(dp23
g9
I-46
sssS'graph'
p24
(dp25
sS'succ'
p26
(dp27
I1
(dp28
I2
(dp29
S'capacity'
p30
I6
sS'fluxo'
p31
I0
sS'weight'
p32
I6
ssI3
(dp33
g30
I8
sg31
I0
sg32
I7
ssI4
(dp34
g30
I8
sg31
I0
sg32
I9
ssI5
(dp35
g30
I5
sg31
I0
sg32
I9
ssI8
(dp36
g30
I5
sg31
I0
sg32
I2
ssI13
(dp37
g30
I7
sg31
I0
sg32
I10
ssI14
(dp38
g30
I8
sg31
I0
sg32
I5
sssI2
(dp39
I5
(dp40
g30
I8
sg31
I0
sg32
I4
ssI6
(dp41
g30
I7
sg31
I0
sg32
I7
ssI7
(dp42
g30
I8
sg31
I0
sg32
I10
ssI8
(dp43
g30
I7
sg31
I0
sg32
I7
ssI9
(dp44
g30
I6
sg31
I0
sg32
I2
ssI10
(dp45
g30
I6
sg31
I0
sg32
I1
ssI12
(dp46
g30
I8
sg31
I0
sg32
I7
sssI3
(dp47
I1
(dp48
g30
I8
sg31
I0
sg32
I6
ssI4
(dp49
g30
I7
sg31
I0
sg32
I3
ssI8
(dp50
g30
I5
sg31
I0
sg32
I3
ssI9
(dp51
g30
I6
sg31
I0
sg32
I1
ssI10
(dp52
g30
I8
sg31
I0
sg32
I6
ssI13
(dp53
g30
I6
sg31
I0
sg32
I5
ssI14
(dp54
g30
I8
sg31
I0
sg32
I3
ssI15
(dp55
g30
I6
sg31
I0
sg32
I2
sssI4
(dp56
I2
(dp57
g30
I7
sg31
I0
sg32
I6
ssI3
(dp58
g30
I6
sg31
I0
sg32
I5
ssI5
(dp59
g30
I7
sg31
I0
sg32
I9
ssI7
(dp60
g30
I5
sg31
I0
sg32
I5
ssI8
(dp61
g30
I6
sg31
I0
sg32
I5
ssI9
(dp62
g30
I8
sg31
I0
sg32
I5
ssI10
(dp63
g30
I8
sg31
I0
sg32
I7
ssI12
(dp64
g30
I6
sg31
I0
sg32
I6
ssI13
(dp65
g30
I8
sg31
I0
sg32
I7
ssI14
(dp66
g30
I5
sg31
I0
sg32
I6
sssI5
(dp67
I9
(dp68
g30
I5
sg31
I0
sg32
I4
ssI10
(dp69
g30
I6
sg31
I0
sg32
I8
ssI2
(dp70
g30
I6
sg31
I0
sg32
I6
ssI14
(dp71
g30
I7
sg31
I0
sg32
I1
ssI7
(dp72
g30
I6
sg31
I0
sg32
I7
sssI6
(dp73
I2
(dp74
g30
I7
sg31
I0
sg32
I2
ssI4
(dp75
g30
I6
sg31
I0
sg32
I6
ssI5
(dp76
g30
I7
sg31
I0
sg32
I9
ssI8
(dp77
g30
I5
sg31
I0
sg32
I4
ssI14
(dp78
g30
I8
sg31
I0
sg32
I2
ssI15
(dp79
g30
I5
sg31
I0
sg32
I0
sssI7
(dp80
I1
(dp81
g30
I8
sg31
I0
sg32
I6
ssI3
(dp82
g30
I7
sg31
I0
sg32
I5
ssI4
(dp83
g30
I6
sg31
I0
sg32
I3
ssI5
(dp84
g30
I7
sg31
I0
sg32
I2
ssI6
(dp85
g30
I5
sg31
I0
sg32
I6
ssI11
(dp86
g30
I5
sg31
I0
sg32
I5
ssI14
(dp87
g30
I7
sg31
I0
sg32
I4
ssI15
(dp88
g30
I7
sg31
I0
sg32
I0
sssI8
(dp89
I11
(dp90
g30
I8
sg31
I0
sg32
I2
ssI10
(dp91
g30
I6
sg31
I0
sg32
I4
ssI7
(dp92
g30
I8
sg31
I0
sg32
I5
ssI15
(dp93
g30
I8
sg31
I0
sg32
I2
sssI9
(dp94
I2
(dp95
g30
I6
sg31
I0
sg32
I9
ssI3
(dp96
g30
I8
sg31
I0
sg32
I0
ssI4
(dp97
g30
I8
sg31
I0
sg32
I5
ssI5
(dp98
g30
I7
sg31
I0
sg32
I6
ssI6
(dp99
g30
I7
sg31
I0
sg32
I8
ssI7
(dp100
g30
I6
sg31
I0
sg32
I1
ssI8
(dp101
g30
I7
sg31
I0
sg32
I1
ssI10
(dp102
g30
I8
sg31
I0
sg32
I9
ssI14
(dp103
g30
I7
sg31
I0
sg32
I7
ssI15
(dp104
g30
I8
sg31
I0
sg32
I8
sssI10
(dp105
I1
(dp106
g30
I5
sg31
I0
sg32
I8
ssI6
(dp107
g30
I8
sg31
I0
sg32
I0
ssI12
(dp108
g30
I6
sg31
I0
sg32
I0
ssI13
(dp109
g30
I7
sg31
I0
sg32
I2
ssI14
(dp110
g30
I5
sg31
I0
sg32
I0
sssI11
(dp111
I4
(dp112
g30
I8
sg31
I0
sg32
I6
ssI9
(dp113
g30
I7
sg31
I0
sg32
I5
ssI12
(dp114
g30
I7
sg31
I0
sg32
I5
ssI5
(dp115
g30
I6
sg31
I0
sg32
I6
ssI15
(dp116
g30
I6
sg31
I0
sg32
I2
sssI12
(dp117
I1
(dp118
g30
I5
sg31
I0
sg32
I2
ssI2
(dp119
g30
I5
sg31
I0
sg32
I7
ssI5
(dp120
g30
I5
sg31
I0
sg32
I0
ssI6
(dp121
g30
I5
sg31
I0
sg32
I5
ssI9
(dp122
g30
I7
sg31
I0
sg32
I1
ssI11
(dp123
g30
I7
sg31
I0
sg32
I4
ssI13
(dp124
g30
I7
sg31
I0
sg32
I6
ssI15
(dp125
g30
I6
sg31
I0
sg32
I2
sssI13
(dp126
I1
(dp127
g30
I5
sg31
I0
sg32
I5
ssI2
(dp128
g30
I6
sg31
I0
sg32
I3
ssI5
(dp129
g30
I7
sg31
I0
sg32
I5
ssI6
(dp130
g30
I8
sg31
I0
sg32
I10
ssI7
(dp131
g30
I8
sg31
I0
sg32
I7
ssI9
(dp132
g30
I7
sg31
I0
sg32
I3
ssI15
(dp133
g30
I6
sg31
I0
sg32
I2
sssI14
(dp134
I1
(dp135
g30
I5
sg31
I0
sg32
I1
ssI4
(dp136
g30
I5
sg31
I0
sg32
I4
ssI5
(dp137
g30
I6
sg31
I0
sg32
I5
ssI7
(dp138
g30
I5
sg31
I0
sg32
I7
ssI8
(dp139
g30
I7
sg31
I0
sg32
I6
ssI10
(dp140
g30
I6
sg31
I0
sg32
I10
ssI15
(dp141
g30
I6
sg31
I0
sg32
I2
sssI15
(dp142
I1
(dp143
g30
I6
sg31
I0
sg32
I9
ssI2
(dp144
g30
I5
sg31
I0
sg32
I3
ssI3
(dp145
g30
I8
sg31
I0
sg32
I10
ssI5
(dp146
g30
I8
sg31
I0
sg32
I1
ssI6
(dp147
g30
I7
sg31
I0
sg32
I6
ssI10
(dp148
g30
I5
sg31
I0
sg32
I4
ssI13
(dp149
g30
I6
sg31
I0
sg32
I7
ssI14
(dp150
g30
I7
sg31
I0
sg32
I5
ssssS'edge'
p151
g27
sS'pred'
p152
(dp153
I1
(dp154
I3
g48
sI7
g81
sI10
g106
sI12
g118
sI13
g127
sI14
g135
sI15
g143
ssI2
(dp155
I1
g29
sI4
g57
sI5
g70
sI6
g74
sI9
g95
sI12
g119
sI13
g128
sI15
g144
ssI3
(dp156
I1
g33
sI7
g82
sI9
g96
sI4
g58
sI15
g145
ssI4
(dp157
I1
g34
sI3
g49
sI6
g75
sI7
g83
sI9
g97
sI11
g112
sI14
g136
ssI5
(dp158
I1
g35
sI2
g40
sI4
g59
sI6
g76
sI7
g84
sI9
g98
sI11
g115
sI12
g120
sI13
g129
sI14
g137
sI15
g146
ssI6
(dp159
I2
g41
sI7
g85
sI9
g99
sI10
g107
sI12
g121
sI13
g130
sI15
g147
ssI7
(dp160
I2
g42
sI4
g60
sI5
g72
sI8
g92
sI9
g100
sI13
g131
sI14
g138
ssI8
(dp161
I1
g36
sI2
g43
sI3
g50
sI4
g61
sI6
g77
sI9
g101
sI14
g139
ssI9
(dp162
I2
g44
sI3
g51
sI4
g62
sI5
g68
sI11
g113
sI12
g122
sI13
g132
ssI10
(dp163
I2
g45
sI3
g52
sI4
g63
sI5
g69
sI8
g91
sI9
g102
sI14
g140
sI15
g148
ssI11
(dp164
I8
g90
sI12
g123
sI7
g86
ssI12
(dp165
I10
g108
sI11
g114
sI4
g64
sI2
g46
ssI13
(dp166
I1
g37
sI3
g53
sI4
g65
sI10
g109
sI12
g124
sI15
g149
ssI14
(dp167
I1
g38
sI3
g54
sI4
g66
sI5
g71
sI6
g78
sI7
g87
sI9
g103
sI10
g110
sI15
g150
ssI15
(dp168
I3
g55
sI6
g79
sI7
g88
sI8
g93
sI9
g104
sI11
g116
sI12
g125
sI13
g133
sI14
g141
sssS'adj'
p169
g27
sb.