ccopy_reg
_reconstructor
p1
(cnetworkx.classes.digraph
DiGraph
p2
c__builtin__
object
p3
NtRp4
(dp5
S'node'
p6
(dp7
I1
(dp8
S'demand'
p9
I11
ssI2
(dp10
g9
I1
ssI3
(dp11
g9
I4
ssI4
(dp12
g9
I6
ssI5
(dp13
g9
I3
ssI6
(dp14
g9
I2
ssI7
(dp15
g9
I5
ssI8
(dp16
g9
I0
ssI9
(dp17
g9
I0
ssI10
(dp18
g9
I0
ssI11
(dp19
g9
I0
ssI12
(dp20
g9
I0
ssI13
(dp21
g9
I0
ssI14
(dp22
g9
I0
ssI15
(dp23
g9
I-32
sssS'graph'
p24
(dp25
sS'succ'
p26
(dp27
I1
(dp28
I3
(dp29
S'capacity'
p30
I7
sS'fluxo'
p31
I0
sS'weight'
p32
I10
ssI5
(dp33
g30
I5
sg31
I0
sg32
I9
ssI7
(dp34
g30
I8
sg31
I0
sg32
I4
ssI9
(dp35
g30
I7
sg31
I0
sg32
I10
ssI11
(dp36
g30
I8
sg31
I0
sg32
I2
ssI12
(dp37
g30
I7
sg31
I0
sg32
I6
ssI13
(dp38
g30
I8
sg31
I0
sg32
I8
ssI14
(dp39
g30
I5
sg31
I0
sg32
I6
sssI2
(dp40
I1
(dp41
g30
I5
sg31
I0
sg32
I9
ssI4
(dp42
g30
I5
sg31
I0
sg32
I9
ssI7
(dp43
g30
I5
sg31
I0
sg32
I0
ssI8
(dp44
g30
I6
sg31
I0
sg32
I9
ssI10
(dp45
g30
I5
sg31
I0
sg32
I2
ssI14
(dp46
g30
I5
sg31
I0
sg32
I2
sssI3
(dp47
I1
(dp48
g30
I6
sg31
I0
sg32
I2
ssI2
(dp49
g30
I6
sg31
I0
sg32
I5
ssI4
(dp50
g30
I8
sg31
I0
sg32
I9
ssI6
(dp51
g30
I6
sg31
I0
sg32
I5
ssI7
(dp52
g30
I8
sg31
I0
sg32
I5
ssI10
(dp53
g30
I7
sg31
I0
sg32
I8
ssI13
(dp54
g30
I5
sg31
I0
sg32
I1
ssI14
(dp55
g30
I7
sg31
I0
sg32
I5
ssI15
(dp56
g30
I6
sg31
I0
sg32
I2
sssI4
(dp57
I2
(dp58
g30
I7
sg31
I0
sg32
I9
ssI6
(dp59
g30
I7
sg31
I0
sg32
I1
ssI8
(dp60
g30
I6
sg31
I0
sg32
I7
ssI9
(dp61
g30
I5
sg31
I0
sg32
I10
ssI10
(dp62
g30
I5
sg31
I0
sg32
I6
ssI14
(dp63
g30
I6
sg31
I0
sg32
I2
ssI15
(dp64
g30
I6
sg31
I0
sg32
I4
sssI5
(dp65
I2
(dp66
g30
I5
sg31
I0
sg32
I7
ssI4
(dp67
g30
I6
sg31
I0
sg32
I3
ssI6
(dp68
g30
I6
sg31
I0
sg32
I0
ssI8
(dp69
g30
I5
sg31
I0
sg32
I2
ssI9
(dp70
g30
I5
sg31
I0
sg32
I7
ssI10
(dp71
g30
I6
sg31
I0
sg32
I4
ssI11
(dp72
g30
I5
sg31
I0
sg32
I3
ssI13
(dp73
g30
I8
sg31
I0
sg32
I3
ssI14
(dp74
g30
I8
sg31
I0
sg32
I8
sssI6
(dp75
I3
(dp76
g30
I7
sg31
I0
sg32
I5
ssI5
(dp77
g30
I6
sg31
I0
sg32
I8
ssI8
(dp78
g30
I8
sg31
I0
sg32
I10
ssI10
(dp79
g30
I7
sg31
I0
sg32
I2
ssI11
(dp80
g30
I7
sg31
I0
sg32
I2
ssI13
(dp81
g30
I8
sg31
I0
sg32
I8
ssI15
(dp82
g30
I6
sg31
I0
sg32
I8
sssI7
(dp83
I2
(dp84
g30
I5
sg31
I0
sg32
I3
ssI5
(dp85
g30
I7
sg31
I0
sg32
I3
ssI9
(dp86
g30
I8
sg31
I0
sg32
I10
ssI13
(dp87
g30
I7
sg31
I0
sg32
I0
ssI14
(dp88
g30
I6
sg31
I0
sg32
I7
ssI15
(dp89
g30
I6
sg31
I0
sg32
I3
sssI8
(dp90
I3
(dp91
g30
I8
sg31
I0
sg32
I5
ssI4
(dp92
g30
I7
sg31
I0
sg32
I1
ssI10
(dp93
g30
I7
sg31
I0
sg32
I2
ssI12
(dp94
g30
I6
sg31
I0
sg32
I6
ssI13
(dp95
g30
I8
sg31
I0
sg32
I5
ssI14
(dp96
g30
I7
sg31
I0
sg32
I2
ssI15
(dp97
g30
I7
sg31
I0
sg32
I1
sssI9
(dp98
I1
(dp99
g30
I6
sg31
I0
sg32
I0
ssI3
(dp100
g30
I7
sg31
I0
sg32
I0
ssI4
(dp101
g30
I6
sg31
I0
sg32
I10
ssI6
(dp102
g30
I7
sg31
I0
sg32
I9
ssI8
(dp103
g30
I8
sg31
I0
sg32
I4
ssI12
(dp104
g30
I8
sg31
I0
sg32
I4
ssI14
(dp105
g30
I6
sg31
I0
sg32
I4
sssI10
(dp106
I8
(dp107
g30
I8
sg31
I0
sg32
I2
ssI6
(dp108
g30
I5
sg31
I0
sg32
I9
ssI7
(dp109
g30
I5
sg31
I0
sg32
I8
sssI11
(dp110
I2
(dp111
g30
I8
sg31
I0
sg32
I4
ssI3
(dp112
g30
I7
sg31
I0
sg32
I3
ssI4
(dp113
g30
I6
sg31
I0
sg32
I0
ssI5
(dp114
g30
I8
sg31
I0
sg32
I5
ssI6
(dp115
g30
I8
sg31
I0
sg32
I4
ssI8
(dp116
g30
I8
sg31
I0
sg32
I1
ssI9
(dp117
g30
I5
sg31
I0
sg32
I10
ssI12
(dp118
g30
I8
sg31
I0
sg32
I5
ssI13
(dp119
g30
I7
sg31
I0
sg32
I6
sssI12
(dp120
I8
(dp121
g30
I5
sg31
I0
sg32
I7
ssI9
(dp122
g30
I7
sg31
I0
sg32
I7
ssI3
(dp123
g30
I8
sg31
I0
sg32
I4
ssI4
(dp124
g30
I6
sg31
I0
sg32
I5
ssI5
(dp125
g30
I7
sg31
I0
sg32
I8
sssI13
(dp126
I1
(dp127
g30
I6
sg31
I0
sg32
I7
ssI4
(dp128
g30
I7
sg31
I0
sg32
I7
ssI5
(dp129
g30
I7
sg31
I0
sg32
I10
ssI8
(dp130
g30
I6
sg31
I0
sg32
I5
ssI10
(dp131
g30
I6
sg31
I0
sg32
I6
ssI11
(dp132
g30
I6
sg31
I0
sg32
I2
ssI14
(dp133
g30
I7
sg31
I0
sg32
I0
ssI15
(dp134
g30
I6
sg31
I0
sg32
I4
sssI14
(dp135
I2
(dp136
g30
I6
sg31
I0
sg32
I0
ssI4
(dp137
g30
I8
sg31
I0
sg32
I9
ssI5
(dp138
g30
I5
sg31
I0
sg32
I9
ssI10
(dp139
g30
I7
sg31
I0
sg32
I1
ssI11
(dp140
g30
I8
sg31
I0
sg32
I10
ssI12
(dp141
g30
I7
sg31
I0
sg32
I4
ssI13
(dp142
g30
I6
sg31
I0
sg32
I10
sssI15
(dp143
I4
(dp144
g30
I7
sg31
I0
sg32
I2
ssI5
(dp145
g30
I6
sg31
I0
sg32
I7
ssI7
(dp146
g30
I7
sg31
I0
sg32
I7
ssI8
(dp147
g30
I8
sg31
I0
sg32
I10
ssI10
(dp148
g30
I5
sg31
I0
sg32
I10
ssI11
(dp149
g30
I5
sg31
I0
sg32
I3
ssI13
(dp150
g30
I7
sg31
I0
sg32
I7
ssssS'edge'
p151
g27
sS'pred'
p152
(dp153
I1
(dp154
I9
g99
sI2
g41
sI3
g48
sI13
g127
ssI2
(dp155
I3
g49
sI4
g58
sI5
g66
sI7
g84
sI11
g111
sI14
g136
ssI3
(dp156
I1
g29
sI6
g76
sI8
g91
sI9
g100
sI11
g112
sI12
g123
ssI4
(dp157
I2
g42
sI3
g50
sI5
g67
sI8
g92
sI9
g101
sI11
g113
sI12
g124
sI13
g128
sI14
g137
sI15
g144
ssI5
(dp158
I1
g33
sI6
g77
sI7
g85
sI11
g114
sI12
g125
sI13
g129
sI14
g138
sI15
g145
ssI6
(dp159
I3
g51
sI4
g59
sI5
g68
sI9
g102
sI10
g108
sI11
g115
ssI7
(dp160
I1
g34
sI10
g109
sI3
g52
sI2
g43
sI15
g146
ssI8
(dp161
I2
g44
sI4
g60
sI5
g69
sI6
g78
sI9
g103
sI10
g107
sI11
g116
sI12
g121
sI13
g130
sI15
g147
ssI9
(dp162
I1
g35
sI4
g61
sI5
g70
sI7
g86
sI11
g117
sI12
g122
ssI10
(dp163
I2
g45
sI3
g53
sI4
g62
sI5
g71
sI6
g79
sI8
g93
sI13
g131
sI14
g139
sI15
g148
ssI11
(dp164
I1
g36
sI5
g72
sI6
g80
sI13
g132
sI14
g140
sI15
g149
ssI12
(dp165
I8
g94
sI1
g37
sI11
g118
sI14
g141
sI9
g104
ssI13
(dp166
I1
g38
sI3
g54
sI5
g73
sI6
g81
sI7
g87
sI8
g95
sI11
g119
sI14
g142
sI15
g150
ssI14
(dp167
I1
g39
sI2
g46
sI3
g55
sI4
g63
sI5
g74
sI7
g88
sI8
g96
sI9
g105
sI13
g133
ssI15
(dp168
I3
g56
sI4
g64
sI6
g82
sI7
g89
sI8
g97
sI13
g134
sssS'adj'
p169
g27
sb.