ccopy_reg
_reconstructor
p1
(cnetworkx.classes.digraph
DiGraph
p2
c__builtin__
object
p3
NtRp4
(dp5
S'node'
p6
(dp7
I1
(dp8
S'demand'
p9
I4
ssI2
(dp10
g9
I16
ssI3
(dp11
g9
I11
ssI4
(dp12
g9
I1
ssI5
(dp13
g9
I2
ssI6
(dp14
g9
I15
ssI7
(dp15
g9
I4
ssI8
(dp16
g9
I0
ssI9
(dp17
g9
I0
ssI10
(dp18
g9
I0
ssI11
(dp19
g9
I0
ssI12
(dp20
g9
I0
ssI13
(dp21
g9
I0
ssI14
(dp22
g9
I0
ssI15
(dp23
g9
I-53
sssS'graph'
p24
(dp25
sS'succ'
p26
(dp27
I1
(dp28
I3
(dp29
S'capacity'
p30
I7
sS'fluxo'
p31
I0
sS'weight'
p32
I2
ssI4
(dp33
g30
I7
sg31
I0
sg32
I10
ssI6
(dp34
g30
I6
sg31
I0
sg32
I9
ssI15
(dp35
g30
I5
sg31
I0
sg32
I7
sssI2
(dp36
I8
(dp37
g30
I6
sg31
I0
sg32
I4
ssI10
(dp38
g30
I8
sg31
I0
sg32
I10
ssI4
(dp39
g30
I6
sg31
I0
sg32
I4
ssI13
(dp40
g30
I6
sg31
I0
sg32
I7
ssI15
(dp41
g30
I6
sg31
I0
sg32
I0
sssI3
(dp42
I5
(dp43
g30
I8
sg31
I0
sg32
I10
ssI6
(dp44
g30
I7
sg31
I0
sg32
I2
ssI7
(dp45
g30
I7
sg31
I0
sg32
I10
ssI9
(dp46
g30
I6
sg31
I0
sg32
I8
ssI10
(dp47
g30
I7
sg31
I0
sg32
I10
ssI11
(dp48
g30
I5
sg31
I0
sg32
I5
ssI12
(dp49
g30
I5
sg31
I0
sg32
I7
sssI4
(dp50
I8
(dp51
g30
I6
sg31
I0
sg32
I2
ssI9
(dp52
g30
I5
sg31
I0
sg32
I1
ssI3
(dp53
g30
I8
sg31
I0
sg32
I10
ssI6
(dp54
g30
I7
sg31
I0
sg32
I9
ssI7
(dp55
g30
I8
sg31
I0
sg32
I4
sssI5
(dp56
I1
(dp57
g30
I7
sg31
I0
sg32
I10
ssI3
(dp58
g30
I5
sg31
I0
sg32
I7
ssI4
(dp59
g30
I6
sg31
I0
sg32
I4
ssI7
(dp60
g30
I5
sg31
I0
sg32
I10
ssI8
(dp61
g30
I6
sg31
I0
sg32
I0
ssI9
(dp62
g30
I6
sg31
I0
sg32
I3
ssI11
(dp63
g30
I5
sg31
I0
sg32
I7
ssI13
(dp64
g30
I6
sg31
I0
sg32
I4
sssI6
(dp65
I2
(dp66
g30
I6
sg31
I0
sg32
I3
ssI3
(dp67
g30
I8
sg31
I0
sg32
I0
ssI7
(dp68
g30
I6
sg31
I0
sg32
I5
ssI8
(dp69
g30
I8
sg31
I0
sg32
I1
ssI9
(dp70
g30
I8
sg31
I0
sg32
I5
ssI10
(dp71
g30
I6
sg31
I0
sg32
I9
ssI11
(dp72
g30
I7
sg31
I0
sg32
I3
ssI13
(dp73
g30
I7
sg31
I0
sg32
I6
ssI14
(dp74
g30
I5
sg31
I0
sg32
I7
sssI7
(dp75
I2
(dp76
g30
I6
sg31
I0
sg32
I6
ssI4
(dp77
g30
I6
sg31
I0
sg32
I0
ssI5
(dp78
g30
I8
sg31
I0
sg32
I1
ssI6
(dp79
g30
I7
sg31
I0
sg32
I9
ssI8
(dp80
g30
I6
sg31
I0
sg32
I2
ssI9
(dp81
g30
I5
sg31
I0
sg32
I10
ssI10
(dp82
g30
I5
sg31
I0
sg32
I3
ssI11
(dp83
g30
I6
sg31
I0
sg32
I3
ssI15
(dp84
g30
I5
sg31
I0
sg32
I0
sssI8
(dp85
I1
(dp86
g30
I7
sg31
I0
sg32
I4
ssI3
(dp87
g30
I6
sg31
I0
sg32
I9
ssI4
(dp88
g30
I7
sg31
I0
sg32
I5
ssI9
(dp89
g30
I5
sg31
I0
sg32
I3
ssI10
(dp90
g30
I7
sg31
I0
sg32
I10
ssI11
(dp91
g30
I5
sg31
I0
sg32
I3
ssI12
(dp92
g30
I5
sg31
I0
sg32
I5
ssI14
(dp93
g30
I8
sg31
I0
sg32
I2
sssI9
(dp94
I1
(dp95
g30
I8
sg31
I0
sg32
I3
ssI3
(dp96
g30
I5
sg31
I0
sg32
I3
ssI4
(dp97
g30
I7
sg31
I0
sg32
I1
ssI5
(dp98
g30
I6
sg31
I0
sg32
I3
ssI7
(dp99
g30
I7
sg31
I0
sg32
I10
ssI12
(dp100
g30
I6
sg31
I0
sg32
I4
ssI14
(dp101
g30
I7
sg31
I0
sg32
I2
sssI10
(dp102
I3
(dp103
g30
I7
sg31
I0
sg32
I3
ssI4
(dp104
g30
I7
sg31
I0
sg32
I6
ssI6
(dp105
g30
I7
sg31
I0
sg32
I6
ssI7
(dp106
g30
I6
sg31
I0
sg32
I4
ssI9
(dp107
g30
I8
sg31
I0
sg32
I8
ssI11
(dp108
g30
I6
sg31
I0
sg32
I1
ssI14
(dp109
g30
I7
sg31
I0
sg32
I4
ssI15
(dp110
g30
I8
sg31
I0
sg32
I0
sssI11
(dp111
I8
(dp112
g30
I5
sg31
I0
sg32
I7
ssI9
(dp113
g30
I5
sg31
I0
sg32
I8
ssI13
(dp114
g30
I7
sg31
I0
sg32
I4
ssI6
(dp115
g30
I7
sg31
I0
sg32
I6
ssI7
(dp116
g30
I7
sg31
I0
sg32
I8
sssI12
(dp117
I1
(dp118
g30
I7
sg31
I0
sg32
I10
ssI2
(dp119
g30
I6
sg31
I0
sg32
I6
ssI3
(dp120
g30
I8
sg31
I0
sg32
I7
ssI5
(dp121
g30
I6
sg31
I0
sg32
I1
ssI6
(dp122
g30
I7
sg31
I0
sg32
I7
ssI9
(dp123
g30
I7
sg31
I0
sg32
I6
ssI10
(dp124
g30
I5
sg31
I0
sg32
I9
sssI13
(dp125
I1
(dp126
g30
I7
sg31
I0
sg32
I3
ssI3
(dp127
g30
I7
sg31
I0
sg32
I1
ssI6
(dp128
g30
I7
sg31
I0
sg32
I6
ssI8
(dp129
g30
I6
sg31
I0
sg32
I9
ssI9
(dp130
g30
I6
sg31
I0
sg32
I1
ssI10
(dp131
g30
I8
sg31
I0
sg32
I3
ssI11
(dp132
g30
I7
sg31
I0
sg32
I4
sssI14
(dp133
I1
(dp134
g30
I6
sg31
I0
sg32
I5
ssI2
(dp135
g30
I8
sg31
I0
sg32
I3
ssI3
(dp136
g30
I7
sg31
I0
sg32
I7
ssI5
(dp137
g30
I6
sg31
I0
sg32
I0
ssI6
(dp138
g30
I8
sg31
I0
sg32
I7
ssI9
(dp139
g30
I5
sg31
I0
sg32
I3
ssI13
(dp140
g30
I7
sg31
I0
sg32
I0
ssI15
(dp141
g30
I8
sg31
I0
sg32
I4
sssI15
(dp142
I1
(dp143
g30
I6
sg31
I0
sg32
I9
ssI2
(dp144
g30
I6
sg31
I0
sg32
I8
ssI4
(dp145
g30
I8
sg31
I0
sg32
I9
ssI6
(dp146
g30
I5
sg31
I0
sg32
I7
ssI7
(dp147
g30
I8
sg31
I0
sg32
I5
ssI12
(dp148
g30
I7
sg31
I0
sg32
I3
ssI13
(dp149
g30
I8
sg31
I0
sg32
I2
ssI14
(dp150
g30
I6
sg31
I0
sg32
I4
ssssS'edge'
p151
g27
sS'pred'
p152
(dp153
I1
(dp154
I5
g57
sI8
g86
sI9
g95
sI12
g118
sI13
g126
sI14
g134
sI15
g143
ssI2
(dp155
I7
g76
sI12
g119
sI14
g135
sI6
g66
sI15
g144
ssI3
(dp156
I1
g29
sI4
g53
sI5
g58
sI6
g67
sI8
g87
sI9
g96
sI10
g103
sI12
g120
sI13
g127
sI14
g136
ssI4
(dp157
I1
g33
sI2
g39
sI5
g59
sI7
g77
sI8
g88
sI9
g97
sI10
g104
sI15
g145
ssI5
(dp158
I9
g98
sI3
g43
sI12
g121
sI14
g137
sI7
g78
ssI6
(dp159
I1
g34
sI3
g44
sI4
g54
sI7
g79
sI10
g105
sI11
g115
sI12
g122
sI13
g128
sI14
g138
sI15
g146
ssI7
(dp160
I3
g45
sI4
g55
sI5
g60
sI6
g68
sI9
g99
sI10
g106
sI11
g116
sI15
g147
ssI8
(dp161
I2
g37
sI4
g51
sI5
g61
sI6
g69
sI7
g80
sI11
g112
sI13
g129
ssI9
(dp162
I3
g46
sI4
g52
sI5
g62
sI6
g70
sI7
g81
sI8
g89
sI10
g107
sI11
g113
sI12
g123
sI13
g130
sI14
g139
ssI10
(dp163
I2
g38
sI3
g47
sI6
g71
sI7
g82
sI8
g90
sI12
g124
sI13
g131
ssI11
(dp164
I3
g48
sI5
g63
sI6
g72
sI7
g83
sI8
g91
sI10
g108
sI13
g132
ssI12
(dp165
I8
g92
sI9
g100
sI3
g49
sI15
g148
ssI13
(dp166
I2
g40
sI5
g64
sI6
g73
sI11
g114
sI14
g140
sI15
g149
ssI14
(dp167
I8
g93
sI9
g101
sI10
g109
sI6
g74
sI15
g150
ssI15
(dp168
I1
g35
sI10
g110
sI2
g41
sI14
g141
sI7
g84
sssS'adj'
p169
g27
sb.