ccopy_reg
_reconstructor
p1
(cnetworkx.classes.digraph
DiGraph
p2
c__builtin__
object
p3
NtRp4
(dp5
S'node'
p6
(dp7
I1
(dp8
S'demand'
p9
I2
ssI2
(dp10
g9
I11
ssI3
(dp11
g9
I9
ssI4
(dp12
g9
I5
ssI5
(dp13
g9
I7
ssI6
(dp14
g9
I2
ssI7
(dp15
g9
I17
ssI8
(dp16
g9
I0
ssI9
(dp17
g9
I0
ssI10
(dp18
g9
I0
ssI11
(dp19
g9
I0
ssI12
(dp20
g9
I0
ssI13
(dp21
g9
I0
ssI14
(dp22
g9
I0
ssI15
(dp23
g9
I-53
sssS'graph'
p24
(dp25
sS'succ'
p26
(dp27
I1
(dp28
I3
(dp29
S'capacity'
p30
I7
sS'fluxo'
p31
I0
sS'weight'
p32
I1
ssI8
(dp33
g30
I8
sg31
I0
sg32
I4
ssI9
(dp34
g30
I8
sg31
I0
sg32
I9
ssI11
(dp35
g30
I7
sg31
I0
sg32
I7
ssI13
(dp36
g30
I8
sg31
I0
sg32
I7
ssI15
(dp37
g30
I7
sg31
I0
sg32
I7
sssI2
(dp38
I1
(dp39
g30
I6
sg31
I0
sg32
I4
ssI3
(dp40
g30
I8
sg31
I0
sg32
I8
ssI4
(dp41
g30
I5
sg31
I0
sg32
I4
ssI6
(dp42
g30
I6
sg31
I0
sg32
I4
ssI7
(dp43
g30
I7
sg31
I0
sg32
I8
ssI11
(dp44
g30
I8
sg31
I0
sg32
I9
ssI12
(dp45
g30
I6
sg31
I0
sg32
I1
ssI13
(dp46
g30
I5
sg31
I0
sg32
I5
ssI15
(dp47
g30
I7
sg31
I0
sg32
I1
sssI3
(dp48
I2
(dp49
g30
I5
sg31
I0
sg32
I5
ssI4
(dp50
g30
I5
sg31
I0
sg32
I6
ssI8
(dp51
g30
I8
sg31
I0
sg32
I1
ssI9
(dp52
g30
I8
sg31
I0
sg32
I4
ssI12
(dp53
g30
I6
sg31
I0
sg32
I2
ssI13
(dp54
g30
I7
sg31
I0
sg32
I5
sssI4
(dp55
I1
(dp56
g30
I7
sg31
I0
sg32
I4
ssI5
(dp57
g30
I8
sg31
I0
sg32
I2
ssI6
(dp58
g30
I6
sg31
I0
sg32
I2
ssI9
(dp59
g30
I8
sg31
I0
sg32
I7
ssI10
(dp60
g30
I5
sg31
I0
sg32
I5
ssI11
(dp61
g30
I6
sg31
I0
sg32
I1
ssI13
(dp62
g30
I8
sg31
I0
sg32
I10
ssI14
(dp63
g30
I5
sg31
I0
sg32
I1
ssI15
(dp64
g30
I5
sg31
I0
sg32
I5
sssI5
(dp65
I10
(dp66
g30
I7
sg31
I0
sg32
I8
ssI4
(dp67
g30
I7
sg31
I0
sg32
I7
ssI13
(dp68
g30
I5
sg31
I0
sg32
I10
ssI14
(dp69
g30
I8
sg31
I0
sg32
I10
ssI7
(dp70
g30
I7
sg31
I0
sg32
I9
sssI6
(dp71
I1
(dp72
g30
I7
sg31
I0
sg32
I4
ssI2
(dp73
g30
I6
sg31
I0
sg32
I3
ssI3
(dp74
g30
I5
sg31
I0
sg32
I10
ssI4
(dp75
g30
I5
sg31
I0
sg32
I6
ssI5
(dp76
g30
I7
sg31
I0
sg32
I8
ssI8
(dp77
g30
I5
sg31
I0
sg32
I6
ssI13
(dp78
g30
I7
sg31
I0
sg32
I10
ssI15
(dp79
g30
I8
sg31
I0
sg32
I6
sssI7
(dp80
I2
(dp81
g30
I6
sg31
I0
sg32
I1
ssI3
(dp82
g30
I6
sg31
I0
sg32
I3
ssI4
(dp83
g30
I5
sg31
I0
sg32
I0
ssI5
(dp84
g30
I7
sg31
I0
sg32
I5
ssI6
(dp85
g30
I6
sg31
I0
sg32
I3
ssI10
(dp86
g30
I8
sg31
I0
sg32
I7
ssI15
(dp87
g30
I8
sg31
I0
sg32
I4
sssI8
(dp88
I10
(dp89
g30
I6
sg31
I0
sg32
I5
ssI4
(dp90
g30
I8
sg31
I0
sg32
I2
ssI13
(dp91
g30
I6
sg31
I0
sg32
I9
ssI6
(dp92
g30
I6
sg31
I0
sg32
I5
ssI15
(dp93
g30
I5
sg31
I0
sg32
I1
sssI9
(dp94
I1
(dp95
g30
I5
sg31
I0
sg32
I5
ssI4
(dp96
g30
I7
sg31
I0
sg32
I7
ssI5
(dp97
g30
I6
sg31
I0
sg32
I2
ssI8
(dp98
g30
I6
sg31
I0
sg32
I4
ssI11
(dp99
g30
I6
sg31
I0
sg32
I0
ssI12
(dp100
g30
I5
sg31
I0
sg32
I4
ssI14
(dp101
g30
I5
sg31
I0
sg32
I6
ssI15
(dp102
g30
I6
sg31
I0
sg32
I8
sssI10
(dp103
I1
(dp104
g30
I5
sg31
I0
sg32
I5
ssI9
(dp105
g30
I7
sg31
I0
sg32
I8
ssI4
(dp106
g30
I6
sg31
I0
sg32
I3
ssI6
(dp107
g30
I8
sg31
I0
sg32
I1
ssI15
(dp108
g30
I5
sg31
I0
sg32
I6
sssI11
(dp109
I1
(dp110
g30
I7
sg31
I0
sg32
I1
ssI4
(dp111
g30
I7
sg31
I0
sg32
I9
ssI5
(dp112
g30
I5
sg31
I0
sg32
I8
ssI7
(dp113
g30
I8
sg31
I0
sg32
I10
ssI8
(dp114
g30
I7
sg31
I0
sg32
I5
ssI10
(dp115
g30
I8
sg31
I0
sg32
I1
ssI13
(dp116
g30
I5
sg31
I0
sg32
I4
ssI14
(dp117
g30
I7
sg31
I0
sg32
I4
sssI12
(dp118
I2
(dp119
g30
I6
sg31
I0
sg32
I9
ssI4
(dp120
g30
I6
sg31
I0
sg32
I0
ssI5
(dp121
g30
I8
sg31
I0
sg32
I7
ssI6
(dp122
g30
I8
sg31
I0
sg32
I4
ssI7
(dp123
g30
I8
sg31
I0
sg32
I1
ssI11
(dp124
g30
I7
sg31
I0
sg32
I10
ssI13
(dp125
g30
I5
sg31
I0
sg32
I9
ssI14
(dp126
g30
I7
sg31
I0
sg32
I2
ssI15
(dp127
g30
I7
sg31
I0
sg32
I7
sssI13
(dp128
I5
(dp129
g30
I7
sg31
I0
sg32
I0
ssI6
(dp130
g30
I5
sg31
I0
sg32
I8
ssI9
(dp131
g30
I7
sg31
I0
sg32
I1
ssI10
(dp132
g30
I6
sg31
I0
sg32
I3
ssI12
(dp133
g30
I8
sg31
I0
sg32
I6
ssI15
(dp134
g30
I8
sg31
I0
sg32
I4
sssI14
(dp135
I3
(dp136
g30
I8
sg31
I0
sg32
I7
ssI4
(dp137
g30
I5
sg31
I0
sg32
I2
ssI5
(dp138
g30
I5
sg31
I0
sg32
I6
ssI6
(dp139
g30
I7
sg31
I0
sg32
I4
ssI8
(dp140
g30
I6
sg31
I0
sg32
I5
ssI13
(dp141
g30
I7
sg31
I0
sg32
I2
sssI15
(dp142
I1
(dp143
g30
I7
sg31
I0
sg32
I0
ssI4
(dp144
g30
I6
sg31
I0
sg32
I8
ssI5
(dp145
g30
I7
sg31
I0
sg32
I1
ssI6
(dp146
g30
I8
sg31
I0
sg32
I10
ssI8
(dp147
g30
I6
sg31
I0
sg32
I6
ssI9
(dp148
g30
I5
sg31
I0
sg32
I7
ssI12
(dp149
g30
I8
sg31
I0
sg32
I10
ssI13
(dp150
g30
I7
sg31
I0
sg32
I10
ssssS'edge'
p151
g27
sS'pred'
p152
(dp153
I1
(dp154
I2
g39
sI4
g56
sI6
g72
sI9
g95
sI10
g104
sI11
g110
sI15
g143
ssI2
(dp155
I3
g49
sI12
g119
sI6
g73
sI7
g81
ssI3
(dp156
I1
g29
sI2
g40
sI14
g136
sI6
g74
sI7
g82
ssI4
(dp157
I2
g41
sI3
g50
sI5
g67
sI6
g75
sI7
g83
sI8
g90
sI9
g96
sI10
g106
sI11
g111
sI12
g120
sI14
g137
sI15
g144
ssI5
(dp158
I4
g57
sI6
g76
sI7
g84
sI9
g97
sI11
g112
sI12
g121
sI13
g129
sI14
g138
sI15
g145
ssI6
(dp159
I2
g42
sI4
g58
sI7
g85
sI8
g92
sI10
g107
sI12
g122
sI13
g130
sI14
g139
sI15
g146
ssI7
(dp160
I2
g43
sI11
g113
sI12
g123
sI5
g70
ssI8
(dp161
I1
g33
sI3
g51
sI6
g77
sI9
g98
sI11
g114
sI14
g140
sI15
g147
ssI9
(dp162
I1
g34
sI3
g52
sI4
g59
sI10
g105
sI13
g131
sI15
g148
ssI10
(dp163
I4
g60
sI5
g66
sI7
g86
sI8
g89
sI11
g115
sI13
g132
ssI11
(dp164
I9
g99
sI2
g44
sI4
g61
sI12
g124
sI1
g35
ssI12
(dp165
I9
g100
sI2
g45
sI3
g53
sI13
g133
sI15
g149
ssI13
(dp166
I1
g36
sI2
g46
sI3
g54
sI4
g62
sI5
g68
sI6
g78
sI8
g91
sI11
g116
sI12
g125
sI14
g141
sI15
g150
ssI14
(dp167
I9
g101
sI11
g117
sI4
g63
sI5
g69
sI12
g126
ssI15
(dp168
I1
g37
sI2
g47
sI4
g64
sI6
g79
sI7
g87
sI8
g93
sI9
g102
sI10
g108
sI12
g127
sI13
g134
sssS'adj'
p169
g27
sb.