ccopy_reg
_reconstructor
p1
(cnetworkx.classes.digraph
DiGraph
p2
c__builtin__
object
p3
NtRp4
(dp5
S'node'
p6
(dp7
I1
(dp8
S'demand'
p9
I9
ssI2
(dp10
g9
I5
ssI3
(dp11
g9
I8
ssI4
(dp12
g9
I2
ssI5
(dp13
g9
I8
ssI6
(dp14
g9
I18
ssI7
(dp15
g9
I1
ssI8
(dp16
g9
I0
ssI9
(dp17
g9
I0
ssI10
(dp18
g9
I0
ssI11
(dp19
g9
I0
ssI12
(dp20
g9
I0
ssI13
(dp21
g9
I0
ssI14
(dp22
g9
I0
ssI15
(dp23
g9
I-51
sssS'graph'
p24
(dp25
sS'succ'
p26
(dp27
I1
(dp28
I2
(dp29
S'capacity'
p30
I8
sS'fluxo'
p31
I0
sS'weight'
p32
I9
ssI3
(dp33
g30
I6
sg31
I0
sg32
I9
ssI8
(dp34
g30
I5
sg31
I0
sg32
I7
ssI9
(dp35
g30
I5
sg31
I0
sg32
I9
ssI12
(dp36
g30
I6
sg31
I0
sg32
I6
ssI13
(dp37
g30
I7
sg31
I0
sg32
I10
ssI14
(dp38
g30
I6
sg31
I0
sg32
I9
ssI15
(dp39
g30
I8
sg31
I0
sg32
I6
sssI2
(dp40
I1
(dp41
g30
I5
sg31
I0
sg32
I1
ssI4
(dp42
g30
I8
sg31
I0
sg32
I5
ssI6
(dp43
g30
I8
sg31
I0
sg32
I0
ssI7
(dp44
g30
I8
sg31
I0
sg32
I8
ssI8
(dp45
g30
I6
sg31
I0
sg32
I2
ssI9
(dp46
g30
I6
sg31
I0
sg32
I2
ssI10
(dp47
g30
I5
sg31
I0
sg32
I10
ssI11
(dp48
g30
I6
sg31
I0
sg32
I1
ssI13
(dp49
g30
I5
sg31
I0
sg32
I5
ssI14
(dp50
g30
I5
sg31
I0
sg32
I9
ssI15
(dp51
g30
I8
sg31
I0
sg32
I2
sssI3
(dp52
I4
(dp53
g30
I5
sg31
I0
sg32
I6
ssI6
(dp54
g30
I5
sg31
I0
sg32
I0
ssI9
(dp55
g30
I6
sg31
I0
sg32
I2
ssI10
(dp56
g30
I5
sg31
I0
sg32
I1
ssI12
(dp57
g30
I7
sg31
I0
sg32
I4
ssI13
(dp58
g30
I7
sg31
I0
sg32
I2
ssI14
(dp59
g30
I5
sg31
I0
sg32
I9
ssI15
(dp60
g30
I7
sg31
I0
sg32
I0
sssI4
(dp61
I2
(dp62
g30
I7
sg31
I0
sg32
I3
ssI6
(dp63
g30
I6
sg31
I0
sg32
I1
ssI7
(dp64
g30
I8
sg31
I0
sg32
I4
ssI8
(dp65
g30
I5
sg31
I0
sg32
I0
ssI9
(dp66
g30
I7
sg31
I0
sg32
I5
ssI10
(dp67
g30
I7
sg31
I0
sg32
I10
ssI12
(dp68
g30
I7
sg31
I0
sg32
I5
ssI14
(dp69
g30
I5
sg31
I0
sg32
I4
sssI5
(dp70
I2
(dp71
g30
I5
sg31
I0
sg32
I10
ssI13
(dp72
g30
I6
sg31
I0
sg32
I6
sssI6
(dp73
I2
(dp74
g30
I7
sg31
I0
sg32
I6
ssI3
(dp75
g30
I6
sg31
I0
sg32
I3
ssI7
(dp76
g30
I8
sg31
I0
sg32
I9
ssI8
(dp77
g30
I6
sg31
I0
sg32
I7
ssI9
(dp78
g30
I8
sg31
I0
sg32
I9
ssI10
(dp79
g30
I7
sg31
I0
sg32
I10
ssI15
(dp80
g30
I8
sg31
I0
sg32
I8
sssI7
(dp81
I11
(dp82
g30
I5
sg31
I0
sg32
I8
ssI9
(dp83
g30
I7
sg31
I0
sg32
I1
ssI3
(dp84
g30
I8
sg31
I0
sg32
I3
ssI14
(dp85
g30
I5
sg31
I0
sg32
I10
sssI8
(dp86
I5
(dp87
g30
I5
sg31
I0
sg32
I6
ssI6
(dp88
g30
I7
sg31
I0
sg32
I2
ssI10
(dp89
g30
I8
sg31
I0
sg32
I0
ssI12
(dp90
g30
I5
sg31
I0
sg32
I10
ssI14
(dp91
g30
I7
sg31
I0
sg32
I3
ssI15
(dp92
g30
I5
sg31
I0
sg32
I3
sssI9
(dp93
I1
(dp94
g30
I5
sg31
I0
sg32
I6
ssI10
(dp95
g30
I6
sg31
I0
sg32
I8
ssI13
(dp96
g30
I6
sg31
I0
sg32
I10
ssI6
(dp97
g30
I7
sg31
I0
sg32
I1
ssI5
(dp98
g30
I5
sg31
I0
sg32
I5
sssI10
(dp99
I1
(dp100
g30
I7
sg31
I0
sg32
I10
ssI3
(dp101
g30
I6
sg31
I0
sg32
I4
ssI6
(dp102
g30
I7
sg31
I0
sg32
I5
ssI7
(dp103
g30
I6
sg31
I0
sg32
I4
ssI8
(dp104
g30
I6
sg31
I0
sg32
I8
ssI11
(dp105
g30
I5
sg31
I0
sg32
I8
ssI13
(dp106
g30
I7
sg31
I0
sg32
I2
sssI11
(dp107
I2
(dp108
g30
I8
sg31
I0
sg32
I1
ssI3
(dp109
g30
I6
sg31
I0
sg32
I8
ssI4
(dp110
g30
I8
sg31
I0
sg32
I5
ssI7
(dp111
g30
I8
sg31
I0
sg32
I9
ssI13
(dp112
g30
I8
sg31
I0
sg32
I10
ssI15
(dp113
g30
I5
sg31
I0
sg32
I4
sssI12
(dp114
I1
(dp115
g30
I5
sg31
I0
sg32
I6
ssI2
(dp116
g30
I8
sg31
I0
sg32
I3
ssI3
(dp117
g30
I5
sg31
I0
sg32
I8
ssI4
(dp118
g30
I6
sg31
I0
sg32
I2
ssI5
(dp119
g30
I6
sg31
I0
sg32
I3
ssI6
(dp120
g30
I5
sg31
I0
sg32
I8
ssI8
(dp121
g30
I8
sg31
I0
sg32
I1
ssI9
(dp122
g30
I6
sg31
I0
sg32
I6
ssI10
(dp123
g30
I7
sg31
I0
sg32
I2
ssI14
(dp124
g30
I5
sg31
I0
sg32
I1
ssI15
(dp125
g30
I8
sg31
I0
sg32
I9
sssI13
(dp126
I3
(dp127
g30
I5
sg31
I0
sg32
I5
ssI4
(dp128
g30
I5
sg31
I0
sg32
I2
ssI5
(dp129
g30
I8
sg31
I0
sg32
I9
ssI7
(dp130
g30
I7
sg31
I0
sg32
I0
ssI10
(dp131
g30
I5
sg31
I0
sg32
I6
ssI11
(dp132
g30
I6
sg31
I0
sg32
I2
ssI12
(dp133
g30
I7
sg31
I0
sg32
I1
sssI14
(dp134
I1
(dp135
g30
I8
sg31
I0
sg32
I7
ssI4
(dp136
g30
I5
sg31
I0
sg32
I0
ssI6
(dp137
g30
I8
sg31
I0
sg32
I3
ssI8
(dp138
g30
I8
sg31
I0
sg32
I0
ssI10
(dp139
g30
I6
sg31
I0
sg32
I1
ssI12
(dp140
g30
I5
sg31
I0
sg32
I0
ssI15
(dp141
g30
I8
sg31
I0
sg32
I4
sssI15
(dp142
I2
(dp143
g30
I5
sg31
I0
sg32
I7
ssI5
(dp144
g30
I7
sg31
I0
sg32
I2
ssI6
(dp145
g30
I8
sg31
I0
sg32
I7
ssI9
(dp146
g30
I7
sg31
I0
sg32
I2
ssI10
(dp147
g30
I5
sg31
I0
sg32
I2
ssI11
(dp148
g30
I6
sg31
I0
sg32
I0
ssI13
(dp149
g30
I6
sg31
I0
sg32
I3
ssI14
(dp150
g30
I7
sg31
I0
sg32
I8
ssssS'edge'
p151
g27
sS'pred'
p152
(dp153
I1
(dp154
I9
g94
sI10
g100
sI12
g115
sI2
g41
sI14
g135
ssI2
(dp155
I1
g29
sI4
g62
sI5
g71
sI6
g74
sI11
g108
sI12
g116
sI15
g143
ssI3
(dp156
I1
g33
sI6
g75
sI7
g84
sI10
g101
sI11
g109
sI12
g117
sI13
g127
ssI4
(dp157
I2
g42
sI3
g53
sI11
g110
sI12
g118
sI13
g128
sI14
g136
ssI5
(dp158
I8
g87
sI9
g98
sI12
g119
sI13
g129
sI15
g144
ssI6
(dp159
I2
g43
sI3
g54
sI4
g63
sI8
g88
sI9
g97
sI10
g102
sI12
g120
sI14
g137
sI15
g145
ssI7
(dp160
I2
g44
sI4
g64
sI6
g76
sI10
g103
sI11
g111
sI13
g130
ssI8
(dp161
I1
g34
sI2
g45
sI4
g65
sI6
g77
sI10
g104
sI12
g121
sI14
g138
ssI9
(dp162
I1
g35
sI2
g46
sI3
g55
sI4
g66
sI6
g78
sI7
g83
sI12
g122
sI15
g146
ssI10
(dp163
I2
g47
sI3
g56
sI4
g67
sI6
g79
sI8
g89
sI9
g95
sI12
g123
sI13
g131
sI14
g139
sI15
g147
ssI11
(dp164
I2
g48
sI10
g105
sI15
g148
sI13
g132
sI7
g82
ssI12
(dp165
I1
g36
sI3
g57
sI4
g68
sI8
g90
sI13
g133
sI14
g140
ssI13
(dp166
I1
g37
sI2
g49
sI3
g58
sI5
g72
sI9
g96
sI10
g106
sI11
g112
sI15
g149
ssI14
(dp167
I1
g38
sI2
g50
sI3
g59
sI4
g69
sI7
g85
sI8
g91
sI12
g124
sI15
g150
ssI15
(dp168
I1
g39
sI2
g51
sI3
g60
sI6
g80
sI8
g92
sI11
g113
sI12
g125
sI14
g141
sssS'adj'
p169
g27
sb.