ccopy_reg
_reconstructor
p1
(cnetworkx.classes.digraph
DiGraph
p2
c__builtin__
object
p3
NtRp4
(dp5
S'node'
p6
(dp7
I1
(dp8
S'demand'
p9
I1
ssI2
(dp10
g9
I5
ssI3
(dp11
g9
I7
ssI4
(dp12
g9
I8
ssI5
(dp13
g9
I3
ssI6
(dp14
g9
I10
ssI7
(dp15
g9
I6
ssI8
(dp16
g9
I0
ssI9
(dp17
g9
I0
ssI10
(dp18
g9
I0
ssI11
(dp19
g9
I0
ssI12
(dp20
g9
I0
ssI13
(dp21
g9
I0
ssI14
(dp22
g9
I0
ssI15
(dp23
g9
I-40
sssS'graph'
p24
(dp25
sS'succ'
p26
(dp27
I1
(dp28
I9
(dp29
S'capacity'
p30
I5
sS'fluxo'
p31
I0
sS'weight'
p32
I4
ssI3
(dp33
g30
I7
sg31
I0
sg32
I9
ssI4
(dp34
g30
I7
sg31
I0
sg32
I7
ssI13
(dp35
g30
I6
sg31
I0
sg32
I6
ssI5
(dp36
g30
I8
sg31
I0
sg32
I2
sssI2
(dp37
I1
(dp38
g30
I5
sg31
I0
sg32
I10
ssI4
(dp39
g30
I8
sg31
I0
sg32
I9
ssI5
(dp40
g30
I7
sg31
I0
sg32
I6
ssI6
(dp41
g30
I8
sg31
I0
sg32
I8
ssI7
(dp42
g30
I8
sg31
I0
sg32
I4
ssI8
(dp43
g30
I8
sg31
I0
sg32
I6
ssI9
(dp44
g30
I6
sg31
I0
sg32
I4
ssI10
(dp45
g30
I6
sg31
I0
sg32
I9
ssI11
(dp46
g30
I7
sg31
I0
sg32
I8
ssI13
(dp47
g30
I6
sg31
I0
sg32
I9
sssI3
(dp48
I1
(dp49
g30
I8
sg31
I0
sg32
I6
ssI2
(dp50
g30
I7
sg31
I0
sg32
I5
ssI12
(dp51
g30
I8
sg31
I0
sg32
I3
ssI4
(dp52
g30
I5
sg31
I0
sg32
I9
sssI4
(dp53
I1
(dp54
g30
I6
sg31
I0
sg32
I4
ssI2
(dp55
g30
I7
sg31
I0
sg32
I0
ssI3
(dp56
g30
I8
sg31
I0
sg32
I0
ssI7
(dp57
g30
I6
sg31
I0
sg32
I8
ssI8
(dp58
g30
I7
sg31
I0
sg32
I8
ssI9
(dp59
g30
I7
sg31
I0
sg32
I2
ssI10
(dp60
g30
I6
sg31
I0
sg32
I2
ssI11
(dp61
g30
I6
sg31
I0
sg32
I6
ssI12
(dp62
g30
I5
sg31
I0
sg32
I2
ssI13
(dp63
g30
I7
sg31
I0
sg32
I10
ssI14
(dp64
g30
I6
sg31
I0
sg32
I8
sssI5
(dp65
I1
(dp66
g30
I7
sg31
I0
sg32
I4
ssI2
(dp67
g30
I8
sg31
I0
sg32
I2
ssI3
(dp68
g30
I7
sg31
I0
sg32
I10
ssI4
(dp69
g30
I8
sg31
I0
sg32
I6
ssI6
(dp70
g30
I6
sg31
I0
sg32
I6
ssI8
(dp71
g30
I7
sg31
I0
sg32
I4
ssI12
(dp72
g30
I6
sg31
I0
sg32
I5
ssI14
(dp73
g30
I5
sg31
I0
sg32
I6
ssI15
(dp74
g30
I5
sg31
I0
sg32
I5
sssI6
(dp75
I1
(dp76
g30
I6
sg31
I0
sg32
I1
ssI12
(dp77
g30
I6
sg31
I0
sg32
I8
ssI5
(dp78
g30
I5
sg31
I0
sg32
I2
ssI15
(dp79
g30
I6
sg31
I0
sg32
I8
sssI7
(dp80
I2
(dp81
g30
I8
sg31
I0
sg32
I2
ssI4
(dp82
g30
I6
sg31
I0
sg32
I0
ssI13
(dp83
g30
I7
sg31
I0
sg32
I6
ssI14
(dp84
g30
I8
sg31
I0
sg32
I4
ssI5
(dp85
g30
I8
sg31
I0
sg32
I10
sssI8
(dp86
I1
(dp87
g30
I7
sg31
I0
sg32
I4
ssI9
(dp88
g30
I7
sg31
I0
sg32
I8
ssI10
(dp89
g30
I5
sg31
I0
sg32
I8
ssI11
(dp90
g30
I6
sg31
I0
sg32
I4
ssI12
(dp91
g30
I5
sg31
I0
sg32
I4
ssI13
(dp92
g30
I7
sg31
I0
sg32
I6
ssI15
(dp93
g30
I6
sg31
I0
sg32
I8
sssI9
(dp94
I2
(dp95
g30
I6
sg31
I0
sg32
I2
ssI3
(dp96
g30
I8
sg31
I0
sg32
I0
ssI4
(dp97
g30
I5
sg31
I0
sg32
I1
ssI6
(dp98
g30
I6
sg31
I0
sg32
I1
ssI11
(dp99
g30
I5
sg31
I0
sg32
I8
ssI13
(dp100
g30
I8
sg31
I0
sg32
I6
sssI10
(dp101
I4
(dp102
g30
I7
sg31
I0
sg32
I7
ssI6
(dp103
g30
I7
sg31
I0
sg32
I9
ssI8
(dp104
g30
I6
sg31
I0
sg32
I7
ssI12
(dp105
g30
I8
sg31
I0
sg32
I3
ssI13
(dp106
g30
I5
sg31
I0
sg32
I7
ssI15
(dp107
g30
I6
sg31
I0
sg32
I3
sssI11
(dp108
I4
(dp109
g30
I7
sg31
I0
sg32
I10
ssI5
(dp110
g30
I6
sg31
I0
sg32
I7
ssI6
(dp111
g30
I8
sg31
I0
sg32
I1
ssI8
(dp112
g30
I8
sg31
I0
sg32
I5
ssI12
(dp113
g30
I8
sg31
I0
sg32
I2
ssI14
(dp114
g30
I8
sg31
I0
sg32
I4
sssI12
(dp115
I1
(dp116
g30
I5
sg31
I0
sg32
I8
ssI10
(dp117
g30
I5
sg31
I0
sg32
I3
ssI4
(dp118
g30
I6
sg31
I0
sg32
I7
ssI5
(dp119
g30
I6
sg31
I0
sg32
I4
ssI14
(dp120
g30
I8
sg31
I0
sg32
I2
sssI13
(dp121
I1
(dp122
g30
I8
sg31
I0
sg32
I7
ssI3
(dp123
g30
I6
sg31
I0
sg32
I5
ssI4
(dp124
g30
I6
sg31
I0
sg32
I4
ssI5
(dp125
g30
I7
sg31
I0
sg32
I1
ssI7
(dp126
g30
I6
sg31
I0
sg32
I10
ssI8
(dp127
g30
I5
sg31
I0
sg32
I5
ssI9
(dp128
g30
I7
sg31
I0
sg32
I2
ssI11
(dp129
g30
I6
sg31
I0
sg32
I8
ssI12
(dp130
g30
I6
sg31
I0
sg32
I6
ssI14
(dp131
g30
I6
sg31
I0
sg32
I4
ssI15
(dp132
g30
I6
sg31
I0
sg32
I7
sssI14
(dp133
I3
(dp134
g30
I6
sg31
I0
sg32
I3
ssI4
(dp135
g30
I7
sg31
I0
sg32
I3
ssI5
(dp136
g30
I6
sg31
I0
sg32
I4
ssI6
(dp137
g30
I7
sg31
I0
sg32
I2
ssI7
(dp138
g30
I5
sg31
I0
sg32
I2
ssI8
(dp139
g30
I7
sg31
I0
sg32
I7
ssI10
(dp140
g30
I8
sg31
I0
sg32
I4
sssI15
(dp141
I1
(dp142
g30
I5
sg31
I0
sg32
I5
ssI2
(dp143
g30
I6
sg31
I0
sg32
I1
ssI3
(dp144
g30
I5
sg31
I0
sg32
I5
ssI5
(dp145
g30
I6
sg31
I0
sg32
I3
ssI7
(dp146
g30
I7
sg31
I0
sg32
I10
ssI9
(dp147
g30
I7
sg31
I0
sg32
I2
ssI12
(dp148
g30
I7
sg31
I0
sg32
I0
ssI13
(dp149
g30
I5
sg31
I0
sg32
I0
ssI14
(dp150
g30
I5
sg31
I0
sg32
I9
ssssS'edge'
p151
g27
sS'pred'
p152
(dp153
I1
(dp154
I2
g38
sI3
g49
sI4
g54
sI5
g66
sI6
g76
sI8
g87
sI12
g116
sI13
g122
sI15
g142
ssI2
(dp155
I3
g50
sI4
g55
sI5
g67
sI7
g81
sI9
g95
sI15
g143
ssI3
(dp156
I1
g33
sI4
g56
sI5
g68
sI9
g96
sI13
g123
sI14
g134
sI15
g144
ssI4
(dp157
I1
g34
sI2
g39
sI3
g52
sI5
g69
sI7
g82
sI9
g97
sI10
g102
sI11
g109
sI12
g118
sI13
g124
sI14
g135
ssI5
(dp158
I1
g36
sI2
g40
sI6
g78
sI7
g85
sI11
g110
sI12
g119
sI13
g125
sI14
g136
sI15
g145
ssI6
(dp159
I2
g41
sI5
g70
sI9
g98
sI10
g103
sI11
g111
sI14
g137
ssI7
(dp160
I2
g42
sI4
g57
sI13
g126
sI14
g138
sI15
g146
ssI8
(dp161
I2
g43
sI4
g58
sI5
g71
sI10
g104
sI11
g112
sI13
g127
sI14
g139
ssI9
(dp162
I1
g29
sI2
g44
sI4
g59
sI8
g88
sI13
g128
sI15
g147
ssI10
(dp163
I8
g89
sI12
g117
sI2
g45
sI4
g60
sI14
g140
ssI11
(dp164
I8
g90
sI9
g99
sI2
g46
sI4
g61
sI13
g129
ssI12
(dp165
I3
g51
sI4
g62
sI5
g72
sI6
g77
sI8
g91
sI10
g105
sI11
g113
sI13
g130
sI15
g148
ssI13
(dp166
I1
g35
sI2
g47
sI4
g63
sI7
g83
sI8
g92
sI9
g100
sI10
g106
sI15
g149
ssI14
(dp167
I4
g64
sI5
g73
sI7
g84
sI11
g114
sI12
g120
sI13
g131
sI15
g150
ssI15
(dp168
I8
g93
sI10
g107
sI13
g132
sI6
g79
sI5
g74
sssS'adj'
p169
g27
sb.