ccopy_reg
_reconstructor
p1
(cnetworkx.classes.digraph
DiGraph
p2
c__builtin__
object
p3
NtRp4
(dp5
S'node'
p6
(dp7
I1
(dp8
S'demand'
p9
I1
ssI2
(dp10
g9
I10
ssI3
(dp11
g9
I2
ssI4
(dp12
g9
I9
ssI5
(dp13
g9
I6
ssI6
(dp14
g9
I0
ssI7
(dp15
g9
I0
ssI8
(dp16
g9
I0
ssI9
(dp17
g9
I0
ssI10
(dp18
g9
I-28
sssS'graph'
p19
(dp20
sS'succ'
p21
(dp22
I1
(dp23
I2
(dp24
S'capacity'
p25
I6
sS'fluxo'
p26
I0
sS'weight'
p27
I5
ssI3
(dp28
g25
I7
sg26
I0
sg27
I10
ssI7
(dp29
g25
I5
sg26
I0
sg27
I8
sssI2
(dp30
I9
(dp31
g25
I5
sg26
I0
sg27
I7
ssI10
(dp32
g25
I5
sg26
I0
sg27
I0
ssI4
(dp33
g25
I6
sg26
I0
sg27
I7
ssI6
(dp34
g25
I6
sg26
I0
sg27
I0
ssI7
(dp35
g25
I5
sg26
I0
sg27
I2
sssI3
(dp36
I1
(dp37
g25
I7
sg26
I0
sg27
I2
sssI4
(dp38
I9
(dp39
g25
I6
sg26
I0
sg27
I3
ssI3
(dp40
g25
I8
sg26
I0
sg27
I1
ssI5
(dp41
g25
I6
sg26
I0
sg27
I3
ssI1
(dp42
g25
I6
sg26
I0
sg27
I4
sssI5
(dp43
I1
(dp44
g25
I6
sg26
I0
sg27
I6
ssI2
(dp45
g25
I7
sg26
I0
sg27
I10
ssI3
(dp46
g25
I8
sg26
I0
sg27
I1
ssI4
(dp47
g25
I5
sg26
I0
sg27
I9
ssI7
(dp48
g25
I8
sg26
I0
sg27
I6
ssI10
(dp49
g25
I7
sg26
I0
sg27
I6
sssI6
(dp50
I1
(dp51
g25
I8
sg26
I0
sg27
I6
ssI2
(dp52
g25
I5
sg26
I0
sg27
I5
ssI3
(dp53
g25
I8
sg26
I0
sg27
I4
ssI4
(dp54
g25
I5
sg26
I0
sg27
I2
ssI7
(dp55
g25
I5
sg26
I0
sg27
I0
ssI8
(dp56
g25
I7
sg26
I0
sg27
I5
ssI9
(dp57
g25
I5
sg26
I0
sg27
I1
ssI10
(dp58
g25
I5
sg26
I0
sg27
I7
sssI7
(dp59
I1
(dp60
g25
I7
sg26
I0
sg27
I2
ssI2
(dp61
g25
I8
sg26
I0
sg27
I4
ssI3
(dp62
g25
I5
sg26
I0
sg27
I4
ssI4
(dp63
g25
I7
sg26
I0
sg27
I5
ssI6
(dp64
g25
I8
sg26
I0
sg27
I8
ssI9
(dp65
g25
I5
sg26
I0
sg27
I1
sssI8
(dp66
I1
(dp67
g25
I6
sg26
I0
sg27
I0
ssI2
(dp68
g25
I7
sg26
I0
sg27
I3
ssI4
(dp69
g25
I6
sg26
I0
sg27
I7
ssI10
(dp70
g25
I5
sg26
I0
sg27
I6
ssI7
(dp71
g25
I5
sg26
I0
sg27
I9
sssI9
(dp72
I10
(dp73
g25
I7
sg26
I0
sg27
I10
ssI3
(dp74
g25
I8
sg26
I0
sg27
I9
sssI10
(dp75
I8
(dp76
g25
I8
sg26
I0
sg27
I3
ssI9
(dp77
g25
I6
sg26
I0
sg27
I5
ssI5
(dp78
g25
I8
sg26
I0
sg27
I3
ssI6
(dp79
g25
I7
sg26
I0
sg27
I0
ssI1
(dp80
g25
I6
sg26
I0
sg27
I8
ssssS'edge'
p81
g22
sS'pred'
p82
(dp83
I1
(dp84
I3
g37
sI4
g42
sI5
g44
sI6
g51
sI7
g60
sI8
g67
sI10
g80
ssI2
(dp85
I8
g68
sI1
g24
sI5
g45
sI6
g52
sI7
g61
ssI3
(dp86
I1
g28
sI4
g40
sI5
g46
sI6
g53
sI7
g62
sI9
g74
ssI4
(dp87
I8
g69
sI2
g33
sI5
g47
sI6
g54
sI7
g63
ssI5
(dp88
I10
g78
sI4
g41
ssI6
(dp89
I10
g79
sI2
g34
sI7
g64
ssI7
(dp90
I8
g71
sI1
g29
sI2
g35
sI5
g48
sI6
g55
ssI8
(dp91
I10
g76
sI6
g56
ssI9
(dp92
I10
g77
sI4
g39
sI2
g31
sI6
g57
sI7
g65
ssI10
(dp93
I8
g70
sI9
g73
sI2
g32
sI5
g49
sI6
g58
sssS'adj'
p94
g22
sb.