ccopy_reg
_reconstructor
p1
(cnetworkx.classes.digraph
DiGraph
p2
c__builtin__
object
p3
NtRp4
(dp5
S'node'
p6
(dp7
I1
(dp8
S'demand'
p9
I5
ssI2
(dp10
g9
I1
ssI3
(dp11
g9
I6
ssI4
(dp12
g9
I3
ssI5
(dp13
g9
I1
ssI6
(dp14
g9
I0
ssI7
(dp15
g9
I0
ssI8
(dp16
g9
I0
ssI9
(dp17
g9
I0
ssI10
(dp18
g9
I-16
sssS'graph'
p19
(dp20
sS'succ'
p21
(dp22
I1
(dp23
I2
(dp24
S'capacity'
p25
I5
sS'fluxo'
p26
I0
sS'weight'
p27
I7
ssI3
(dp28
g25
I7
sg26
I0
sg27
I5
ssI4
(dp29
g25
I5
sg26
I0
sg27
I9
ssI5
(dp30
g25
I7
sg26
I0
sg27
I5
ssI6
(dp31
g25
I5
sg26
I0
sg27
I7
ssI7
(dp32
g25
I5
sg26
I0
sg27
I1
ssI8
(dp33
g25
I7
sg26
I0
sg27
I6
ssI9
(dp34
g25
I5
sg26
I0
sg27
I10
ssI10
(dp35
g25
I8
sg26
I0
sg27
I6
sssI2
(dp36
I1
(dp37
g25
I8
sg26
I0
sg27
I2
ssI3
(dp38
g25
I5
sg26
I0
sg27
I7
ssI4
(dp39
g25
I7
sg26
I0
sg27
I7
ssI5
(dp40
g25
I8
sg26
I0
sg27
I1
ssI6
(dp41
g25
I7
sg26
I0
sg27
I3
ssI7
(dp42
g25
I7
sg26
I0
sg27
I0
ssI8
(dp43
g25
I8
sg26
I0
sg27
I4
ssI9
(dp44
g25
I6
sg26
I0
sg27
I2
ssI10
(dp45
g25
I8
sg26
I0
sg27
I3
sssI3
(dp46
I1
(dp47
g25
I6
sg26
I0
sg27
I10
ssI2
(dp48
g25
I8
sg26
I0
sg27
I7
ssI4
(dp49
g25
I8
sg26
I0
sg27
I3
ssI5
(dp50
g25
I5
sg26
I0
sg27
I1
ssI6
(dp51
g25
I8
sg26
I0
sg27
I2
ssI7
(dp52
g25
I8
sg26
I0
sg27
I1
ssI8
(dp53
g25
I7
sg26
I0
sg27
I6
ssI9
(dp54
g25
I7
sg26
I0
sg27
I5
ssI10
(dp55
g25
I7
sg26
I0
sg27
I9
sssI4
(dp56
I1
(dp57
g25
I8
sg26
I0
sg27
I7
ssI2
(dp58
g25
I8
sg26
I0
sg27
I0
ssI3
(dp59
g25
I8
sg26
I0
sg27
I3
ssI5
(dp60
g25
I6
sg26
I0
sg27
I0
ssI6
(dp61
g25
I5
sg26
I0
sg27
I3
ssI7
(dp62
g25
I7
sg26
I0
sg27
I0
ssI8
(dp63
g25
I5
sg26
I0
sg27
I1
ssI9
(dp64
g25
I6
sg26
I0
sg27
I1
ssI10
(dp65
g25
I6
sg26
I0
sg27
I1
sssI5
(dp66
I1
(dp67
g25
I5
sg26
I0
sg27
I7
ssI2
(dp68
g25
I7
sg26
I0
sg27
I3
ssI3
(dp69
g25
I8
sg26
I0
sg27
I0
ssI4
(dp70
g25
I5
sg26
I0
sg27
I10
ssI6
(dp71
g25
I5
sg26
I0
sg27
I6
ssI7
(dp72
g25
I6
sg26
I0
sg27
I7
ssI8
(dp73
g25
I7
sg26
I0
sg27
I6
ssI9
(dp74
g25
I5
sg26
I0
sg27
I8
ssI10
(dp75
g25
I6
sg26
I0
sg27
I3
sssI6
(dp76
I1
(dp77
g25
I8
sg26
I0
sg27
I4
ssI2
(dp78
g25
I5
sg26
I0
sg27
I6
ssI3
(dp79
g25
I5
sg26
I0
sg27
I6
ssI4
(dp80
g25
I6
sg26
I0
sg27
I2
ssI5
(dp81
g25
I5
sg26
I0
sg27
I0
ssI7
(dp82
g25
I8
sg26
I0
sg27
I0
ssI8
(dp83
g25
I8
sg26
I0
sg27
I9
ssI9
(dp84
g25
I8
sg26
I0
sg27
I6
ssI10
(dp85
g25
I8
sg26
I0
sg27
I8
sssI7
(dp86
I1
(dp87
g25
I5
sg26
I0
sg27
I2
ssI2
(dp88
g25
I5
sg26
I0
sg27
I0
ssI3
(dp89
g25
I8
sg26
I0
sg27
I10
ssI4
(dp90
g25
I8
sg26
I0
sg27
I2
ssI5
(dp91
g25
I8
sg26
I0
sg27
I2
ssI6
(dp92
g25
I7
sg26
I0
sg27
I9
ssI8
(dp93
g25
I6
sg26
I0
sg27
I10
ssI9
(dp94
g25
I5
sg26
I0
sg27
I9
ssI10
(dp95
g25
I6
sg26
I0
sg27
I3
sssI8
(dp96
I1
(dp97
g25
I7
sg26
I0
sg27
I6
ssI2
(dp98
g25
I6
sg26
I0
sg27
I4
ssI3
(dp99
g25
I8
sg26
I0
sg27
I6
ssI4
(dp100
g25
I5
sg26
I0
sg27
I5
ssI5
(dp101
g25
I5
sg26
I0
sg27
I4
ssI6
(dp102
g25
I7
sg26
I0
sg27
I7
ssI7
(dp103
g25
I8
sg26
I0
sg27
I0
ssI9
(dp104
g25
I5
sg26
I0
sg27
I3
ssI10
(dp105
g25
I6
sg26
I0
sg27
I1
sssI9
(dp106
I1
(dp107
g25
I8
sg26
I0
sg27
I3
ssI2
(dp108
g25
I7
sg26
I0
sg27
I2
ssI3
(dp109
g25
I7
sg26
I0
sg27
I0
ssI4
(dp110
g25
I6
sg26
I0
sg27
I4
ssI5
(dp111
g25
I8
sg26
I0
sg27
I3
ssI6
(dp112
g25
I7
sg26
I0
sg27
I3
ssI7
(dp113
g25
I6
sg26
I0
sg27
I7
ssI8
(dp114
g25
I7
sg26
I0
sg27
I4
ssI10
(dp115
g25
I8
sg26
I0
sg27
I3
sssI10
(dp116
I1
(dp117
g25
I6
sg26
I0
sg27
I1
ssI2
(dp118
g25
I6
sg26
I0
sg27
I4
ssI3
(dp119
g25
I6
sg26
I0
sg27
I7
ssI4
(dp120
g25
I7
sg26
I0
sg27
I9
ssI5
(dp121
g25
I5
sg26
I0
sg27
I0
ssI6
(dp122
g25
I6
sg26
I0
sg27
I7
ssI7
(dp123
g25
I8
sg26
I0
sg27
I1
ssI8
(dp124
g25
I6
sg26
I0
sg27
I1
ssI9
(dp125
g25
I6
sg26
I0
sg27
I5
ssssS'edge'
p126
g22
sS'pred'
p127
(dp128
I1
(dp129
I2
g37
sI3
g47
sI4
g57
sI5
g67
sI6
g77
sI7
g87
sI8
g97
sI9
g107
sI10
g117
ssI2
(dp130
I1
g24
sI3
g48
sI4
g58
sI5
g68
sI6
g78
sI7
g88
sI8
g98
sI9
g108
sI10
g118
ssI3
(dp131
I1
g28
sI2
g38
sI4
g59
sI5
g69
sI6
g79
sI7
g89
sI8
g99
sI9
g109
sI10
g119
ssI4
(dp132
I1
g29
sI2
g39
sI3
g49
sI5
g70
sI6
g80
sI7
g90
sI8
g100
sI9
g110
sI10
g120
ssI5
(dp133
I1
g30
sI2
g40
sI3
g50
sI4
g60
sI6
g81
sI7
g91
sI8
g101
sI9
g111
sI10
g121
ssI6
(dp134
I1
g31
sI2
g41
sI3
g51
sI4
g61
sI5
g71
sI7
g92
sI8
g102
sI9
g112
sI10
g122
ssI7
(dp135
I1
g32
sI2
g42
sI3
g52
sI4
g62
sI5
g72
sI6
g82
sI8
g103
sI9
g113
sI10
g123
ssI8
(dp136
I1
g33
sI2
g43
sI3
g53
sI4
g63
sI5
g73
sI6
g83
sI7
g93
sI9
g114
sI10
g124
ssI9
(dp137
I1
g34
sI2
g44
sI3
g54
sI4
g64
sI5
g74
sI6
g84
sI7
g94
sI8
g104
sI10
g125
ssI10
(dp138
I1
g35
sI2
g45
sI3
g55
sI4
g65
sI5
g75
sI6
g85
sI7
g95
sI8
g105
sI9
g115
sssS'adj'
p139
g22
sb.