ccopy_reg
_reconstructor
p1
(cnetworkx.classes.digraph
DiGraph
p2
c__builtin__
object
p3
NtRp4
(dp5
S'node'
p6
(dp7
I1
(dp8
S'demand'
p9
I4
ssI2
(dp10
g9
I4
ssI3
(dp11
g9
I1
ssI4
(dp12
g9
I6
ssI5
(dp13
g9
I2
ssI6
(dp14
g9
I0
ssI7
(dp15
g9
I0
ssI8
(dp16
g9
I0
ssI9
(dp17
g9
I0
ssI10
(dp18
g9
I-17
sssS'graph'
p19
(dp20
sS'succ'
p21
(dp22
I1
(dp23
I8
(dp24
S'capacity'
p25
I7
sS'fluxo'
p26
I0
sS'weight'
p27
I1
ssI4
(dp28
g25
I8
sg26
I0
sg27
I1
sssI2
(dp29
I1
(dp30
g25
I8
sg26
I0
sg27
I6
ssI5
(dp31
g25
I6
sg26
I0
sg27
I2
ssI7
(dp32
g25
I7
sg26
I0
sg27
I3
sssI3
(dp33
I8
(dp34
g25
I7
sg26
I0
sg27
I4
ssI10
(dp35
g25
I6
sg26
I0
sg27
I4
sssI4
(dp36
I2
(dp37
g25
I7
sg26
I0
sg27
I5
ssI6
(dp38
g25
I6
sg26
I0
sg27
I3
sssI5
(dp39
I1
(dp40
g25
I5
sg26
I0
sg27
I9
ssI6
(dp41
g25
I6
sg26
I0
sg27
I10
sssI6
(dp42
I2
(dp43
g25
I5
sg26
I0
sg27
I1
sssI7
(dp44
I1
(dp45
g25
I5
sg26
I0
sg27
I2
ssI3
(dp46
g25
I6
sg26
I0
sg27
I10
ssI4
(dp47
g25
I5
sg26
I0
sg27
I0
sssI8
(dp48
I2
(dp49
g25
I6
sg26
I0
sg27
I5
sssI9
(dp50
I2
(dp51
g25
I6
sg26
I0
sg27
I7
ssI5
(dp52
g25
I5
sg26
I0
sg27
I7
sssI10
(dp53
I8
(dp54
g25
I5
sg26
I0
sg27
I2
ssI1
(dp55
g25
I5
sg26
I0
sg27
I1
ssI2
(dp56
g25
I6
sg26
I0
sg27
I9
ssI5
(dp57
g25
I7
sg26
I0
sg27
I2
ssssS'edge'
p58
g22
sS'pred'
p59
(dp60
I1
(dp61
I2
g30
sI10
g55
sI5
g40
sI7
g45
ssI2
(dp62
I8
g49
sI9
g51
sI10
g56
sI4
g37
sI6
g43
ssI3
(dp63
I7
g46
ssI4
(dp64
I1
g28
sI7
g47
ssI5
(dp65
I9
g52
sI2
g31
sI10
g57
ssI6
(dp66
I4
g38
sI5
g41
ssI7
(dp67
I2
g32
ssI8
(dp68
I1
g24
sI10
g54
sI3
g34
ssI9
(dp69
sI10
(dp70
I3
g35
sssS'adj'
p71
g22
sb.