ccopy_reg
_reconstructor
p1
(cnetworkx.classes.digraph
DiGraph
p2
c__builtin__
object
p3
NtRp4
(dp5
S'node'
p6
(dp7
I1
(dp8
S'demand'
p9
I5
ssI2
(dp10
g9
I2
ssI3
(dp11
g9
I4
ssI4
(dp12
g9
I8
ssI5
(dp13
g9
I1
ssI6
(dp14
g9
I0
ssI7
(dp15
g9
I0
ssI8
(dp16
g9
I0
ssI9
(dp17
g9
I0
ssI10
(dp18
g9
I-20
sssS'graph'
p19
(dp20
sS'succ'
p21
(dp22
I1
(dp23
I3
(dp24
S'capacity'
p25
I5
sS'fluxo'
p26
I0
sS'weight'
p27
I3
ssI4
(dp28
g25
I6
sg26
I0
sg27
I1
ssI5
(dp29
g25
I7
sg26
I0
sg27
I0
ssI6
(dp30
g25
I5
sg26
I0
sg27
I9
ssI7
(dp31
g25
I5
sg26
I0
sg27
I9
ssI8
(dp32
g25
I5
sg26
I0
sg27
I4
ssI10
(dp33
g25
I5
sg26
I0
sg27
I2
sssI2
(dp34
I1
(dp35
g25
I5
sg26
I0
sg27
I4
ssI3
(dp36
g25
I5
sg26
I0
sg27
I3
ssI4
(dp37
g25
I5
sg26
I0
sg27
I10
ssI5
(dp38
g25
I5
sg26
I0
sg27
I4
ssI6
(dp39
g25
I7
sg26
I0
sg27
I7
ssI7
(dp40
g25
I8
sg26
I0
sg27
I9
ssI8
(dp41
g25
I8
sg26
I0
sg27
I7
ssI9
(dp42
g25
I7
sg26
I0
sg27
I2
ssI10
(dp43
g25
I5
sg26
I0
sg27
I4
sssI3
(dp44
I9
(dp45
g25
I6
sg26
I0
sg27
I1
ssI10
(dp46
g25
I5
sg26
I0
sg27
I3
ssI2
(dp47
g25
I5
sg26
I0
sg27
I6
ssI6
(dp48
g25
I7
sg26
I0
sg27
I10
ssI7
(dp49
g25
I7
sg26
I0
sg27
I6
sssI4
(dp50
I1
(dp51
g25
I6
sg26
I0
sg27
I8
ssI3
(dp52
g25
I8
sg26
I0
sg27
I4
ssI5
(dp53
g25
I5
sg26
I0
sg27
I0
ssI6
(dp54
g25
I6
sg26
I0
sg27
I3
ssI7
(dp55
g25
I6
sg26
I0
sg27
I5
ssI10
(dp56
g25
I7
sg26
I0
sg27
I10
sssI5
(dp57
I1
(dp58
g25
I6
sg26
I0
sg27
I1
ssI3
(dp59
g25
I7
sg26
I0
sg27
I10
ssI4
(dp60
g25
I8
sg26
I0
sg27
I4
ssI6
(dp61
g25
I5
sg26
I0
sg27
I2
ssI7
(dp62
g25
I6
sg26
I0
sg27
I10
ssI8
(dp63
g25
I5
sg26
I0
sg27
I8
ssI9
(dp64
g25
I5
sg26
I0
sg27
I2
ssI10
(dp65
g25
I6
sg26
I0
sg27
I0
sssI6
(dp66
I1
(dp67
g25
I8
sg26
I0
sg27
I7
ssI3
(dp68
g25
I6
sg26
I0
sg27
I8
ssI4
(dp69
g25
I5
sg26
I0
sg27
I10
ssI5
(dp70
g25
I6
sg26
I0
sg27
I5
ssI7
(dp71
g25
I7
sg26
I0
sg27
I10
ssI9
(dp72
g25
I5
sg26
I0
sg27
I10
ssI10
(dp73
g25
I7
sg26
I0
sg27
I6
sssI7
(dp74
I1
(dp75
g25
I6
sg26
I0
sg27
I8
ssI3
(dp76
g25
I7
sg26
I0
sg27
I10
ssI4
(dp77
g25
I5
sg26
I0
sg27
I2
ssI5
(dp78
g25
I5
sg26
I0
sg27
I6
ssI6
(dp79
g25
I6
sg26
I0
sg27
I0
ssI8
(dp80
g25
I7
sg26
I0
sg27
I2
ssI9
(dp81
g25
I6
sg26
I0
sg27
I4
sssI8
(dp82
I1
(dp83
g25
I7
sg26
I0
sg27
I5
ssI10
(dp84
g25
I7
sg26
I0
sg27
I9
ssI2
(dp85
g25
I8
sg26
I0
sg27
I6
ssI6
(dp86
g25
I5
sg26
I0
sg27
I5
ssI5
(dp87
g25
I6
sg26
I0
sg27
I9
sssI9
(dp88
I1
(dp89
g25
I6
sg26
I0
sg27
I2
ssI2
(dp90
g25
I7
sg26
I0
sg27
I7
ssI4
(dp91
g25
I8
sg26
I0
sg27
I1
ssI6
(dp92
g25
I6
sg26
I0
sg27
I5
ssI7
(dp93
g25
I6
sg26
I0
sg27
I3
ssI8
(dp94
g25
I5
sg26
I0
sg27
I1
ssI10
(dp95
g25
I5
sg26
I0
sg27
I3
sssI10
(dp96
I2
(dp97
g25
I7
sg26
I0
sg27
I10
ssI3
(dp98
g25
I8
sg26
I0
sg27
I1
ssI4
(dp99
g25
I5
sg26
I0
sg27
I5
ssI7
(dp100
g25
I7
sg26
I0
sg27
I10
ssI8
(dp101
g25
I8
sg26
I0
sg27
I9
ssI9
(dp102
g25
I6
sg26
I0
sg27
I2
ssssS'edge'
p103
g22
sS'pred'
p104
(dp105
I1
(dp106
I2
g35
sI4
g51
sI5
g58
sI6
g67
sI7
g75
sI8
g83
sI9
g89
ssI2
(dp107
I8
g85
sI9
g90
sI10
g97
sI3
g47
ssI3
(dp108
I1
g24
sI2
g36
sI4
g52
sI5
g59
sI6
g68
sI7
g76
sI10
g98
ssI4
(dp109
I1
g28
sI2
g37
sI5
g60
sI6
g69
sI7
g77
sI9
g91
sI10
g99
ssI5
(dp110
I1
g29
sI2
g38
sI4
g53
sI6
g70
sI7
g78
sI8
g87
ssI6
(dp111
I1
g30
sI2
g39
sI3
g48
sI4
g54
sI5
g61
sI7
g79
sI8
g86
sI9
g92
ssI7
(dp112
I1
g31
sI2
g40
sI3
g49
sI4
g55
sI5
g62
sI6
g71
sI9
g93
sI10
g100
ssI8
(dp113
I1
g32
sI2
g41
sI5
g63
sI7
g80
sI9
g94
sI10
g101
ssI9
(dp114
I2
g42
sI3
g45
sI5
g64
sI6
g72
sI7
g81
sI10
g102
ssI10
(dp115
I1
g33
sI2
g43
sI3
g46
sI4
g56
sI5
g65
sI6
g73
sI8
g84
sI9
g95
sssS'adj'
p116
g22
sb.