ccopy_reg
_reconstructor
p1
(cnetworkx.classes.digraph
DiGraph
p2
c__builtin__
object
p3
NtRp4
(dp5
S'node'
p6
(dp7
I1
(dp8
S'demand'
p9
I5
ssI2
(dp10
g9
I6
ssI3
(dp11
g9
I10
ssI4
(dp12
g9
I8
ssI5
(dp13
g9
I10
ssI6
(dp14
g9
I6
ssI7
(dp15
g9
I4
ssI8
(dp16
g9
I1
ssI9
(dp17
g9
I10
ssI10
(dp18
g9
I7
ssI11
(dp19
g9
I0
ssI12
(dp20
g9
I0
ssI13
(dp21
g9
I0
ssI14
(dp22
g9
I0
ssI15
(dp23
g9
I0
ssI16
(dp24
g9
I0
ssI17
(dp25
g9
I0
ssI18
(dp26
g9
I0
ssI19
(dp27
g9
I0
ssI20
(dp28
g9
I-67
sssS'graph'
p29
(dp30
sS'succ'
p31
(dp32
I1
(dp33
I2
(dp34
S'capacity'
p35
I6
sS'fluxo'
p36
I0
sS'weight'
p37
I7
ssI4
(dp38
g35
I7
sg36
I0
sg37
I7
ssI6
(dp39
g35
I8
sg36
I0
sg37
I3
ssI7
(dp40
g35
I5
sg36
I0
sg37
I3
ssI8
(dp41
g35
I6
sg36
I0
sg37
I5
ssI9
(dp42
g35
I5
sg36
I0
sg37
I2
ssI11
(dp43
g35
I5
sg36
I0
sg37
I0
ssI16
(dp44
g35
I6
sg36
I0
sg37
I3
ssI17
(dp45
g35
I5
sg36
I0
sg37
I2
ssI20
(dp46
g35
I5
sg36
I0
sg37
I10
sssI2
(dp47
I1
(dp48
g35
I6
sg36
I0
sg37
I7
ssI6
(dp49
g35
I7
sg36
I0
sg37
I8
ssI9
(dp50
g35
I8
sg36
I0
sg37
I6
ssI10
(dp51
g35
I8
sg36
I0
sg37
I9
ssI11
(dp52
g35
I5
sg36
I0
sg37
I0
ssI12
(dp53
g35
I7
sg36
I0
sg37
I8
ssI16
(dp54
g35
I8
sg36
I0
sg37
I0
ssI17
(dp55
g35
I8
sg36
I0
sg37
I10
ssI19
(dp56
g35
I8
sg36
I0
sg37
I5
sssI3
(dp57
I1
(dp58
g35
I7
sg36
I0
sg37
I0
ssI2
(dp59
g35
I6
sg36
I0
sg37
I6
ssI6
(dp60
g35
I5
sg36
I0
sg37
I5
ssI7
(dp61
g35
I7
sg36
I0
sg37
I7
ssI10
(dp62
g35
I6
sg36
I0
sg37
I3
ssI13
(dp63
g35
I7
sg36
I0
sg37
I5
ssI15
(dp64
g35
I8
sg36
I0
sg37
I9
ssI19
(dp65
g35
I5
sg36
I0
sg37
I5
sssI4
(dp66
I6
(dp67
g35
I5
sg36
I0
sg37
I6
ssI8
(dp68
g35
I8
sg36
I0
sg37
I8
ssI9
(dp69
g35
I5
sg36
I0
sg37
I7
ssI11
(dp70
g35
I5
sg36
I0
sg37
I5
ssI15
(dp71
g35
I5
sg36
I0
sg37
I2
ssI17
(dp72
g35
I6
sg36
I0
sg37
I10
sssI5
(dp73
I2
(dp74
g35
I7
sg36
I0
sg37
I7
ssI3
(dp75
g35
I6
sg36
I0
sg37
I8
ssI4
(dp76
g35
I5
sg36
I0
sg37
I8
ssI6
(dp77
g35
I8
sg36
I0
sg37
I10
ssI7
(dp78
g35
I5
sg36
I0
sg37
I8
ssI8
(dp79
g35
I7
sg36
I0
sg37
I2
ssI9
(dp80
g35
I8
sg36
I0
sg37
I6
ssI10
(dp81
g35
I6
sg36
I0
sg37
I9
ssI11
(dp82
g35
I7
sg36
I0
sg37
I4
ssI12
(dp83
g35
I5
sg36
I0
sg37
I1
ssI20
(dp84
g35
I5
sg36
I0
sg37
I6
sssI6
(dp85
I1
(dp86
g35
I8
sg36
I0
sg37
I6
ssI2
(dp87
g35
I8
sg36
I0
sg37
I3
ssI3
(dp88
g35
I5
sg36
I0
sg37
I1
ssI5
(dp89
g35
I6
sg36
I0
sg37
I5
ssI9
(dp90
g35
I7
sg36
I0
sg37
I1
ssI12
(dp91
g35
I5
sg36
I0
sg37
I8
ssI19
(dp92
g35
I7
sg36
I0
sg37
I1
sssI7
(dp93
I1
(dp94
g35
I8
sg36
I0
sg37
I7
ssI3
(dp95
g35
I5
sg36
I0
sg37
I10
ssI6
(dp96
g35
I5
sg36
I0
sg37
I5
ssI9
(dp97
g35
I5
sg36
I0
sg37
I3
ssI10
(dp98
g35
I6
sg36
I0
sg37
I7
ssI14
(dp99
g35
I6
sg36
I0
sg37
I2
ssI15
(dp100
g35
I8
sg36
I0
sg37
I1
ssI18
(dp101
g35
I6
sg36
I0
sg37
I2
ssI20
(dp102
g35
I6
sg36
I0
sg37
I8
sssI8
(dp103
I1
(dp104
g35
I6
sg36
I0
sg37
I7
ssI3
(dp105
g35
I7
sg36
I0
sg37
I4
ssI5
(dp106
g35
I7
sg36
I0
sg37
I1
ssI6
(dp107
g35
I6
sg36
I0
sg37
I3
ssI7
(dp108
g35
I7
sg36
I0
sg37
I1
ssI9
(dp109
g35
I7
sg36
I0
sg37
I5
ssI11
(dp110
g35
I6
sg36
I0
sg37
I7
ssI13
(dp111
g35
I6
sg36
I0
sg37
I4
ssI14
(dp112
g35
I5
sg36
I0
sg37
I2
ssI15
(dp113
g35
I5
sg36
I0
sg37
I3
sssI9
(dp114
I1
(dp115
g35
I5
sg36
I0
sg37
I3
ssI2
(dp116
g35
I5
sg36
I0
sg37
I4
ssI5
(dp117
g35
I6
sg36
I0
sg37
I6
ssI6
(dp118
g35
I6
sg36
I0
sg37
I3
ssI10
(dp119
g35
I5
sg36
I0
sg37
I2
ssI11
(dp120
g35
I6
sg36
I0
sg37
I4
ssI13
(dp121
g35
I5
sg36
I0
sg37
I9
ssI14
(dp122
g35
I6
sg36
I0
sg37
I3
ssI15
(dp123
g35
I5
sg36
I0
sg37
I6
ssI17
(dp124
g35
I7
sg36
I0
sg37
I9
ssI18
(dp125
g35
I8
sg36
I0
sg37
I10
ssI20
(dp126
g35
I5
sg36
I0
sg37
I3
sssI10
(dp127
I4
(dp128
g35
I6
sg36
I0
sg37
I0
ssI5
(dp129
g35
I7
sg36
I0
sg37
I3
ssI6
(dp130
g35
I7
sg36
I0
sg37
I1
ssI7
(dp131
g35
I7
sg36
I0
sg37
I0
ssI8
(dp132
g35
I7
sg36
I0
sg37
I0
ssI13
(dp133
g35
I6
sg36
I0
sg37
I0
ssI14
(dp134
g35
I7
sg36
I0
sg37
I8
ssI16
(dp135
g35
I5
sg36
I0
sg37
I7
ssI17
(dp136
g35
I7
sg36
I0
sg37
I6
ssI20
(dp137
g35
I6
sg36
I0
sg37
I4
sssI11
(dp138
I1
(dp139
g35
I6
sg36
I0
sg37
I8
ssI2
(dp140
g35
I6
sg36
I0
sg37
I7
ssI5
(dp141
g35
I8
sg36
I0
sg37
I3
ssI6
(dp142
g35
I7
sg36
I0
sg37
I2
ssI9
(dp143
g35
I6
sg36
I0
sg37
I5
ssI10
(dp144
g35
I6
sg36
I0
sg37
I1
ssI12
(dp145
g35
I8
sg36
I0
sg37
I0
ssI13
(dp146
g35
I8
sg36
I0
sg37
I9
ssI14
(dp147
g35
I6
sg36
I0
sg37
I9
ssI15
(dp148
g35
I5
sg36
I0
sg37
I0
ssI20
(dp149
g35
I8
sg36
I0
sg37
I2
sssI12
(dp150
I4
(dp151
g35
I8
sg36
I0
sg37
I6
ssI5
(dp152
g35
I5
sg36
I0
sg37
I2
ssI7
(dp153
g35
I6
sg36
I0
sg37
I4
ssI8
(dp154
g35
I5
sg36
I0
sg37
I10
ssI9
(dp155
g35
I5
sg36
I0
sg37
I0
ssI10
(dp156
g35
I6
sg36
I0
sg37
I8
ssI11
(dp157
g35
I5
sg36
I0
sg37
I7
ssI13
(dp158
g35
I8
sg36
I0
sg37
I2
ssI17
(dp159
g35
I5
sg36
I0
sg37
I1
ssI18
(dp160
g35
I5
sg36
I0
sg37
I0
ssI20
(dp161
g35
I8
sg36
I0
sg37
I8
sssI13
(dp162
I3
(dp163
g35
I7
sg36
I0
sg37
I4
ssI4
(dp164
g35
I8
sg36
I0
sg37
I10
ssI5
(dp165
g35
I8
sg36
I0
sg37
I0
ssI11
(dp166
g35
I6
sg36
I0
sg37
I0
ssI12
(dp167
g35
I5
sg36
I0
sg37
I0
ssI17
(dp168
g35
I7
sg36
I0
sg37
I9
ssI20
(dp169
g35
I5
sg36
I0
sg37
I3
sssI14
(dp170
I3
(dp171
g35
I6
sg36
I0
sg37
I9
ssI4
(dp172
g35
I5
sg36
I0
sg37
I4
ssI10
(dp173
g35
I6
sg36
I0
sg37
I5
ssI15
(dp174
g35
I7
sg36
I0
sg37
I8
ssI17
(dp175
g35
I8
sg36
I0
sg37
I0
ssI18
(dp176
g35
I7
sg36
I0
sg37
I6
ssI20
(dp177
g35
I7
sg36
I0
sg37
I9
sssI15
(dp178
I1
(dp179
g35
I8
sg36
I0
sg37
I0
ssI2
(dp180
g35
I6
sg36
I0
sg37
I9
ssI3
(dp181
g35
I6
sg36
I0
sg37
I7
ssI4
(dp182
g35
I8
sg36
I0
sg37
I8
ssI5
(dp183
g35
I7
sg36
I0
sg37
I10
ssI8
(dp184
g35
I7
sg36
I0
sg37
I5
ssI9
(dp185
g35
I5
sg36
I0
sg37
I1
ssI10
(dp186
g35
I8
sg36
I0
sg37
I5
ssI11
(dp187
g35
I8
sg36
I0
sg37
I3
ssI12
(dp188
g35
I8
sg36
I0
sg37
I8
ssI17
(dp189
g35
I8
sg36
I0
sg37
I9
ssI18
(dp190
g35
I6
sg36
I0
sg37
I0
ssI19
(dp191
g35
I8
sg36
I0
sg37
I7
sssI16
(dp192
I1
(dp193
g35
I8
sg36
I0
sg37
I4
ssI2
(dp194
g35
I8
sg36
I0
sg37
I4
ssI5
(dp195
g35
I8
sg36
I0
sg37
I3
ssI14
(dp196
g35
I8
sg36
I0
sg37
I2
ssI15
(dp197
g35
I7
sg36
I0
sg37
I1
ssI17
(dp198
g35
I5
sg36
I0
sg37
I7
ssI18
(dp199
g35
I5
sg36
I0
sg37
I5
ssI19
(dp200
g35
I5
sg36
I0
sg37
I6
sssI17
(dp201
I1
(dp202
g35
I6
sg36
I0
sg37
I6
ssI2
(dp203
g35
I7
sg36
I0
sg37
I9
ssI6
(dp204
g35
I5
sg36
I0
sg37
I1
ssI8
(dp205
g35
I7
sg36
I0
sg37
I0
ssI9
(dp206
g35
I6
sg36
I0
sg37
I5
ssI10
(dp207
g35
I8
sg36
I0
sg37
I10
ssI11
(dp208
g35
I7
sg36
I0
sg37
I2
ssI15
(dp209
g35
I5
sg36
I0
sg37
I5
ssI18
(dp210
g35
I6
sg36
I0
sg37
I10
ssI19
(dp211
g35
I6
sg36
I0
sg37
I7
ssI20
(dp212
g35
I8
sg36
I0
sg37
I5
sssI18
(dp213
I2
(dp214
g35
I7
sg36
I0
sg37
I10
ssI3
(dp215
g35
I5
sg36
I0
sg37
I6
ssI6
(dp216
g35
I6
sg36
I0
sg37
I4
ssI7
(dp217
g35
I8
sg36
I0
sg37
I3
ssI8
(dp218
g35
I8
sg36
I0
sg37
I2
ssI9
(dp219
g35
I6
sg36
I0
sg37
I6
ssI10
(dp220
g35
I6
sg36
I0
sg37
I4
ssI13
(dp221
g35
I6
sg36
I0
sg37
I2
ssI15
(dp222
g35
I6
sg36
I0
sg37
I0
ssI17
(dp223
g35
I7
sg36
I0
sg37
I10
ssI20
(dp224
g35
I6
sg36
I0
sg37
I2
sssI19
(dp225
I3
(dp226
g35
I7
sg36
I0
sg37
I2
ssI6
(dp227
g35
I8
sg36
I0
sg37
I8
ssI8
(dp228
g35
I8
sg36
I0
sg37
I10
ssI10
(dp229
g35
I7
sg36
I0
sg37
I3
ssI12
(dp230
g35
I7
sg36
I0
sg37
I8
ssI15
(dp231
g35
I6
sg36
I0
sg37
I5
ssI20
(dp232
g35
I8
sg36
I0
sg37
I7
sssI20
(dp233
I1
(dp234
g35
I5
sg36
I0
sg37
I2
ssI2
(dp235
g35
I6
sg36
I0
sg37
I5
ssI3
(dp236
g35
I5
sg36
I0
sg37
I7
ssI4
(dp237
g35
I6
sg36
I0
sg37
I1
ssI8
(dp238
g35
I6
sg36
I0
sg37
I4
ssI9
(dp239
g35
I5
sg36
I0
sg37
I1
ssI12
(dp240
g35
I8
sg36
I0
sg37
I2
ssI13
(dp241
g35
I6
sg36
I0
sg37
I10
ssI14
(dp242
g35
I5
sg36
I0
sg37
I10
ssI16
(dp243
g35
I7
sg36
I0
sg37
I5
ssI18
(dp244
g35
I6
sg36
I0
sg37
I1
ssI19
(dp245
g35
I5
sg36
I0
sg37
I4
ssssS'edge'
p246
g32
sS'pred'
p247
(dp248
I1
(dp249
I2
g48
sI3
g58
sI6
g86
sI7
g94
sI8
g104
sI9
g115
sI11
g139
sI15
g179
sI16
g193
sI17
g202
sI20
g234
ssI2
(dp250
I1
g34
sI3
g59
sI5
g74
sI6
g87
sI9
g116
sI11
g140
sI15
g180
sI16
g194
sI17
g203
sI18
g214
sI20
g235
ssI3
(dp251
I5
g75
sI6
g88
sI7
g95
sI8
g105
sI13
g163
sI14
g171
sI15
g181
sI18
g215
sI19
g226
sI20
g236
ssI4
(dp252
I1
g38
sI5
g76
sI10
g128
sI12
g151
sI13
g164
sI14
g172
sI15
g182
sI20
g237
ssI5
(dp253
I6
g89
sI8
g106
sI9
g117
sI10
g129
sI11
g141
sI12
g152
sI13
g165
sI15
g183
sI16
g195
ssI6
(dp254
I1
g39
sI2
g49
sI3
g60
sI4
g67
sI5
g77
sI7
g96
sI8
g107
sI9
g118
sI10
g130
sI11
g142
sI17
g204
sI18
g216
sI19
g227
ssI7
(dp255
I1
g40
sI3
g61
sI5
g78
sI8
g108
sI10
g131
sI12
g153
sI18
g217
ssI8
(dp256
I1
g41
sI4
g68
sI5
g79
sI10
g132
sI12
g154
sI15
g184
sI17
g205
sI18
g218
sI19
g228
sI20
g238
ssI9
(dp257
I1
g42
sI2
g50
sI4
g69
sI5
g80
sI6
g90
sI7
g97
sI8
g109
sI11
g143
sI12
g155
sI15
g185
sI17
g206
sI18
g219
sI20
g239
ssI10
(dp258
I2
g51
sI3
g62
sI5
g81
sI7
g98
sI9
g119
sI11
g144
sI12
g156
sI14
g173
sI15
g186
sI17
g207
sI18
g220
sI19
g229
ssI11
(dp259
I1
g43
sI2
g52
sI4
g70
sI5
g82
sI8
g110
sI9
g120
sI12
g157
sI13
g166
sI15
g187
sI17
g208
ssI12
(dp260
I2
g53
sI5
g83
sI6
g91
sI11
g145
sI13
g167
sI15
g188
sI19
g230
sI20
g240
ssI13
(dp261
I3
g63
sI8
g111
sI9
g121
sI10
g133
sI11
g146
sI12
g158
sI18
g221
sI20
g241
ssI14
(dp262
I7
g99
sI8
g112
sI9
g122
sI10
g134
sI11
g147
sI16
g196
sI20
g242
ssI15
(dp263
I3
g64
sI4
g71
sI7
g100
sI8
g113
sI9
g123
sI11
g148
sI14
g174
sI16
g197
sI17
g209
sI18
g222
sI19
g231
ssI16
(dp264
I1
g44
sI2
g54
sI20
g243
sI10
g135
ssI17
(dp265
I1
g45
sI2
g55
sI4
g72
sI9
g124
sI10
g136
sI12
g159
sI13
g168
sI14
g175
sI15
g189
sI16
g198
sI18
g223
ssI18
(dp266
I7
g101
sI9
g125
sI12
g160
sI14
g176
sI15
g190
sI16
g199
sI17
g210
sI20
g244
ssI19
(dp267
I2
g56
sI3
g65
sI6
g92
sI15
g191
sI16
g200
sI17
g211
sI20
g245
ssI20
(dp268
I1
g46
sI5
g84
sI7
g102
sI9
g126
sI10
g137
sI11
g149
sI12
g161
sI13
g169
sI14
g177
sI17
g212
sI18
g224
sI19
g232
sssS'adj'
p269
g32
sb.