ccopy_reg
_reconstructor
p1
(cnetworkx.classes.digraph
DiGraph
p2
c__builtin__
object
p3
NtRp4
(dp5
S'node'
p6
(dp7
I1
(dp8
S'demand'
p9
I1
ssI2
(dp10
g9
I10
ssI3
(dp11
g9
I5
ssI4
(dp12
g9
I10
ssI5
(dp13
g9
I5
ssI6
(dp14
g9
I10
ssI7
(dp15
g9
I2
ssI8
(dp16
g9
I8
ssI9
(dp17
g9
I5
ssI10
(dp18
g9
I9
ssI11
(dp19
g9
I0
ssI12
(dp20
g9
I0
ssI13
(dp21
g9
I0
ssI14
(dp22
g9
I0
ssI15
(dp23
g9
I0
ssI16
(dp24
g9
I0
ssI17
(dp25
g9
I0
ssI18
(dp26
g9
I0
ssI19
(dp27
g9
I0
ssI20
(dp28
g9
I-65
sssS'graph'
p29
(dp30
sS'succ'
p31
(dp32
I1
(dp33
I2
(dp34
S'capacity'
p35
I7
sS'fluxo'
p36
I0
sS'weight'
p37
I5
ssI3
(dp38
g35
I7
sg36
I0
sg37
I5
ssI4
(dp39
g35
I5
sg36
I0
sg37
I1
ssI5
(dp40
g35
I5
sg36
I0
sg37
I7
ssI6
(dp41
g35
I8
sg36
I0
sg37
I9
ssI7
(dp42
g35
I8
sg36
I0
sg37
I10
ssI8
(dp43
g35
I5
sg36
I0
sg37
I9
ssI9
(dp44
g35
I6
sg36
I0
sg37
I3
ssI10
(dp45
g35
I6
sg36
I0
sg37
I10
ssI11
(dp46
g35
I5
sg36
I0
sg37
I9
ssI12
(dp47
g35
I6
sg36
I0
sg37
I3
ssI13
(dp48
g35
I5
sg36
I0
sg37
I1
ssI14
(dp49
g35
I7
sg36
I0
sg37
I4
ssI15
(dp50
g35
I7
sg36
I0
sg37
I1
ssI16
(dp51
g35
I8
sg36
I0
sg37
I6
ssI17
(dp52
g35
I8
sg36
I0
sg37
I6
ssI18
(dp53
g35
I8
sg36
I0
sg37
I7
ssI19
(dp54
g35
I7
sg36
I0
sg37
I5
ssI20
(dp55
g35
I6
sg36
I0
sg37
I6
sssI2
(dp56
I1
(dp57
g35
I6
sg36
I0
sg37
I5
ssI3
(dp58
g35
I8
sg36
I0
sg37
I5
ssI4
(dp59
g35
I6
sg36
I0
sg37
I7
ssI5
(dp60
g35
I7
sg36
I0
sg37
I6
ssI6
(dp61
g35
I6
sg36
I0
sg37
I0
ssI7
(dp62
g35
I8
sg36
I0
sg37
I6
ssI8
(dp63
g35
I5
sg36
I0
sg37
I2
ssI9
(dp64
g35
I7
sg36
I0
sg37
I2
ssI10
(dp65
g35
I6
sg36
I0
sg37
I4
ssI11
(dp66
g35
I8
sg36
I0
sg37
I7
ssI12
(dp67
g35
I5
sg36
I0
sg37
I9
ssI13
(dp68
g35
I5
sg36
I0
sg37
I2
ssI14
(dp69
g35
I7
sg36
I0
sg37
I1
ssI15
(dp70
g35
I6
sg36
I0
sg37
I0
ssI16
(dp71
g35
I6
sg36
I0
sg37
I10
ssI17
(dp72
g35
I5
sg36
I0
sg37
I7
ssI18
(dp73
g35
I8
sg36
I0
sg37
I8
ssI19
(dp74
g35
I8
sg36
I0
sg37
I8
ssI20
(dp75
g35
I7
sg36
I0
sg37
I5
sssI3
(dp76
I1
(dp77
g35
I7
sg36
I0
sg37
I10
ssI2
(dp78
g35
I7
sg36
I0
sg37
I5
ssI4
(dp79
g35
I7
sg36
I0
sg37
I0
ssI5
(dp80
g35
I7
sg36
I0
sg37
I2
ssI6
(dp81
g35
I6
sg36
I0
sg37
I8
ssI7
(dp82
g35
I5
sg36
I0
sg37
I3
ssI8
(dp83
g35
I5
sg36
I0
sg37
I0
ssI9
(dp84
g35
I8
sg36
I0
sg37
I1
ssI10
(dp85
g35
I7
sg36
I0
sg37
I5
ssI11
(dp86
g35
I6
sg36
I0
sg37
I2
ssI12
(dp87
g35
I5
sg36
I0
sg37
I7
ssI13
(dp88
g35
I7
sg36
I0
sg37
I0
ssI14
(dp89
g35
I8
sg36
I0
sg37
I8
ssI15
(dp90
g35
I6
sg36
I0
sg37
I0
ssI16
(dp91
g35
I6
sg36
I0
sg37
I1
ssI17
(dp92
g35
I5
sg36
I0
sg37
I3
ssI18
(dp93
g35
I6
sg36
I0
sg37
I9
ssI19
(dp94
g35
I5
sg36
I0
sg37
I10
ssI20
(dp95
g35
I5
sg36
I0
sg37
I2
sssI4
(dp96
I1
(dp97
g35
I5
sg36
I0
sg37
I10
ssI2
(dp98
g35
I7
sg36
I0
sg37
I1
ssI3
(dp99
g35
I8
sg36
I0
sg37
I0
ssI5
(dp100
g35
I8
sg36
I0
sg37
I7
ssI6
(dp101
g35
I8
sg36
I0
sg37
I5
ssI7
(dp102
g35
I7
sg36
I0
sg37
I4
ssI8
(dp103
g35
I8
sg36
I0
sg37
I5
ssI9
(dp104
g35
I8
sg36
I0
sg37
I6
ssI10
(dp105
g35
I5
sg36
I0
sg37
I0
ssI11
(dp106
g35
I5
sg36
I0
sg37
I3
ssI12
(dp107
g35
I5
sg36
I0
sg37
I0
ssI13
(dp108
g35
I7
sg36
I0
sg37
I5
ssI14
(dp109
g35
I7
sg36
I0
sg37
I4
ssI15
(dp110
g35
I5
sg36
I0
sg37
I5
ssI16
(dp111
g35
I7
sg36
I0
sg37
I3
ssI17
(dp112
g35
I7
sg36
I0
sg37
I8
ssI18
(dp113
g35
I8
sg36
I0
sg37
I1
ssI19
(dp114
g35
I5
sg36
I0
sg37
I8
ssI20
(dp115
g35
I6
sg36
I0
sg37
I5
sssI5
(dp116
I1
(dp117
g35
I8
sg36
I0
sg37
I5
ssI2
(dp118
g35
I5
sg36
I0
sg37
I8
ssI3
(dp119
g35
I8
sg36
I0
sg37
I10
ssI4
(dp120
g35
I8
sg36
I0
sg37
I8
ssI6
(dp121
g35
I5
sg36
I0
sg37
I9
ssI7
(dp122
g35
I8
sg36
I0
sg37
I7
ssI8
(dp123
g35
I5
sg36
I0
sg37
I8
ssI9
(dp124
g35
I5
sg36
I0
sg37
I4
ssI10
(dp125
g35
I7
sg36
I0
sg37
I5
ssI11
(dp126
g35
I7
sg36
I0
sg37
I7
ssI12
(dp127
g35
I5
sg36
I0
sg37
I9
ssI13
(dp128
g35
I8
sg36
I0
sg37
I4
ssI14
(dp129
g35
I6
sg36
I0
sg37
I8
ssI15
(dp130
g35
I7
sg36
I0
sg37
I6
ssI16
(dp131
g35
I8
sg36
I0
sg37
I3
ssI17
(dp132
g35
I7
sg36
I0
sg37
I5
ssI18
(dp133
g35
I6
sg36
I0
sg37
I2
ssI19
(dp134
g35
I8
sg36
I0
sg37
I9
ssI20
(dp135
g35
I8
sg36
I0
sg37
I4
sssI6
(dp136
I1
(dp137
g35
I6
sg36
I0
sg37
I3
ssI2
(dp138
g35
I7
sg36
I0
sg37
I0
ssI3
(dp139
g35
I5
sg36
I0
sg37
I9
ssI4
(dp140
g35
I6
sg36
I0
sg37
I1
ssI5
(dp141
g35
I5
sg36
I0
sg37
I7
ssI7
(dp142
g35
I5
sg36
I0
sg37
I6
ssI8
(dp143
g35
I7
sg36
I0
sg37
I0
ssI9
(dp144
g35
I5
sg36
I0
sg37
I8
ssI10
(dp145
g35
I7
sg36
I0
sg37
I10
ssI11
(dp146
g35
I7
sg36
I0
sg37
I7
ssI12
(dp147
g35
I8
sg36
I0
sg37
I2
ssI13
(dp148
g35
I8
sg36
I0
sg37
I7
ssI14
(dp149
g35
I7
sg36
I0
sg37
I2
ssI15
(dp150
g35
I8
sg36
I0
sg37
I4
ssI16
(dp151
g35
I6
sg36
I0
sg37
I10
ssI17
(dp152
g35
I7
sg36
I0
sg37
I1
ssI18
(dp153
g35
I8
sg36
I0
sg37
I7
ssI19
(dp154
g35
I7
sg36
I0
sg37
I3
ssI20
(dp155
g35
I8
sg36
I0
sg37
I0
sssI7
(dp156
I1
(dp157
g35
I5
sg36
I0
sg37
I2
ssI2
(dp158
g35
I8
sg36
I0
sg37
I9
ssI3
(dp159
g35
I6
sg36
I0
sg37
I10
ssI4
(dp160
g35
I5
sg36
I0
sg37
I8
ssI5
(dp161
g35
I8
sg36
I0
sg37
I0
ssI6
(dp162
g35
I7
sg36
I0
sg37
I0
ssI8
(dp163
g35
I8
sg36
I0
sg37
I8
ssI9
(dp164
g35
I7
sg36
I0
sg37
I2
ssI10
(dp165
g35
I5
sg36
I0
sg37
I9
ssI11
(dp166
g35
I5
sg36
I0
sg37
I2
ssI12
(dp167
g35
I6
sg36
I0
sg37
I10
ssI13
(dp168
g35
I5
sg36
I0
sg37
I0
ssI14
(dp169
g35
I7
sg36
I0
sg37
I1
ssI15
(dp170
g35
I6
sg36
I0
sg37
I2
ssI16
(dp171
g35
I8
sg36
I0
sg37
I6
ssI17
(dp172
g35
I8
sg36
I0
sg37
I4
ssI18
(dp173
g35
I5
sg36
I0
sg37
I8
ssI19
(dp174
g35
I6
sg36
I0
sg37
I10
ssI20
(dp175
g35
I6
sg36
I0
sg37
I6
sssI8
(dp176
I1
(dp177
g35
I6
sg36
I0
sg37
I3
ssI2
(dp178
g35
I7
sg36
I0
sg37
I10
ssI3
(dp179
g35
I8
sg36
I0
sg37
I1
ssI4
(dp180
g35
I5
sg36
I0
sg37
I0
ssI5
(dp181
g35
I5
sg36
I0
sg37
I2
ssI6
(dp182
g35
I8
sg36
I0
sg37
I6
ssI7
(dp183
g35
I5
sg36
I0
sg37
I1
ssI9
(dp184
g35
I7
sg36
I0
sg37
I10
ssI10
(dp185
g35
I7
sg36
I0
sg37
I6
ssI11
(dp186
g35
I8
sg36
I0
sg37
I1
ssI12
(dp187
g35
I7
sg36
I0
sg37
I0
ssI13
(dp188
g35
I5
sg36
I0
sg37
I8
ssI14
(dp189
g35
I8
sg36
I0
sg37
I6
ssI15
(dp190
g35
I5
sg36
I0
sg37
I0
ssI16
(dp191
g35
I7
sg36
I0
sg37
I6
ssI17
(dp192
g35
I5
sg36
I0
sg37
I9
ssI18
(dp193
g35
I8
sg36
I0
sg37
I1
ssI19
(dp194
g35
I5
sg36
I0
sg37
I9
ssI20
(dp195
g35
I5
sg36
I0
sg37
I7
sssI9
(dp196
I1
(dp197
g35
I5
sg36
I0
sg37
I7
ssI2
(dp198
g35
I7
sg36
I0
sg37
I8
ssI3
(dp199
g35
I6
sg36
I0
sg37
I1
ssI4
(dp200
g35
I6
sg36
I0
sg37
I2
ssI5
(dp201
g35
I6
sg36
I0
sg37
I0
ssI6
(dp202
g35
I7
sg36
I0
sg37
I3
ssI7
(dp203
g35
I7
sg36
I0
sg37
I7
ssI8
(dp204
g35
I6
sg36
I0
sg37
I7
ssI10
(dp205
g35
I5
sg36
I0
sg37
I2
ssI11
(dp206
g35
I6
sg36
I0
sg37
I4
ssI12
(dp207
g35
I8
sg36
I0
sg37
I1
ssI13
(dp208
g35
I5
sg36
I0
sg37
I7
ssI14
(dp209
g35
I8
sg36
I0
sg37
I2
ssI15
(dp210
g35
I8
sg36
I0
sg37
I6
ssI16
(dp211
g35
I6
sg36
I0
sg37
I4
ssI17
(dp212
g35
I6
sg36
I0
sg37
I9
ssI18
(dp213
g35
I6
sg36
I0
sg37
I1
ssI19
(dp214
g35
I6
sg36
I0
sg37
I6
ssI20
(dp215
g35
I5
sg36
I0
sg37
I3
sssI10
(dp216
I1
(dp217
g35
I7
sg36
I0
sg37
I10
ssI2
(dp218
g35
I7
sg36
I0
sg37
I7
ssI3
(dp219
g35
I7
sg36
I0
sg37
I0
ssI4
(dp220
g35
I7
sg36
I0
sg37
I9
ssI5
(dp221
g35
I7
sg36
I0
sg37
I3
ssI6
(dp222
g35
I8
sg36
I0
sg37
I9
ssI7
(dp223
g35
I6
sg36
I0
sg37
I2
ssI8
(dp224
g35
I8
sg36
I0
sg37
I10
ssI9
(dp225
g35
I5
sg36
I0
sg37
I3
ssI11
(dp226
g35
I8
sg36
I0
sg37
I6
ssI12
(dp227
g35
I8
sg36
I0
sg37
I1
ssI13
(dp228
g35
I5
sg36
I0
sg37
I6
ssI14
(dp229
g35
I5
sg36
I0
sg37
I0
ssI15
(dp230
g35
I7
sg36
I0
sg37
I4
ssI16
(dp231
g35
I7
sg36
I0
sg37
I5
ssI17
(dp232
g35
I6
sg36
I0
sg37
I3
ssI18
(dp233
g35
I5
sg36
I0
sg37
I9
ssI19
(dp234
g35
I7
sg36
I0
sg37
I7
ssI20
(dp235
g35
I5
sg36
I0
sg37
I9
sssI11
(dp236
I1
(dp237
g35
I6
sg36
I0
sg37
I10
ssI2
(dp238
g35
I7
sg36
I0
sg37
I6
ssI3
(dp239
g35
I8
sg36
I0
sg37
I9
ssI4
(dp240
g35
I7
sg36
I0
sg37
I5
ssI5
(dp241
g35
I6
sg36
I0
sg37
I7
ssI6
(dp242
g35
I5
sg36
I0
sg37
I6
ssI7
(dp243
g35
I6
sg36
I0
sg37
I7
ssI8
(dp244
g35
I7
sg36
I0
sg37
I5
ssI9
(dp245
g35
I8
sg36
I0
sg37
I6
ssI10
(dp246
g35
I5
sg36
I0
sg37
I1
ssI12
(dp247
g35
I8
sg36
I0
sg37
I1
ssI13
(dp248
g35
I8
sg36
I0
sg37
I8
ssI14
(dp249
g35
I5
sg36
I0
sg37
I1
ssI15
(dp250
g35
I7
sg36
I0
sg37
I2
ssI16
(dp251
g35
I7
sg36
I0
sg37
I4
ssI17
(dp252
g35
I7
sg36
I0
sg37
I9
ssI18
(dp253
g35
I8
sg36
I0
sg37
I0
ssI19
(dp254
g35
I8
sg36
I0
sg37
I6
ssI20
(dp255
g35
I6
sg36
I0
sg37
I9
sssI12
(dp256
I1
(dp257
g35
I7
sg36
I0
sg37
I7
ssI2
(dp258
g35
I6
sg36
I0
sg37
I1
ssI3
(dp259
g35
I7
sg36
I0
sg37
I4
ssI4
(dp260
g35
I6
sg36
I0
sg37
I10
ssI5
(dp261
g35
I6
sg36
I0
sg37
I8
ssI6
(dp262
g35
I8
sg36
I0
sg37
I9
ssI7
(dp263
g35
I5
sg36
I0
sg37
I5
ssI8
(dp264
g35
I6
sg36
I0
sg37
I1
ssI9
(dp265
g35
I7
sg36
I0
sg37
I10
ssI10
(dp266
g35
I5
sg36
I0
sg37
I5
ssI11
(dp267
g35
I5
sg36
I0
sg37
I5
ssI13
(dp268
g35
I5
sg36
I0
sg37
I7
ssI14
(dp269
g35
I5
sg36
I0
sg37
I10
ssI15
(dp270
g35
I6
sg36
I0
sg37
I10
ssI16
(dp271
g35
I7
sg36
I0
sg37
I0
ssI17
(dp272
g35
I7
sg36
I0
sg37
I9
ssI18
(dp273
g35
I6
sg36
I0
sg37
I0
ssI19
(dp274
g35
I7
sg36
I0
sg37
I6
ssI20
(dp275
g35
I7
sg36
I0
sg37
I7
sssI13
(dp276
I1
(dp277
g35
I6
sg36
I0
sg37
I1
ssI2
(dp278
g35
I5
sg36
I0
sg37
I10
ssI3
(dp279
g35
I8
sg36
I0
sg37
I7
ssI4
(dp280
g35
I5
sg36
I0
sg37
I5
ssI5
(dp281
g35
I7
sg36
I0
sg37
I5
ssI6
(dp282
g35
I8
sg36
I0
sg37
I3
ssI7
(dp283
g35
I8
sg36
I0
sg37
I4
ssI8
(dp284
g35
I6
sg36
I0
sg37
I2
ssI9
(dp285
g35
I6
sg36
I0
sg37
I4
ssI10
(dp286
g35
I6
sg36
I0
sg37
I9
ssI11
(dp287
g35
I5
sg36
I0
sg37
I2
ssI12
(dp288
g35
I6
sg36
I0
sg37
I0
ssI14
(dp289
g35
I8
sg36
I0
sg37
I10
ssI15
(dp290
g35
I7
sg36
I0
sg37
I9
ssI16
(dp291
g35
I7
sg36
I0
sg37
I2
ssI17
(dp292
g35
I6
sg36
I0
sg37
I5
ssI18
(dp293
g35
I6
sg36
I0
sg37
I4
ssI19
(dp294
g35
I6
sg36
I0
sg37
I0
ssI20
(dp295
g35
I8
sg36
I0
sg37
I1
sssI14
(dp296
I1
(dp297
g35
I8
sg36
I0
sg37
I8
ssI2
(dp298
g35
I6
sg36
I0
sg37
I8
ssI3
(dp299
g35
I5
sg36
I0
sg37
I3
ssI4
(dp300
g35
I6
sg36
I0
sg37
I4
ssI5
(dp301
g35
I5
sg36
I0
sg37
I6
ssI6
(dp302
g35
I5
sg36
I0
sg37
I7
ssI7
(dp303
g35
I7
sg36
I0
sg37
I10
ssI8
(dp304
g35
I8
sg36
I0
sg37
I10
ssI9
(dp305
g35
I5
sg36
I0
sg37
I4
ssI10
(dp306
g35
I6
sg36
I0
sg37
I7
ssI11
(dp307
g35
I8
sg36
I0
sg37
I9
ssI12
(dp308
g35
I8
sg36
I0
sg37
I1
ssI13
(dp309
g35
I5
sg36
I0
sg37
I5
ssI15
(dp310
g35
I7
sg36
I0
sg37
I6
ssI16
(dp311
g35
I6
sg36
I0
sg37
I10
ssI17
(dp312
g35
I7
sg36
I0
sg37
I8
ssI18
(dp313
g35
I6
sg36
I0
sg37
I10
ssI19
(dp314
g35
I6
sg36
I0
sg37
I8
ssI20
(dp315
g35
I8
sg36
I0
sg37
I10
sssI15
(dp316
I1
(dp317
g35
I8
sg36
I0
sg37
I5
ssI2
(dp318
g35
I5
sg36
I0
sg37
I0
ssI3
(dp319
g35
I5
sg36
I0
sg37
I3
ssI4
(dp320
g35
I6
sg36
I0
sg37
I2
ssI5
(dp321
g35
I7
sg36
I0
sg37
I9
ssI6
(dp322
g35
I5
sg36
I0
sg37
I4
ssI7
(dp323
g35
I6
sg36
I0
sg37
I8
ssI8
(dp324
g35
I7
sg36
I0
sg37
I2
ssI9
(dp325
g35
I5
sg36
I0
sg37
I3
ssI10
(dp326
g35
I5
sg36
I0
sg37
I7
ssI11
(dp327
g35
I5
sg36
I0
sg37
I2
ssI12
(dp328
g35
I6
sg36
I0
sg37
I10
ssI13
(dp329
g35
I6
sg36
I0
sg37
I10
ssI14
(dp330
g35
I7
sg36
I0
sg37
I1
ssI16
(dp331
g35
I8
sg36
I0
sg37
I10
ssI17
(dp332
g35
I6
sg36
I0
sg37
I7
ssI18
(dp333
g35
I7
sg36
I0
sg37
I7
ssI19
(dp334
g35
I7
sg36
I0
sg37
I5
ssI20
(dp335
g35
I8
sg36
I0
sg37
I9
sssI16
(dp336
I1
(dp337
g35
I7
sg36
I0
sg37
I3
ssI2
(dp338
g35
I6
sg36
I0
sg37
I9
ssI3
(dp339
g35
I7
sg36
I0
sg37
I8
ssI4
(dp340
g35
I8
sg36
I0
sg37
I8
ssI5
(dp341
g35
I7
sg36
I0
sg37
I5
ssI6
(dp342
g35
I7
sg36
I0
sg37
I1
ssI7
(dp343
g35
I8
sg36
I0
sg37
I10
ssI8
(dp344
g35
I7
sg36
I0
sg37
I4
ssI9
(dp345
g35
I6
sg36
I0
sg37
I9
ssI10
(dp346
g35
I8
sg36
I0
sg37
I3
ssI11
(dp347
g35
I5
sg36
I0
sg37
I4
ssI12
(dp348
g35
I8
sg36
I0
sg37
I9
ssI13
(dp349
g35
I5
sg36
I0
sg37
I7
ssI14
(dp350
g35
I6
sg36
I0
sg37
I10
ssI15
(dp351
g35
I8
sg36
I0
sg37
I2
ssI17
(dp352
g35
I7
sg36
I0
sg37
I1
ssI18
(dp353
g35
I8
sg36
I0
sg37
I1
ssI19
(dp354
g35
I5
sg36
I0
sg37
I8
ssI20
(dp355
g35
I6
sg36
I0
sg37
I6
sssI17
(dp356
I1
(dp357
g35
I5
sg36
I0
sg37
I4
ssI2
(dp358
g35
I5
sg36
I0
sg37
I4
ssI3
(dp359
g35
I8
sg36
I0
sg37
I8
ssI4
(dp360
g35
I8
sg36
I0
sg37
I8
ssI5
(dp361
g35
I7
sg36
I0
sg37
I0
ssI6
(dp362
g35
I6
sg36
I0
sg37
I3
ssI7
(dp363
g35
I7
sg36
I0
sg37
I5
ssI8
(dp364
g35
I8
sg36
I0
sg37
I8
ssI9
(dp365
g35
I5
sg36
I0
sg37
I7
ssI10
(dp366
g35
I7
sg36
I0
sg37
I2
ssI11
(dp367
g35
I6
sg36
I0
sg37
I8
ssI12
(dp368
g35
I7
sg36
I0
sg37
I10
ssI13
(dp369
g35
I6
sg36
I0
sg37
I8
ssI14
(dp370
g35
I8
sg36
I0
sg37
I9
ssI15
(dp371
g35
I7
sg36
I0
sg37
I10
ssI16
(dp372
g35
I8
sg36
I0
sg37
I3
ssI18
(dp373
g35
I6
sg36
I0
sg37
I7
ssI19
(dp374
g35
I5
sg36
I0
sg37
I9
ssI20
(dp375
g35
I6
sg36
I0
sg37
I7
sssI18
(dp376
I1
(dp377
g35
I7
sg36
I0
sg37
I1
ssI2
(dp378
g35
I5
sg36
I0
sg37
I7
ssI3
(dp379
g35
I6
sg36
I0
sg37
I9
ssI4
(dp380
g35
I8
sg36
I0
sg37
I8
ssI5
(dp381
g35
I8
sg36
I0
sg37
I0
ssI6
(dp382
g35
I5
sg36
I0
sg37
I3
ssI7
(dp383
g35
I5
sg36
I0
sg37
I3
ssI8
(dp384
g35
I6
sg36
I0
sg37
I9
ssI9
(dp385
g35
I7
sg36
I0
sg37
I0
ssI10
(dp386
g35
I7
sg36
I0
sg37
I0
ssI11
(dp387
g35
I7
sg36
I0
sg37
I10
ssI12
(dp388
g35
I7
sg36
I0
sg37
I5
ssI13
(dp389
g35
I7
sg36
I0
sg37
I0
ssI14
(dp390
g35
I8
sg36
I0
sg37
I5
ssI15
(dp391
g35
I5
sg36
I0
sg37
I3
ssI16
(dp392
g35
I7
sg36
I0
sg37
I10
ssI17
(dp393
g35
I6
sg36
I0
sg37
I5
ssI19
(dp394
g35
I8
sg36
I0
sg37
I8
ssI20
(dp395
g35
I7
sg36
I0
sg37
I6
sssI19
(dp396
I1
(dp397
g35
I7
sg36
I0
sg37
I10
ssI2
(dp398
g35
I6
sg36
I0
sg37
I4
ssI3
(dp399
g35
I5
sg36
I0
sg37
I10
ssI4
(dp400
g35
I7
sg36
I0
sg37
I1
ssI5
(dp401
g35
I8
sg36
I0
sg37
I2
ssI6
(dp402
g35
I6
sg36
I0
sg37
I1
ssI7
(dp403
g35
I6
sg36
I0
sg37
I1
ssI8
(dp404
g35
I5
sg36
I0
sg37
I7
ssI9
(dp405
g35
I7
sg36
I0
sg37
I1
ssI10
(dp406
g35
I8
sg36
I0
sg37
I1
ssI11
(dp407
g35
I5
sg36
I0
sg37
I10
ssI12
(dp408
g35
I5
sg36
I0
sg37
I9
ssI13
(dp409
g35
I6
sg36
I0
sg37
I1
ssI14
(dp410
g35
I7
sg36
I0
sg37
I6
ssI15
(dp411
g35
I6
sg36
I0
sg37
I10
ssI16
(dp412
g35
I7
sg36
I0
sg37
I10
ssI17
(dp413
g35
I8
sg36
I0
sg37
I8
ssI18
(dp414
g35
I7
sg36
I0
sg37
I2
ssI20
(dp415
g35
I8
sg36
I0
sg37
I1
sssI20
(dp416
I1
(dp417
g35
I6
sg36
I0
sg37
I2
ssI2
(dp418
g35
I6
sg36
I0
sg37
I7
ssI3
(dp419
g35
I7
sg36
I0
sg37
I9
ssI4
(dp420
g35
I5
sg36
I0
sg37
I7
ssI5
(dp421
g35
I8
sg36
I0
sg37
I0
ssI6
(dp422
g35
I6
sg36
I0
sg37
I9
ssI7
(dp423
g35
I5
sg36
I0
sg37
I3
ssI8
(dp424
g35
I8
sg36
I0
sg37
I3
ssI9
(dp425
g35
I6
sg36
I0
sg37
I3
ssI10
(dp426
g35
I7
sg36
I0
sg37
I10
ssI11
(dp427
g35
I7
sg36
I0
sg37
I6
ssI12
(dp428
g35
I6
sg36
I0
sg37
I10
ssI13
(dp429
g35
I8
sg36
I0
sg37
I4
ssI14
(dp430
g35
I8
sg36
I0
sg37
I2
ssI15
(dp431
g35
I8
sg36
I0
sg37
I4
ssI16
(dp432
g35
I5
sg36
I0
sg37
I6
ssI17
(dp433
g35
I5
sg36
I0
sg37
I0
ssI18
(dp434
g35
I8
sg36
I0
sg37
I8
ssI19
(dp435
g35
I7
sg36
I0
sg37
I9
ssssS'edge'
p436
g32
sS'pred'
p437
(dp438
I1
(dp439
I2
g57
sI3
g77
sI4
g97
sI5
g117
sI6
g137
sI7
g157
sI8
g177
sI9
g197
sI10
g217
sI11
g237
sI12
g257
sI13
g277
sI14
g297
sI15
g317
sI16
g337
sI17
g357
sI18
g377
sI19
g397
sI20
g417
ssI2
(dp440
I1
g34
sI3
g78
sI4
g98
sI5
g118
sI6
g138
sI7
g158
sI8
g178
sI9
g198
sI10
g218
sI11
g238
sI12
g258
sI13
g278
sI14
g298
sI15
g318
sI16
g338
sI17
g358
sI18
g378
sI19
g398
sI20
g418
ssI3
(dp441
I1
g38
sI2
g58
sI4
g99
sI5
g119
sI6
g139
sI7
g159
sI8
g179
sI9
g199
sI10
g219
sI11
g239
sI12
g259
sI13
g279
sI14
g299
sI15
g319
sI16
g339
sI17
g359
sI18
g379
sI19
g399
sI20
g419
ssI4
(dp442
I1
g39
sI2
g59
sI3
g79
sI5
g120
sI6
g140
sI7
g160
sI8
g180
sI9
g200
sI10
g220
sI11
g240
sI12
g260
sI13
g280
sI14
g300
sI15
g320
sI16
g340
sI17
g360
sI18
g380
sI19
g400
sI20
g420
ssI5
(dp443
I1
g40
sI2
g60
sI3
g80
sI4
g100
sI6
g141
sI7
g161
sI8
g181
sI9
g201
sI10
g221
sI11
g241
sI12
g261
sI13
g281
sI14
g301
sI15
g321
sI16
g341
sI17
g361
sI18
g381
sI19
g401
sI20
g421
ssI6
(dp444
I1
g41
sI2
g61
sI3
g81
sI4
g101
sI5
g121
sI7
g162
sI8
g182
sI9
g202
sI10
g222
sI11
g242
sI12
g262
sI13
g282
sI14
g302
sI15
g322
sI16
g342
sI17
g362
sI18
g382
sI19
g402
sI20
g422
ssI7
(dp445
I1
g42
sI2
g62
sI3
g82
sI4
g102
sI5
g122
sI6
g142
sI8
g183
sI9
g203
sI10
g223
sI11
g243
sI12
g263
sI13
g283
sI14
g303
sI15
g323
sI16
g343
sI17
g363
sI18
g383
sI19
g403
sI20
g423
ssI8
(dp446
I1
g43
sI2
g63
sI3
g83
sI4
g103
sI5
g123
sI6
g143
sI7
g163
sI9
g204
sI10
g224
sI11
g244
sI12
g264
sI13
g284
sI14
g304
sI15
g324
sI16
g344
sI17
g364
sI18
g384
sI19
g404
sI20
g424
ssI9
(dp447
I1
g44
sI2
g64
sI3
g84
sI4
g104
sI5
g124
sI6
g144
sI7
g164
sI8
g184
sI10
g225
sI11
g245
sI12
g265
sI13
g285
sI14
g305
sI15
g325
sI16
g345
sI17
g365
sI18
g385
sI19
g405
sI20
g425
ssI10
(dp448
I1
g45
sI2
g65
sI3
g85
sI4
g105
sI5
g125
sI6
g145
sI7
g165
sI8
g185
sI9
g205
sI11
g246
sI12
g266
sI13
g286
sI14
g306
sI15
g326
sI16
g346
sI17
g366
sI18
g386
sI19
g406
sI20
g426
ssI11
(dp449
I1
g46
sI2
g66
sI3
g86
sI4
g106
sI5
g126
sI6
g146
sI7
g166
sI8
g186
sI9
g206
sI10
g226
sI12
g267
sI13
g287
sI14
g307
sI15
g327
sI16
g347
sI17
g367
sI18
g387
sI19
g407
sI20
g427
ssI12
(dp450
I1
g47
sI2
g67
sI3
g87
sI4
g107
sI5
g127
sI6
g147
sI7
g167
sI8
g187
sI9
g207
sI10
g227
sI11
g247
sI13
g288
sI14
g308
sI15
g328
sI16
g348
sI17
g368
sI18
g388
sI19
g408
sI20
g428
ssI13
(dp451
I1
g48
sI2
g68
sI3
g88
sI4
g108
sI5
g128
sI6
g148
sI7
g168
sI8
g188
sI9
g208
sI10
g228
sI11
g248
sI12
g268
sI14
g309
sI15
g329
sI16
g349
sI17
g369
sI18
g389
sI19
g409
sI20
g429
ssI14
(dp452
I1
g49
sI2
g69
sI3
g89
sI4
g109
sI5
g129
sI6
g149
sI7
g169
sI8
g189
sI9
g209
sI10
g229
sI11
g249
sI12
g269
sI13
g289
sI15
g330
sI16
g350
sI17
g370
sI18
g390
sI19
g410
sI20
g430
ssI15
(dp453
I1
g50
sI2
g70
sI3
g90
sI4
g110
sI5
g130
sI6
g150
sI7
g170
sI8
g190
sI9
g210
sI10
g230
sI11
g250
sI12
g270
sI13
g290
sI14
g310
sI16
g351
sI17
g371
sI18
g391
sI19
g411
sI20
g431
ssI16
(dp454
I1
g51
sI2
g71
sI3
g91
sI4
g111
sI5
g131
sI6
g151
sI7
g171
sI8
g191
sI9
g211
sI10
g231
sI11
g251
sI12
g271
sI13
g291
sI14
g311
sI15
g331
sI17
g372
sI18
g392
sI19
g412
sI20
g432
ssI17
(dp455
I1
g52
sI2
g72
sI3
g92
sI4
g112
sI5
g132
sI6
g152
sI7
g172
sI8
g192
sI9
g212
sI10
g232
sI11
g252
sI12
g272
sI13
g292
sI14
g312
sI15
g332
sI16
g352
sI18
g393
sI19
g413
sI20
g433
ssI18
(dp456
I1
g53
sI2
g73
sI3
g93
sI4
g113
sI5
g133
sI6
g153
sI7
g173
sI8
g193
sI9
g213
sI10
g233
sI11
g253
sI12
g273
sI13
g293
sI14
g313
sI15
g333
sI16
g353
sI17
g373
sI19
g414
sI20
g434
ssI19
(dp457
I1
g54
sI2
g74
sI3
g94
sI4
g114
sI5
g134
sI6
g154
sI7
g174
sI8
g194
sI9
g214
sI10
g234
sI11
g254
sI12
g274
sI13
g294
sI14
g314
sI15
g334
sI16
g354
sI17
g374
sI18
g394
sI20
g435
ssI20
(dp458
I1
g55
sI2
g75
sI3
g95
sI4
g115
sI5
g135
sI6
g155
sI7
g175
sI8
g195
sI9
g215
sI10
g235
sI11
g255
sI12
g275
sI13
g295
sI14
g315
sI15
g335
sI16
g355
sI17
g375
sI18
g395
sI19
g415
sssS'adj'
p459
g32
sb.