ccopy_reg
_reconstructor
p1
(cnetworkx.classes.digraph
DiGraph
p2
c__builtin__
object
p3
NtRp4
(dp5
S'node'
p6
(dp7
I1
(dp8
S'demand'
p9
I5
ssI2
(dp10
g9
I6
ssI3
(dp11
g9
I8
ssI4
(dp12
g9
I5
ssI5
(dp13
g9
I8
ssI6
(dp14
g9
I6
ssI7
(dp15
g9
I5
ssI8
(dp16
g9
I1
ssI9
(dp17
g9
I10
ssI10
(dp18
g9
I2
ssI11
(dp19
g9
I0
ssI12
(dp20
g9
I0
ssI13
(dp21
g9
I0
ssI14
(dp22
g9
I0
ssI15
(dp23
g9
I0
ssI16
(dp24
g9
I0
ssI17
(dp25
g9
I0
ssI18
(dp26
g9
I0
ssI19
(dp27
g9
I0
ssI20
(dp28
g9
I-56
sssS'graph'
p29
(dp30
sS'succ'
p31
(dp32
I1
(dp33
I19
(dp34
S'capacity'
p35
I6
sS'fluxo'
p36
I0
sS'weight'
p37
I5
ssI12
(dp38
g35
I8
sg36
I0
sg37
I9
sssI2
(dp39
I10
(dp40
g35
I6
sg36
I0
sg37
I3
ssI6
(dp41
g35
I5
sg36
I0
sg37
I9
ssI15
(dp42
g35
I5
sg36
I0
sg37
I0
sssI3
(dp43
I2
(dp44
g35
I7
sg36
I0
sg37
I5
ssI6
(dp45
g35
I7
sg36
I0
sg37
I0
ssI8
(dp46
g35
I6
sg36
I0
sg37
I2
ssI12
(dp47
g35
I5
sg36
I0
sg37
I6
ssI13
(dp48
g35
I7
sg36
I0
sg37
I3
ssI15
(dp49
g35
I8
sg36
I0
sg37
I6
ssI20
(dp50
g35
I5
sg36
I0
sg37
I1
sssI4
(dp51
I1
(dp52
g35
I8
sg36
I0
sg37
I9
ssI18
(dp53
g35
I5
sg36
I0
sg37
I0
ssI12
(dp54
g35
I5
sg36
I0
sg37
I9
ssI6
(dp55
g35
I6
sg36
I0
sg37
I8
sssI5
(dp56
I12
(dp57
g35
I7
sg36
I0
sg37
I2
ssI10
(dp58
g35
I6
sg36
I0
sg37
I6
ssI20
(dp59
g35
I8
sg36
I0
sg37
I9
ssI6
(dp60
g35
I5
sg36
I0
sg37
I5
sssI6
(dp61
I8
(dp62
g35
I7
sg36
I0
sg37
I5
ssI16
(dp63
g35
I6
sg36
I0
sg37
I4
sssI7
(dp64
I14
(dp65
g35
I5
sg36
I0
sg37
I6
ssI6
(dp66
g35
I8
sg36
I0
sg37
I4
ssI15
(dp67
g35
I7
sg36
I0
sg37
I1
sssI8
(dp68
I1
(dp69
g35
I8
sg36
I0
sg37
I2
ssI4
(dp70
g35
I6
sg36
I0
sg37
I0
ssI11
(dp71
g35
I6
sg36
I0
sg37
I1
ssI13
(dp72
g35
I6
sg36
I0
sg37
I2
ssI16
(dp73
g35
I5
sg36
I0
sg37
I4
ssI19
(dp74
g35
I6
sg36
I0
sg37
I9
sssI9
(dp75
I1
(dp76
g35
I5
sg36
I0
sg37
I4
ssI18
(dp77
g35
I6
sg36
I0
sg37
I8
ssI13
(dp78
g35
I6
sg36
I0
sg37
I7
sssI10
(dp79
I18
(dp80
g35
I6
sg36
I0
sg37
I3
ssI20
(dp81
g35
I8
sg36
I0
sg37
I1
ssI13
(dp82
g35
I7
sg36
I0
sg37
I0
sssI11
(dp83
I12
(dp84
g35
I5
sg36
I0
sg37
I3
ssI20
(dp85
g35
I6
sg36
I0
sg37
I4
ssI5
(dp86
g35
I8
sg36
I0
sg37
I8
sssI12
(dp87
I17
(dp88
g35
I5
sg36
I0
sg37
I3
ssI7
(dp89
g35
I7
sg36
I0
sg37
I7
ssI4
(dp90
g35
I6
sg36
I0
sg37
I0
ssI5
(dp91
g35
I7
sg36
I0
sg37
I4
ssI1
(dp92
g35
I7
sg36
I0
sg37
I1
sssI13
(dp93
I1
(dp94
g35
I6
sg36
I0
sg37
I8
ssI3
(dp95
g35
I6
sg36
I0
sg37
I4
ssI5
(dp96
g35
I7
sg36
I0
sg37
I5
ssI8
(dp97
g35
I6
sg36
I0
sg37
I7
ssI9
(dp98
g35
I5
sg36
I0
sg37
I1
ssI15
(dp99
g35
I6
sg36
I0
sg37
I6
sssI14
(dp100
I2
(dp101
g35
I5
sg36
I0
sg37
I3
ssI19
(dp102
g35
I7
sg36
I0
sg37
I7
sssI15
(dp103
I3
(dp104
g35
I5
sg36
I0
sg37
I7
ssI6
(dp105
g35
I5
sg36
I0
sg37
I10
ssI7
(dp106
g35
I8
sg36
I0
sg37
I10
ssI8
(dp107
g35
I8
sg36
I0
sg37
I1
ssI13
(dp108
g35
I6
sg36
I0
sg37
I4
ssI17
(dp109
g35
I7
sg36
I0
sg37
I6
ssI18
(dp110
g35
I8
sg36
I0
sg37
I8
ssI20
(dp111
g35
I8
sg36
I0
sg37
I2
sssI16
(dp112
I1
(dp113
g35
I8
sg36
I0
sg37
I10
ssI2
(dp114
g35
I5
sg36
I0
sg37
I4
ssI6
(dp115
g35
I8
sg36
I0
sg37
I6
ssI7
(dp116
g35
I6
sg36
I0
sg37
I8
ssI12
(dp117
g35
I7
sg36
I0
sg37
I6
ssI13
(dp118
g35
I8
sg36
I0
sg37
I6
ssI17
(dp119
g35
I8
sg36
I0
sg37
I3
sssI17
(dp120
I1
(dp121
g35
I8
sg36
I0
sg37
I6
ssI6
(dp122
g35
I6
sg36
I0
sg37
I6
ssI9
(dp123
g35
I7
sg36
I0
sg37
I4
ssI10
(dp124
g35
I8
sg36
I0
sg37
I2
ssI13
(dp125
g35
I6
sg36
I0
sg37
I10
ssI15
(dp126
g35
I5
sg36
I0
sg37
I4
ssI16
(dp127
g35
I7
sg36
I0
sg37
I3
ssI20
(dp128
g35
I5
sg36
I0
sg37
I3
sssI18
(dp129
I1
(dp130
g35
I7
sg36
I0
sg37
I9
ssI4
(dp131
g35
I8
sg36
I0
sg37
I3
ssI13
(dp132
g35
I6
sg36
I0
sg37
I8
ssI5
(dp133
g35
I7
sg36
I0
sg37
I7
sssI19
(dp134
I16
(dp135
g35
I7
sg36
I0
sg37
I6
ssI17
(dp136
g35
I5
sg36
I0
sg37
I7
ssI2
(dp137
g35
I5
sg36
I0
sg37
I4
ssI13
(dp138
g35
I6
sg36
I0
sg37
I6
ssI7
(dp139
g35
I6
sg36
I0
sg37
I4
sssI20
(dp140
I4
(dp141
g35
I6
sg36
I0
sg37
I1
ssI6
(dp142
g35
I5
sg36
I0
sg37
I8
ssI7
(dp143
g35
I5
sg36
I0
sg37
I0
ssI8
(dp144
g35
I7
sg36
I0
sg37
I6
ssI10
(dp145
g35
I8
sg36
I0
sg37
I2
ssI12
(dp146
g35
I6
sg36
I0
sg37
I7
ssI13
(dp147
g35
I8
sg36
I0
sg37
I10
ssI14
(dp148
g35
I5
sg36
I0
sg37
I1
ssI15
(dp149
g35
I7
sg36
I0
sg37
I2
ssI17
(dp150
g35
I6
sg36
I0
sg37
I10
ssssS'edge'
p151
g32
sS'pred'
p152
(dp153
I1
(dp154
I4
g52
sI8
g69
sI9
g76
sI12
g92
sI13
g94
sI16
g113
sI17
g121
sI18
g130
ssI2
(dp155
I16
g114
sI19
g137
sI3
g44
sI14
g101
ssI3
(dp156
I13
g95
sI15
g104
ssI4
(dp157
I8
g70
sI12
g90
sI18
g131
sI20
g141
ssI5
(dp158
I18
g133
sI11
g86
sI12
g91
sI13
g96
ssI6
(dp159
I2
g41
sI3
g45
sI4
g55
sI5
g60
sI7
g66
sI15
g105
sI16
g115
sI17
g122
sI20
g142
ssI7
(dp160
I16
g116
sI12
g89
sI19
g139
sI20
g143
sI15
g106
ssI8
(dp161
I3
g46
sI20
g144
sI13
g97
sI6
g62
sI15
g107
ssI9
(dp162
I17
g123
sI13
g98
ssI10
(dp163
I17
g124
sI2
g40
sI20
g145
sI5
g58
ssI11
(dp164
I8
g71
ssI12
(dp165
I1
g38
sI3
g47
sI4
g54
sI5
g57
sI11
g84
sI16
g117
sI20
g146
ssI13
(dp166
I3
g48
sI8
g72
sI9
g78
sI10
g82
sI15
g108
sI16
g118
sI17
g125
sI18
g132
sI19
g138
sI20
g147
ssI14
(dp167
I20
g148
sI7
g65
ssI15
(dp168
I2
g42
sI3
g49
sI7
g67
sI13
g99
sI17
g126
sI20
g149
ssI16
(dp169
I8
g73
sI17
g127
sI19
g135
sI6
g63
ssI17
(dp170
I16
g119
sI20
g150
sI19
g136
sI12
g88
sI15
g109
ssI18
(dp171
I9
g77
sI10
g80
sI4
g53
sI15
g110
ssI19
(dp172
I8
g74
sI1
g34
sI14
g102
ssI20
(dp173
I3
g50
sI5
g59
sI10
g81
sI11
g85
sI15
g111
sI17
g128
sssS'adj'
p174
g32
sb.