ccopy_reg
_reconstructor
p1
(cnetworkx.classes.digraph
DiGraph
p2
c__builtin__
object
p3
NtRp4
(dp5
S'node'
p6
(dp7
I1
(dp8
S'demand'
p9
I8
ssI2
(dp10
g9
I2
ssI3
(dp11
g9
I5
ssI4
(dp12
g9
I3
ssI5
(dp13
g9
I2
ssI6
(dp14
g9
I4
ssI7
(dp15
g9
I1
ssI8
(dp16
g9
I1
ssI9
(dp17
g9
I3
ssI10
(dp18
g9
I8
ssI11
(dp19
g9
I0
ssI12
(dp20
g9
I0
ssI13
(dp21
g9
I0
ssI14
(dp22
g9
I0
ssI15
(dp23
g9
I0
ssI16
(dp24
g9
I0
ssI17
(dp25
g9
I0
ssI18
(dp26
g9
I0
ssI19
(dp27
g9
I0
ssI20
(dp28
g9
I-37
sssS'graph'
p29
(dp30
sS'succ'
p31
(dp32
I1
(dp33
I2
(dp34
S'capacity'
p35
I7
sS'fluxo'
p36
I0
sS'weight'
p37
I6
ssI3
(dp38
g35
I7
sg36
I0
sg37
I2
ssI4
(dp39
g35
I7
sg36
I0
sg37
I3
ssI6
(dp40
g35
I7
sg36
I0
sg37
I10
ssI7
(dp41
g35
I6
sg36
I0
sg37
I6
ssI9
(dp42
g35
I8
sg36
I0
sg37
I2
ssI10
(dp43
g35
I5
sg36
I0
sg37
I3
ssI11
(dp44
g35
I5
sg36
I0
sg37
I6
ssI12
(dp45
g35
I6
sg36
I0
sg37
I7
ssI13
(dp46
g35
I6
sg36
I0
sg37
I5
ssI14
(dp47
g35
I7
sg36
I0
sg37
I1
ssI15
(dp48
g35
I6
sg36
I0
sg37
I8
ssI16
(dp49
g35
I7
sg36
I0
sg37
I9
ssI18
(dp50
g35
I6
sg36
I0
sg37
I1
ssI19
(dp51
g35
I6
sg36
I0
sg37
I2
ssI20
(dp52
g35
I8
sg36
I0
sg37
I6
sssI2
(dp53
I1
(dp54
g35
I8
sg36
I0
sg37
I10
ssI3
(dp55
g35
I7
sg36
I0
sg37
I9
ssI4
(dp56
g35
I7
sg36
I0
sg37
I10
ssI5
(dp57
g35
I6
sg36
I0
sg37
I10
ssI6
(dp58
g35
I6
sg36
I0
sg37
I2
ssI8
(dp59
g35
I5
sg36
I0
sg37
I8
ssI10
(dp60
g35
I7
sg36
I0
sg37
I8
ssI11
(dp61
g35
I5
sg36
I0
sg37
I4
ssI12
(dp62
g35
I6
sg36
I0
sg37
I8
ssI13
(dp63
g35
I7
sg36
I0
sg37
I8
ssI14
(dp64
g35
I5
sg36
I0
sg37
I1
ssI17
(dp65
g35
I5
sg36
I0
sg37
I3
ssI19
(dp66
g35
I6
sg36
I0
sg37
I2
ssI20
(dp67
g35
I5
sg36
I0
sg37
I4
sssI3
(dp68
I1
(dp69
g35
I8
sg36
I0
sg37
I9
ssI2
(dp70
g35
I6
sg36
I0
sg37
I5
ssI5
(dp71
g35
I7
sg36
I0
sg37
I4
ssI6
(dp72
g35
I7
sg36
I0
sg37
I3
ssI7
(dp73
g35
I7
sg36
I0
sg37
I0
ssI9
(dp74
g35
I5
sg36
I0
sg37
I3
ssI10
(dp75
g35
I8
sg36
I0
sg37
I5
ssI13
(dp76
g35
I8
sg36
I0
sg37
I4
ssI14
(dp77
g35
I8
sg36
I0
sg37
I1
ssI15
(dp78
g35
I6
sg36
I0
sg37
I1
ssI17
(dp79
g35
I6
sg36
I0
sg37
I6
ssI18
(dp80
g35
I8
sg36
I0
sg37
I2
ssI19
(dp81
g35
I6
sg36
I0
sg37
I3
ssI20
(dp82
g35
I5
sg36
I0
sg37
I1
sssI4
(dp83
I1
(dp84
g35
I7
sg36
I0
sg37
I4
ssI2
(dp85
g35
I7
sg36
I0
sg37
I0
ssI3
(dp86
g35
I6
sg36
I0
sg37
I4
ssI5
(dp87
g35
I7
sg36
I0
sg37
I8
ssI6
(dp88
g35
I8
sg36
I0
sg37
I0
ssI14
(dp89
g35
I6
sg36
I0
sg37
I5
ssI15
(dp90
g35
I5
sg36
I0
sg37
I4
ssI16
(dp91
g35
I8
sg36
I0
sg37
I9
ssI18
(dp92
g35
I6
sg36
I0
sg37
I0
ssI19
(dp93
g35
I5
sg36
I0
sg37
I8
ssI20
(dp94
g35
I8
sg36
I0
sg37
I8
sssI5
(dp95
I1
(dp96
g35
I8
sg36
I0
sg37
I8
ssI3
(dp97
g35
I8
sg36
I0
sg37
I10
ssI6
(dp98
g35
I6
sg36
I0
sg37
I1
ssI7
(dp99
g35
I8
sg36
I0
sg37
I5
ssI9
(dp100
g35
I6
sg36
I0
sg37
I7
ssI10
(dp101
g35
I7
sg36
I0
sg37
I1
ssI11
(dp102
g35
I5
sg36
I0
sg37
I4
ssI12
(dp103
g35
I5
sg36
I0
sg37
I2
ssI14
(dp104
g35
I8
sg36
I0
sg37
I5
ssI15
(dp105
g35
I8
sg36
I0
sg37
I7
ssI16
(dp106
g35
I8
sg36
I0
sg37
I7
ssI17
(dp107
g35
I8
sg36
I0
sg37
I7
sssI6
(dp108
I2
(dp109
g35
I7
sg36
I0
sg37
I4
ssI4
(dp110
g35
I7
sg36
I0
sg37
I1
ssI5
(dp111
g35
I7
sg36
I0
sg37
I0
ssI7
(dp112
g35
I7
sg36
I0
sg37
I8
ssI8
(dp113
g35
I7
sg36
I0
sg37
I7
ssI9
(dp114
g35
I8
sg36
I0
sg37
I7
ssI10
(dp115
g35
I8
sg36
I0
sg37
I1
ssI11
(dp116
g35
I8
sg36
I0
sg37
I10
ssI12
(dp117
g35
I5
sg36
I0
sg37
I1
ssI14
(dp118
g35
I5
sg36
I0
sg37
I9
ssI15
(dp119
g35
I7
sg36
I0
sg37
I8
ssI18
(dp120
g35
I6
sg36
I0
sg37
I8
ssI19
(dp121
g35
I6
sg36
I0
sg37
I9
ssI20
(dp122
g35
I8
sg36
I0
sg37
I4
sssI7
(dp123
I1
(dp124
g35
I6
sg36
I0
sg37
I2
ssI2
(dp125
g35
I5
sg36
I0
sg37
I9
ssI3
(dp126
g35
I5
sg36
I0
sg37
I9
ssI5
(dp127
g35
I7
sg36
I0
sg37
I0
ssI6
(dp128
g35
I7
sg36
I0
sg37
I0
ssI8
(dp129
g35
I8
sg36
I0
sg37
I7
ssI10
(dp130
g35
I6
sg36
I0
sg37
I8
ssI11
(dp131
g35
I7
sg36
I0
sg37
I8
ssI12
(dp132
g35
I8
sg36
I0
sg37
I8
ssI13
(dp133
g35
I5
sg36
I0
sg37
I10
ssI14
(dp134
g35
I6
sg36
I0
sg37
I0
ssI16
(dp135
g35
I8
sg36
I0
sg37
I2
ssI17
(dp136
g35
I5
sg36
I0
sg37
I3
ssI19
(dp137
g35
I7
sg36
I0
sg37
I10
ssI20
(dp138
g35
I6
sg36
I0
sg37
I3
sssI8
(dp139
I1
(dp140
g35
I6
sg36
I0
sg37
I5
ssI2
(dp141
g35
I5
sg36
I0
sg37
I3
ssI3
(dp142
g35
I7
sg36
I0
sg37
I9
ssI4
(dp143
g35
I5
sg36
I0
sg37
I3
ssI5
(dp144
g35
I7
sg36
I0
sg37
I3
ssI6
(dp145
g35
I5
sg36
I0
sg37
I10
ssI7
(dp146
g35
I6
sg36
I0
sg37
I0
ssI9
(dp147
g35
I6
sg36
I0
sg37
I7
ssI11
(dp148
g35
I8
sg36
I0
sg37
I2
ssI12
(dp149
g35
I7
sg36
I0
sg37
I6
ssI13
(dp150
g35
I6
sg36
I0
sg37
I5
ssI14
(dp151
g35
I7
sg36
I0
sg37
I0
ssI15
(dp152
g35
I5
sg36
I0
sg37
I4
ssI17
(dp153
g35
I8
sg36
I0
sg37
I4
ssI18
(dp154
g35
I5
sg36
I0
sg37
I2
ssI19
(dp155
g35
I5
sg36
I0
sg37
I7
sssI9
(dp156
I2
(dp157
g35
I7
sg36
I0
sg37
I0
ssI3
(dp158
g35
I7
sg36
I0
sg37
I4
ssI5
(dp159
g35
I8
sg36
I0
sg37
I8
ssI7
(dp160
g35
I8
sg36
I0
sg37
I2
ssI10
(dp161
g35
I5
sg36
I0
sg37
I5
ssI12
(dp162
g35
I7
sg36
I0
sg37
I6
ssI13
(dp163
g35
I5
sg36
I0
sg37
I1
ssI14
(dp164
g35
I7
sg36
I0
sg37
I1
ssI16
(dp165
g35
I6
sg36
I0
sg37
I8
ssI19
(dp166
g35
I5
sg36
I0
sg37
I6
ssI20
(dp167
g35
I6
sg36
I0
sg37
I4
sssI10
(dp168
I1
(dp169
g35
I8
sg36
I0
sg37
I1
ssI2
(dp170
g35
I5
sg36
I0
sg37
I5
ssI4
(dp171
g35
I6
sg36
I0
sg37
I5
ssI5
(dp172
g35
I7
sg36
I0
sg37
I2
ssI7
(dp173
g35
I5
sg36
I0
sg37
I1
ssI8
(dp174
g35
I7
sg36
I0
sg37
I3
ssI12
(dp175
g35
I7
sg36
I0
sg37
I2
ssI14
(dp176
g35
I7
sg36
I0
sg37
I9
ssI15
(dp177
g35
I5
sg36
I0
sg37
I4
ssI16
(dp178
g35
I8
sg36
I0
sg37
I2
ssI17
(dp179
g35
I7
sg36
I0
sg37
I5
ssI19
(dp180
g35
I5
sg36
I0
sg37
I4
ssI20
(dp181
g35
I8
sg36
I0
sg37
I9
sssI11
(dp182
I2
(dp183
g35
I6
sg36
I0
sg37
I3
ssI3
(dp184
g35
I7
sg36
I0
sg37
I7
ssI6
(dp185
g35
I5
sg36
I0
sg37
I5
ssI7
(dp186
g35
I7
sg36
I0
sg37
I7
ssI10
(dp187
g35
I8
sg36
I0
sg37
I9
ssI12
(dp188
g35
I8
sg36
I0
sg37
I3
ssI13
(dp189
g35
I8
sg36
I0
sg37
I4
ssI14
(dp190
g35
I5
sg36
I0
sg37
I8
ssI15
(dp191
g35
I5
sg36
I0
sg37
I0
ssI17
(dp192
g35
I5
sg36
I0
sg37
I5
ssI18
(dp193
g35
I6
sg36
I0
sg37
I1
ssI20
(dp194
g35
I7
sg36
I0
sg37
I6
sssI12
(dp195
I1
(dp196
g35
I6
sg36
I0
sg37
I2
ssI2
(dp197
g35
I6
sg36
I0
sg37
I10
ssI3
(dp198
g35
I7
sg36
I0
sg37
I9
ssI4
(dp199
g35
I5
sg36
I0
sg37
I7
ssI6
(dp200
g35
I8
sg36
I0
sg37
I4
ssI8
(dp201
g35
I7
sg36
I0
sg37
I6
ssI9
(dp202
g35
I7
sg36
I0
sg37
I8
ssI10
(dp203
g35
I8
sg36
I0
sg37
I1
ssI11
(dp204
g35
I7
sg36
I0
sg37
I10
ssI13
(dp205
g35
I6
sg36
I0
sg37
I5
ssI14
(dp206
g35
I5
sg36
I0
sg37
I2
ssI15
(dp207
g35
I7
sg36
I0
sg37
I0
ssI16
(dp208
g35
I5
sg36
I0
sg37
I5
ssI17
(dp209
g35
I7
sg36
I0
sg37
I5
ssI20
(dp210
g35
I7
sg36
I0
sg37
I6
sssI13
(dp211
I1
(dp212
g35
I6
sg36
I0
sg37
I4
ssI2
(dp213
g35
I5
sg36
I0
sg37
I2
ssI3
(dp214
g35
I7
sg36
I0
sg37
I5
ssI6
(dp215
g35
I6
sg36
I0
sg37
I9
ssI7
(dp216
g35
I7
sg36
I0
sg37
I0
ssI8
(dp217
g35
I8
sg36
I0
sg37
I9
ssI9
(dp218
g35
I6
sg36
I0
sg37
I7
ssI10
(dp219
g35
I8
sg36
I0
sg37
I5
ssI11
(dp220
g35
I7
sg36
I0
sg37
I2
ssI15
(dp221
g35
I6
sg36
I0
sg37
I10
ssI16
(dp222
g35
I6
sg36
I0
sg37
I1
ssI17
(dp223
g35
I7
sg36
I0
sg37
I9
ssI18
(dp224
g35
I5
sg36
I0
sg37
I2
ssI19
(dp225
g35
I5
sg36
I0
sg37
I3
ssI20
(dp226
g35
I7
sg36
I0
sg37
I4
sssI14
(dp227
I1
(dp228
g35
I6
sg36
I0
sg37
I7
ssI2
(dp229
g35
I7
sg36
I0
sg37
I9
ssI3
(dp230
g35
I8
sg36
I0
sg37
I1
ssI4
(dp231
g35
I7
sg36
I0
sg37
I7
ssI5
(dp232
g35
I6
sg36
I0
sg37
I1
ssI6
(dp233
g35
I8
sg36
I0
sg37
I5
ssI7
(dp234
g35
I7
sg36
I0
sg37
I0
ssI8
(dp235
g35
I6
sg36
I0
sg37
I5
ssI9
(dp236
g35
I8
sg36
I0
sg37
I3
ssI11
(dp237
g35
I8
sg36
I0
sg37
I10
ssI13
(dp238
g35
I6
sg36
I0
sg37
I7
ssI15
(dp239
g35
I6
sg36
I0
sg37
I5
ssI16
(dp240
g35
I8
sg36
I0
sg37
I1
ssI17
(dp241
g35
I7
sg36
I0
sg37
I9
ssI18
(dp242
g35
I5
sg36
I0
sg37
I8
ssI19
(dp243
g35
I7
sg36
I0
sg37
I10
ssI20
(dp244
g35
I7
sg36
I0
sg37
I5
sssI15
(dp245
I1
(dp246
g35
I6
sg36
I0
sg37
I2
ssI2
(dp247
g35
I6
sg36
I0
sg37
I7
ssI3
(dp248
g35
I6
sg36
I0
sg37
I1
ssI4
(dp249
g35
I7
sg36
I0
sg37
I3
ssI5
(dp250
g35
I7
sg36
I0
sg37
I10
ssI6
(dp251
g35
I5
sg36
I0
sg37
I5
ssI7
(dp252
g35
I5
sg36
I0
sg37
I9
ssI8
(dp253
g35
I8
sg36
I0
sg37
I3
ssI9
(dp254
g35
I5
sg36
I0
sg37
I4
ssI11
(dp255
g35
I8
sg36
I0
sg37
I0
ssI12
(dp256
g35
I8
sg36
I0
sg37
I3
ssI13
(dp257
g35
I5
sg36
I0
sg37
I3
ssI14
(dp258
g35
I8
sg36
I0
sg37
I7
ssI16
(dp259
g35
I7
sg36
I0
sg37
I5
ssI17
(dp260
g35
I7
sg36
I0
sg37
I1
ssI19
(dp261
g35
I6
sg36
I0
sg37
I3
ssI20
(dp262
g35
I7
sg36
I0
sg37
I2
sssI16
(dp263
I1
(dp264
g35
I5
sg36
I0
sg37
I5
ssI2
(dp265
g35
I7
sg36
I0
sg37
I8
ssI3
(dp266
g35
I5
sg36
I0
sg37
I6
ssI4
(dp267
g35
I8
sg36
I0
sg37
I1
ssI6
(dp268
g35
I5
sg36
I0
sg37
I1
ssI7
(dp269
g35
I6
sg36
I0
sg37
I5
ssI9
(dp270
g35
I7
sg36
I0
sg37
I1
ssI10
(dp271
g35
I6
sg36
I0
sg37
I5
ssI11
(dp272
g35
I6
sg36
I0
sg37
I2
ssI12
(dp273
g35
I5
sg36
I0
sg37
I10
ssI13
(dp274
g35
I5
sg36
I0
sg37
I9
ssI15
(dp275
g35
I6
sg36
I0
sg37
I2
ssI17
(dp276
g35
I8
sg36
I0
sg37
I1
ssI18
(dp277
g35
I8
sg36
I0
sg37
I6
ssI19
(dp278
g35
I7
sg36
I0
sg37
I0
ssI20
(dp279
g35
I8
sg36
I0
sg37
I6
sssI17
(dp280
I1
(dp281
g35
I7
sg36
I0
sg37
I0
ssI3
(dp282
g35
I6
sg36
I0
sg37
I8
ssI4
(dp283
g35
I6
sg36
I0
sg37
I9
ssI5
(dp284
g35
I7
sg36
I0
sg37
I0
ssI6
(dp285
g35
I8
sg36
I0
sg37
I4
ssI7
(dp286
g35
I7
sg36
I0
sg37
I8
ssI9
(dp287
g35
I7
sg36
I0
sg37
I5
ssI10
(dp288
g35
I7
sg36
I0
sg37
I1
ssI12
(dp289
g35
I5
sg36
I0
sg37
I2
ssI14
(dp290
g35
I6
sg36
I0
sg37
I6
ssI15
(dp291
g35
I5
sg36
I0
sg37
I5
ssI16
(dp292
g35
I7
sg36
I0
sg37
I3
ssI18
(dp293
g35
I6
sg36
I0
sg37
I9
ssI19
(dp294
g35
I8
sg36
I0
sg37
I6
ssI20
(dp295
g35
I7
sg36
I0
sg37
I10
sssI18
(dp296
I1
(dp297
g35
I8
sg36
I0
sg37
I2
ssI3
(dp298
g35
I8
sg36
I0
sg37
I5
ssI4
(dp299
g35
I6
sg36
I0
sg37
I10
ssI5
(dp300
g35
I8
sg36
I0
sg37
I9
ssI7
(dp301
g35
I5
sg36
I0
sg37
I8
ssI9
(dp302
g35
I6
sg36
I0
sg37
I10
ssI11
(dp303
g35
I5
sg36
I0
sg37
I8
ssI12
(dp304
g35
I6
sg36
I0
sg37
I6
ssI13
(dp305
g35
I5
sg36
I0
sg37
I10
ssI14
(dp306
g35
I6
sg36
I0
sg37
I9
ssI15
(dp307
g35
I8
sg36
I0
sg37
I5
ssI16
(dp308
g35
I6
sg36
I0
sg37
I4
ssI17
(dp309
g35
I7
sg36
I0
sg37
I8
ssI20
(dp310
g35
I7
sg36
I0
sg37
I4
sssI19
(dp311
I2
(dp312
g35
I7
sg36
I0
sg37
I2
ssI3
(dp313
g35
I8
sg36
I0
sg37
I1
ssI5
(dp314
g35
I7
sg36
I0
sg37
I2
ssI7
(dp315
g35
I6
sg36
I0
sg37
I7
ssI9
(dp316
g35
I8
sg36
I0
sg37
I4
ssI10
(dp317
g35
I5
sg36
I0
sg37
I6
ssI12
(dp318
g35
I8
sg36
I0
sg37
I2
ssI13
(dp319
g35
I7
sg36
I0
sg37
I1
ssI14
(dp320
g35
I5
sg36
I0
sg37
I3
ssI15
(dp321
g35
I6
sg36
I0
sg37
I1
ssI16
(dp322
g35
I8
sg36
I0
sg37
I4
ssI17
(dp323
g35
I5
sg36
I0
sg37
I5
ssI18
(dp324
g35
I7
sg36
I0
sg37
I6
ssI20
(dp325
g35
I5
sg36
I0
sg37
I9
sssI20
(dp326
I3
(dp327
g35
I5
sg36
I0
sg37
I8
ssI4
(dp328
g35
I8
sg36
I0
sg37
I6
ssI6
(dp329
g35
I7
sg36
I0
sg37
I3
ssI7
(dp330
g35
I8
sg36
I0
sg37
I5
ssI8
(dp331
g35
I7
sg36
I0
sg37
I8
ssI9
(dp332
g35
I7
sg36
I0
sg37
I6
ssI10
(dp333
g35
I8
sg36
I0
sg37
I3
ssI11
(dp334
g35
I8
sg36
I0
sg37
I3
ssI13
(dp335
g35
I7
sg36
I0
sg37
I8
ssI14
(dp336
g35
I6
sg36
I0
sg37
I1
ssI16
(dp337
g35
I7
sg36
I0
sg37
I9
ssI17
(dp338
g35
I6
sg36
I0
sg37
I9
ssI18
(dp339
g35
I8
sg36
I0
sg37
I9
ssI19
(dp340
g35
I8
sg36
I0
sg37
I3
ssssS'edge'
p341
g32
sS'pred'
p342
(dp343
I1
(dp344
I2
g54
sI3
g69
sI4
g84
sI5
g96
sI7
g124
sI8
g140
sI10
g169
sI12
g196
sI13
g212
sI14
g228
sI15
g246
sI16
g264
sI17
g281
sI18
g297
ssI2
(dp345
I1
g34
sI3
g70
sI4
g85
sI6
g109
sI7
g125
sI8
g141
sI9
g157
sI10
g170
sI11
g183
sI12
g197
sI13
g213
sI14
g229
sI15
g247
sI16
g265
sI19
g312
ssI3
(dp346
I1
g38
sI2
g55
sI4
g86
sI5
g97
sI7
g126
sI8
g142
sI9
g158
sI11
g184
sI12
g198
sI13
g214
sI14
g230
sI15
g248
sI16
g266
sI17
g282
sI18
g298
sI19
g313
sI20
g327
ssI4
(dp347
I1
g39
sI2
g56
sI6
g110
sI8
g143
sI10
g171
sI12
g199
sI14
g231
sI15
g249
sI16
g267
sI17
g283
sI18
g299
sI20
g328
ssI5
(dp348
I2
g57
sI3
g71
sI4
g87
sI6
g111
sI7
g127
sI8
g144
sI9
g159
sI10
g172
sI14
g232
sI15
g250
sI17
g284
sI18
g300
sI19
g314
ssI6
(dp349
I1
g40
sI2
g58
sI3
g72
sI4
g88
sI5
g98
sI7
g128
sI8
g145
sI11
g185
sI12
g200
sI13
g215
sI14
g233
sI15
g251
sI16
g268
sI17
g285
sI20
g329
ssI7
(dp350
I1
g41
sI3
g73
sI5
g99
sI6
g112
sI8
g146
sI9
g160
sI10
g173
sI11
g186
sI13
g216
sI14
g234
sI15
g252
sI16
g269
sI17
g286
sI18
g301
sI19
g315
sI20
g330
ssI8
(dp351
I2
g59
sI6
g113
sI7
g129
sI10
g174
sI12
g201
sI13
g217
sI14
g235
sI15
g253
sI20
g331
ssI9
(dp352
I1
g42
sI3
g74
sI5
g100
sI6
g114
sI8
g147
sI12
g202
sI13
g218
sI14
g236
sI15
g254
sI16
g270
sI17
g287
sI18
g302
sI19
g316
sI20
g332
ssI10
(dp353
I1
g43
sI2
g60
sI3
g75
sI5
g101
sI6
g115
sI7
g130
sI9
g161
sI11
g187
sI12
g203
sI13
g219
sI16
g271
sI17
g288
sI19
g317
sI20
g333
ssI11
(dp354
I1
g44
sI2
g61
sI5
g102
sI6
g116
sI7
g131
sI8
g148
sI12
g204
sI13
g220
sI14
g237
sI15
g255
sI16
g272
sI18
g303
sI20
g334
ssI12
(dp355
I1
g45
sI2
g62
sI5
g103
sI6
g117
sI7
g132
sI8
g149
sI9
g162
sI10
g175
sI11
g188
sI15
g256
sI16
g273
sI17
g289
sI18
g304
sI19
g318
ssI13
(dp356
I1
g46
sI2
g63
sI3
g76
sI7
g133
sI8
g150
sI9
g163
sI11
g189
sI12
g205
sI14
g238
sI15
g257
sI16
g274
sI18
g305
sI19
g319
sI20
g335
ssI14
(dp357
I1
g47
sI2
g64
sI3
g77
sI4
g89
sI5
g104
sI6
g118
sI7
g134
sI8
g151
sI9
g164
sI10
g176
sI11
g190
sI12
g206
sI15
g258
sI17
g290
sI18
g306
sI19
g320
sI20
g336
ssI15
(dp358
I1
g48
sI3
g78
sI4
g90
sI5
g105
sI6
g119
sI8
g152
sI10
g177
sI11
g191
sI12
g207
sI13
g221
sI14
g239
sI16
g275
sI17
g291
sI18
g307
sI19
g321
ssI16
(dp359
I1
g49
sI4
g91
sI5
g106
sI7
g135
sI9
g165
sI10
g178
sI12
g208
sI13
g222
sI14
g240
sI15
g259
sI17
g292
sI18
g308
sI19
g322
sI20
g337
ssI17
(dp360
I2
g65
sI3
g79
sI5
g107
sI7
g136
sI8
g153
sI10
g179
sI11
g192
sI12
g209
sI13
g223
sI14
g241
sI15
g260
sI16
g276
sI18
g309
sI19
g323
sI20
g338
ssI18
(dp361
I1
g50
sI3
g80
sI4
g92
sI6
g120
sI8
g154
sI11
g193
sI13
g224
sI14
g242
sI16
g277
sI17
g293
sI19
g324
sI20
g339
ssI19
(dp362
I1
g51
sI2
g66
sI3
g81
sI4
g93
sI6
g121
sI7
g137
sI8
g155
sI9
g166
sI10
g180
sI13
g225
sI14
g243
sI15
g261
sI16
g278
sI17
g294
sI20
g340
ssI20
(dp363
I1
g52
sI2
g67
sI3
g82
sI4
g94
sI6
g122
sI7
g138
sI9
g167
sI10
g181
sI11
g194
sI12
g210
sI13
g226
sI14
g244
sI15
g262
sI16
g279
sI17
g295
sI18
g310
sI19
g325
sssS'adj'
p364
g32
sb.