ccopy_reg
_reconstructor
p1
(cnetworkx.classes.digraph
DiGraph
p2
c__builtin__
object
p3
NtRp4
(dp5
S'node'
p6
(dp7
I1
(dp8
S'demand'
p9
I10
ssI2
(dp10
g9
I8
ssI3
(dp11
g9
I10
ssI4
(dp12
g9
I6
ssI5
(dp13
g9
I4
ssI6
(dp14
g9
I4
ssI7
(dp15
g9
I3
ssI8
(dp16
g9
I9
ssI9
(dp17
g9
I1
ssI10
(dp18
g9
I2
ssI11
(dp19
g9
I1
ssI12
(dp20
g9
I6
ssI13
(dp21
g9
I9
ssI14
(dp22
g9
I9
ssI15
(dp23
g9
I4
ssI16
(dp24
g9
I0
ssI17
(dp25
g9
I0
ssI18
(dp26
g9
I0
ssI19
(dp27
g9
I0
ssI20
(dp28
g9
I0
ssI21
(dp29
g9
I0
ssI22
(dp30
g9
I0
ssI23
(dp31
g9
I0
ssI24
(dp32
g9
I0
ssI25
(dp33
g9
I0
ssI26
(dp34
g9
I0
ssI27
(dp35
g9
I0
ssI28
(dp36
g9
I0
ssI29
(dp37
g9
I0
ssI30
(dp38
g9
I-86
sssS'graph'
p39
(dp40
sS'succ'
p41
(dp42
I1
(dp43
I3
(dp44
S'capacity'
p45
I6
sS'fluxo'
p46
I0
sS'weight'
p47
I8
ssI4
(dp48
g45
I5
sg46
I0
sg47
I10
ssI5
(dp49
g45
I7
sg46
I0
sg47
I4
ssI6
(dp50
g45
I8
sg46
I0
sg47
I0
ssI7
(dp51
g45
I6
sg46
I0
sg47
I10
ssI11
(dp52
g45
I6
sg46
I0
sg47
I4
ssI12
(dp53
g45
I5
sg46
I0
sg47
I3
ssI17
(dp54
g45
I7
sg46
I0
sg47
I3
ssI18
(dp55
g45
I6
sg46
I0
sg47
I9
ssI19
(dp56
g45
I6
sg46
I0
sg47
I2
ssI20
(dp57
g45
I5
sg46
I0
sg47
I0
ssI21
(dp58
g45
I5
sg46
I0
sg47
I0
ssI23
(dp59
g45
I7
sg46
I0
sg47
I5
ssI24
(dp60
g45
I7
sg46
I0
sg47
I9
ssI26
(dp61
g45
I6
sg46
I0
sg47
I10
ssI28
(dp62
g45
I5
sg46
I0
sg47
I6
sssI2
(dp63
I1
(dp64
g45
I7
sg46
I0
sg47
I3
ssI3
(dp65
g45
I8
sg46
I0
sg47
I9
ssI4
(dp66
g45
I8
sg46
I0
sg47
I7
ssI5
(dp67
g45
I8
sg46
I0
sg47
I8
ssI6
(dp68
g45
I5
sg46
I0
sg47
I4
ssI7
(dp69
g45
I7
sg46
I0
sg47
I5
ssI9
(dp70
g45
I8
sg46
I0
sg47
I7
ssI13
(dp71
g45
I8
sg46
I0
sg47
I3
ssI15
(dp72
g45
I6
sg46
I0
sg47
I3
ssI16
(dp73
g45
I8
sg46
I0
sg47
I8
ssI17
(dp74
g45
I5
sg46
I0
sg47
I8
ssI18
(dp75
g45
I6
sg46
I0
sg47
I10
ssI19
(dp76
g45
I5
sg46
I0
sg47
I1
ssI20
(dp77
g45
I6
sg46
I0
sg47
I7
ssI22
(dp78
g45
I8
sg46
I0
sg47
I7
ssI25
(dp79
g45
I5
sg46
I0
sg47
I4
ssI26
(dp80
g45
I5
sg46
I0
sg47
I4
ssI27
(dp81
g45
I8
sg46
I0
sg47
I1
ssI29
(dp82
g45
I8
sg46
I0
sg47
I0
sssI3
(dp83
I1
(dp84
g45
I6
sg46
I0
sg47
I8
ssI2
(dp85
g45
I8
sg46
I0
sg47
I9
ssI5
(dp86
g45
I6
sg46
I0
sg47
I0
ssI8
(dp87
g45
I8
sg46
I0
sg47
I2
ssI9
(dp88
g45
I8
sg46
I0
sg47
I1
ssI10
(dp89
g45
I5
sg46
I0
sg47
I9
ssI11
(dp90
g45
I7
sg46
I0
sg47
I5
ssI12
(dp91
g45
I6
sg46
I0
sg47
I7
ssI13
(dp92
g45
I6
sg46
I0
sg47
I4
ssI15
(dp93
g45
I6
sg46
I0
sg47
I2
ssI16
(dp94
g45
I5
sg46
I0
sg47
I10
ssI17
(dp95
g45
I8
sg46
I0
sg47
I2
ssI19
(dp96
g45
I7
sg46
I0
sg47
I5
ssI23
(dp97
g45
I5
sg46
I0
sg47
I8
ssI24
(dp98
g45
I7
sg46
I0
sg47
I6
ssI25
(dp99
g45
I5
sg46
I0
sg47
I6
ssI27
(dp100
g45
I5
sg46
I0
sg47
I4
ssI30
(dp101
g45
I7
sg46
I0
sg47
I4
sssI4
(dp102
I1
(dp103
g45
I5
sg46
I0
sg47
I4
ssI2
(dp104
g45
I8
sg46
I0
sg47
I4
ssI6
(dp105
g45
I7
sg46
I0
sg47
I6
ssI7
(dp106
g45
I7
sg46
I0
sg47
I3
ssI9
(dp107
g45
I7
sg46
I0
sg47
I0
ssI10
(dp108
g45
I6
sg46
I0
sg47
I3
ssI12
(dp109
g45
I5
sg46
I0
sg47
I6
ssI13
(dp110
g45
I6
sg46
I0
sg47
I9
ssI17
(dp111
g45
I5
sg46
I0
sg47
I9
ssI19
(dp112
g45
I7
sg46
I0
sg47
I7
ssI21
(dp113
g45
I7
sg46
I0
sg47
I2
ssI24
(dp114
g45
I7
sg46
I0
sg47
I5
sssI5
(dp115
I2
(dp116
g45
I6
sg46
I0
sg47
I4
ssI9
(dp117
g45
I7
sg46
I0
sg47
I5
ssI10
(dp118
g45
I8
sg46
I0
sg47
I2
ssI14
(dp119
g45
I5
sg46
I0
sg47
I4
ssI18
(dp120
g45
I8
sg46
I0
sg47
I3
ssI21
(dp121
g45
I6
sg46
I0
sg47
I3
ssI22
(dp122
g45
I6
sg46
I0
sg47
I2
ssI24
(dp123
g45
I6
sg46
I0
sg47
I8
ssI27
(dp124
g45
I8
sg46
I0
sg47
I3
sssI6
(dp125
I2
(dp126
g45
I6
sg46
I0
sg47
I1
ssI4
(dp127
g45
I6
sg46
I0
sg47
I4
ssI7
(dp128
g45
I8
sg46
I0
sg47
I6
ssI9
(dp129
g45
I7
sg46
I0
sg47
I4
ssI10
(dp130
g45
I7
sg46
I0
sg47
I0
ssI12
(dp131
g45
I8
sg46
I0
sg47
I2
ssI15
(dp132
g45
I6
sg46
I0
sg47
I9
ssI16
(dp133
g45
I6
sg46
I0
sg47
I7
ssI17
(dp134
g45
I8
sg46
I0
sg47
I4
ssI18
(dp135
g45
I6
sg46
I0
sg47
I0
ssI20
(dp136
g45
I7
sg46
I0
sg47
I6
ssI21
(dp137
g45
I8
sg46
I0
sg47
I3
ssI23
(dp138
g45
I8
sg46
I0
sg47
I9
ssI24
(dp139
g45
I8
sg46
I0
sg47
I2
ssI25
(dp140
g45
I5
sg46
I0
sg47
I7
ssI27
(dp141
g45
I6
sg46
I0
sg47
I9
ssI30
(dp142
g45
I6
sg46
I0
sg47
I9
sssI7
(dp143
I1
(dp144
g45
I8
sg46
I0
sg47
I9
ssI3
(dp145
g45
I6
sg46
I0
sg47
I0
ssI10
(dp146
g45
I8
sg46
I0
sg47
I6
ssI13
(dp147
g45
I8
sg46
I0
sg47
I1
ssI14
(dp148
g45
I6
sg46
I0
sg47
I4
ssI15
(dp149
g45
I7
sg46
I0
sg47
I4
ssI18
(dp150
g45
I8
sg46
I0
sg47
I4
ssI19
(dp151
g45
I7
sg46
I0
sg47
I4
ssI22
(dp152
g45
I7
sg46
I0
sg47
I8
ssI25
(dp153
g45
I8
sg46
I0
sg47
I0
ssI29
(dp154
g45
I6
sg46
I0
sg47
I4
ssI30
(dp155
g45
I5
sg46
I0
sg47
I9
sssI8
(dp156
I1
(dp157
g45
I8
sg46
I0
sg47
I9
ssI3
(dp158
g45
I7
sg46
I0
sg47
I2
ssI4
(dp159
g45
I8
sg46
I0
sg47
I5
ssI7
(dp160
g45
I7
sg46
I0
sg47
I8
ssI9
(dp161
g45
I7
sg46
I0
sg47
I2
ssI10
(dp162
g45
I5
sg46
I0
sg47
I5
ssI15
(dp163
g45
I8
sg46
I0
sg47
I3
ssI16
(dp164
g45
I5
sg46
I0
sg47
I2
ssI18
(dp165
g45
I5
sg46
I0
sg47
I4
ssI19
(dp166
g45
I6
sg46
I0
sg47
I6
ssI21
(dp167
g45
I7
sg46
I0
sg47
I5
ssI22
(dp168
g45
I8
sg46
I0
sg47
I3
ssI23
(dp169
g45
I7
sg46
I0
sg47
I3
ssI24
(dp170
g45
I6
sg46
I0
sg47
I9
ssI27
(dp171
g45
I8
sg46
I0
sg47
I1
ssI30
(dp172
g45
I7
sg46
I0
sg47
I2
sssI9
(dp173
I1
(dp174
g45
I7
sg46
I0
sg47
I8
ssI2
(dp175
g45
I6
sg46
I0
sg47
I7
ssI4
(dp176
g45
I7
sg46
I0
sg47
I4
ssI7
(dp177
g45
I5
sg46
I0
sg47
I2
ssI8
(dp178
g45
I5
sg46
I0
sg47
I9
ssI13
(dp179
g45
I6
sg46
I0
sg47
I3
ssI14
(dp180
g45
I8
sg46
I0
sg47
I2
ssI15
(dp181
g45
I6
sg46
I0
sg47
I4
ssI17
(dp182
g45
I6
sg46
I0
sg47
I4
ssI18
(dp183
g45
I5
sg46
I0
sg47
I8
ssI23
(dp184
g45
I7
sg46
I0
sg47
I1
ssI27
(dp185
g45
I6
sg46
I0
sg47
I8
ssI28
(dp186
g45
I8
sg46
I0
sg47
I4
sssI10
(dp187
I1
(dp188
g45
I7
sg46
I0
sg47
I7
ssI2
(dp189
g45
I7
sg46
I0
sg47
I0
ssI3
(dp190
g45
I5
sg46
I0
sg47
I8
ssI4
(dp191
g45
I7
sg46
I0
sg47
I5
ssI6
(dp192
g45
I6
sg46
I0
sg47
I10
ssI9
(dp193
g45
I6
sg46
I0
sg47
I5
ssI12
(dp194
g45
I6
sg46
I0
sg47
I6
ssI13
(dp195
g45
I6
sg46
I0
sg47
I7
ssI14
(dp196
g45
I5
sg46
I0
sg47
I5
ssI15
(dp197
g45
I5
sg46
I0
sg47
I9
ssI18
(dp198
g45
I7
sg46
I0
sg47
I7
ssI19
(dp199
g45
I8
sg46
I0
sg47
I9
ssI21
(dp200
g45
I7
sg46
I0
sg47
I7
ssI23
(dp201
g45
I6
sg46
I0
sg47
I1
ssI25
(dp202
g45
I8
sg46
I0
sg47
I8
ssI26
(dp203
g45
I8
sg46
I0
sg47
I2
ssI28
(dp204
g45
I8
sg46
I0
sg47
I4
ssI29
(dp205
g45
I6
sg46
I0
sg47
I10
ssI30
(dp206
g45
I6
sg46
I0
sg47
I6
sssI11
(dp207
I2
(dp208
g45
I5
sg46
I0
sg47
I4
ssI3
(dp209
g45
I5
sg46
I0
sg47
I6
ssI5
(dp210
g45
I5
sg46
I0
sg47
I8
ssI7
(dp211
g45
I5
sg46
I0
sg47
I3
ssI8
(dp212
g45
I8
sg46
I0
sg47
I4
ssI9
(dp213
g45
I8
sg46
I0
sg47
I4
ssI10
(dp214
g45
I8
sg46
I0
sg47
I0
ssI13
(dp215
g45
I6
sg46
I0
sg47
I8
ssI16
(dp216
g45
I7
sg46
I0
sg47
I5
ssI21
(dp217
g45
I7
sg46
I0
sg47
I1
ssI22
(dp218
g45
I6
sg46
I0
sg47
I6
ssI23
(dp219
g45
I6
sg46
I0
sg47
I10
ssI26
(dp220
g45
I8
sg46
I0
sg47
I9
ssI29
(dp221
g45
I7
sg46
I0
sg47
I4
sssI12
(dp222
I5
(dp223
g45
I5
sg46
I0
sg47
I1
ssI8
(dp224
g45
I8
sg46
I0
sg47
I3
ssI9
(dp225
g45
I6
sg46
I0
sg47
I3
ssI11
(dp226
g45
I6
sg46
I0
sg47
I3
ssI15
(dp227
g45
I5
sg46
I0
sg47
I8
ssI16
(dp228
g45
I8
sg46
I0
sg47
I8
ssI17
(dp229
g45
I8
sg46
I0
sg47
I1
ssI20
(dp230
g45
I7
sg46
I0
sg47
I2
ssI23
(dp231
g45
I6
sg46
I0
sg47
I9
ssI24
(dp232
g45
I8
sg46
I0
sg47
I1
ssI25
(dp233
g45
I8
sg46
I0
sg47
I9
ssI26
(dp234
g45
I6
sg46
I0
sg47
I6
ssI29
(dp235
g45
I6
sg46
I0
sg47
I6
ssI30
(dp236
g45
I6
sg46
I0
sg47
I9
sssI13
(dp237
I3
(dp238
g45
I6
sg46
I0
sg47
I7
ssI5
(dp239
g45
I5
sg46
I0
sg47
I9
ssI6
(dp240
g45
I6
sg46
I0
sg47
I6
ssI8
(dp241
g45
I5
sg46
I0
sg47
I3
ssI12
(dp242
g45
I8
sg46
I0
sg47
I10
ssI15
(dp243
g45
I5
sg46
I0
sg47
I5
ssI18
(dp244
g45
I8
sg46
I0
sg47
I9
ssI19
(dp245
g45
I5
sg46
I0
sg47
I5
ssI20
(dp246
g45
I7
sg46
I0
sg47
I10
ssI22
(dp247
g45
I6
sg46
I0
sg47
I8
ssI23
(dp248
g45
I7
sg46
I0
sg47
I6
ssI24
(dp249
g45
I8
sg46
I0
sg47
I1
ssI25
(dp250
g45
I6
sg46
I0
sg47
I0
sssI14
(dp251
I3
(dp252
g45
I7
sg46
I0
sg47
I10
ssI6
(dp253
g45
I8
sg46
I0
sg47
I4
ssI8
(dp254
g45
I6
sg46
I0
sg47
I9
ssI10
(dp255
g45
I8
sg46
I0
sg47
I0
ssI12
(dp256
g45
I7
sg46
I0
sg47
I8
ssI15
(dp257
g45
I5
sg46
I0
sg47
I6
ssI18
(dp258
g45
I7
sg46
I0
sg47
I4
ssI19
(dp259
g45
I6
sg46
I0
sg47
I7
ssI21
(dp260
g45
I6
sg46
I0
sg47
I5
ssI23
(dp261
g45
I8
sg46
I0
sg47
I4
ssI25
(dp262
g45
I8
sg46
I0
sg47
I10
ssI27
(dp263
g45
I5
sg46
I0
sg47
I6
ssI29
(dp264
g45
I7
sg46
I0
sg47
I5
sssI15
(dp265
I2
(dp266
g45
I6
sg46
I0
sg47
I7
ssI3
(dp267
g45
I5
sg46
I0
sg47
I1
ssI4
(dp268
g45
I8
sg46
I0
sg47
I8
ssI5
(dp269
g45
I7
sg46
I0
sg47
I10
ssI6
(dp270
g45
I7
sg46
I0
sg47
I8
ssI8
(dp271
g45
I7
sg46
I0
sg47
I10
ssI10
(dp272
g45
I5
sg46
I0
sg47
I6
ssI11
(dp273
g45
I5
sg46
I0
sg47
I1
ssI18
(dp274
g45
I6
sg46
I0
sg47
I4
ssI19
(dp275
g45
I8
sg46
I0
sg47
I2
ssI21
(dp276
g45
I5
sg46
I0
sg47
I6
ssI23
(dp277
g45
I7
sg46
I0
sg47
I10
ssI25
(dp278
g45
I7
sg46
I0
sg47
I3
ssI27
(dp279
g45
I5
sg46
I0
sg47
I6
ssI28
(dp280
g45
I6
sg46
I0
sg47
I5
ssI29
(dp281
g45
I8
sg46
I0
sg47
I1
ssI30
(dp282
g45
I8
sg46
I0
sg47
I3
sssI16
(dp283
I3
(dp284
g45
I5
sg46
I0
sg47
I9
ssI4
(dp285
g45
I8
sg46
I0
sg47
I5
ssI8
(dp286
g45
I8
sg46
I0
sg47
I10
ssI9
(dp287
g45
I6
sg46
I0
sg47
I7
ssI10
(dp288
g45
I5
sg46
I0
sg47
I6
ssI14
(dp289
g45
I8
sg46
I0
sg47
I0
ssI15
(dp290
g45
I5
sg46
I0
sg47
I10
ssI17
(dp291
g45
I5
sg46
I0
sg47
I10
ssI18
(dp292
g45
I8
sg46
I0
sg47
I2
ssI19
(dp293
g45
I5
sg46
I0
sg47
I4
ssI20
(dp294
g45
I7
sg46
I0
sg47
I10
ssI22
(dp295
g45
I7
sg46
I0
sg47
I6
ssI23
(dp296
g45
I6
sg46
I0
sg47
I5
ssI24
(dp297
g45
I7
sg46
I0
sg47
I6
ssI26
(dp298
g45
I5
sg46
I0
sg47
I9
ssI27
(dp299
g45
I5
sg46
I0
sg47
I4
ssI28
(dp300
g45
I6
sg46
I0
sg47
I5
ssI29
(dp301
g45
I6
sg46
I0
sg47
I7
sssI17
(dp302
I1
(dp303
g45
I7
sg46
I0
sg47
I4
ssI5
(dp304
g45
I7
sg46
I0
sg47
I1
ssI7
(dp305
g45
I8
sg46
I0
sg47
I4
ssI8
(dp306
g45
I7
sg46
I0
sg47
I10
ssI9
(dp307
g45
I5
sg46
I0
sg47
I6
ssI11
(dp308
g45
I7
sg46
I0
sg47
I4
ssI12
(dp309
g45
I6
sg46
I0
sg47
I0
ssI13
(dp310
g45
I5
sg46
I0
sg47
I5
ssI14
(dp311
g45
I7
sg46
I0
sg47
I0
ssI15
(dp312
g45
I5
sg46
I0
sg47
I3
ssI19
(dp313
g45
I8
sg46
I0
sg47
I2
ssI21
(dp314
g45
I7
sg46
I0
sg47
I1
ssI23
(dp315
g45
I7
sg46
I0
sg47
I7
ssI24
(dp316
g45
I5
sg46
I0
sg47
I4
ssI27
(dp317
g45
I8
sg46
I0
sg47
I7
ssI29
(dp318
g45
I8
sg46
I0
sg47
I1
sssI18
(dp319
I1
(dp320
g45
I6
sg46
I0
sg47
I8
ssI3
(dp321
g45
I8
sg46
I0
sg47
I3
ssI7
(dp322
g45
I8
sg46
I0
sg47
I8
ssI8
(dp323
g45
I6
sg46
I0
sg47
I0
ssI9
(dp324
g45
I6
sg46
I0
sg47
I10
ssI11
(dp325
g45
I6
sg46
I0
sg47
I1
ssI12
(dp326
g45
I5
sg46
I0
sg47
I3
ssI14
(dp327
g45
I6
sg46
I0
sg47
I2
ssI15
(dp328
g45
I8
sg46
I0
sg47
I7
ssI16
(dp329
g45
I6
sg46
I0
sg47
I7
ssI19
(dp330
g45
I8
sg46
I0
sg47
I10
ssI22
(dp331
g45
I8
sg46
I0
sg47
I4
ssI27
(dp332
g45
I8
sg46
I0
sg47
I7
ssI28
(dp333
g45
I8
sg46
I0
sg47
I9
ssI30
(dp334
g45
I5
sg46
I0
sg47
I5
sssI19
(dp335
I5
(dp336
g45
I6
sg46
I0
sg47
I4
ssI7
(dp337
g45
I6
sg46
I0
sg47
I9
ssI8
(dp338
g45
I8
sg46
I0
sg47
I10
ssI10
(dp339
g45
I7
sg46
I0
sg47
I7
ssI12
(dp340
g45
I5
sg46
I0
sg47
I1
ssI14
(dp341
g45
I8
sg46
I0
sg47
I4
ssI16
(dp342
g45
I6
sg46
I0
sg47
I1
ssI22
(dp343
g45
I5
sg46
I0
sg47
I10
ssI23
(dp344
g45
I6
sg46
I0
sg47
I1
ssI26
(dp345
g45
I5
sg46
I0
sg47
I3
ssI27
(dp346
g45
I8
sg46
I0
sg47
I3
ssI28
(dp347
g45
I6
sg46
I0
sg47
I0
sssI20
(dp348
I2
(dp349
g45
I7
sg46
I0
sg47
I3
ssI3
(dp350
g45
I7
sg46
I0
sg47
I10
ssI4
(dp351
g45
I8
sg46
I0
sg47
I9
ssI7
(dp352
g45
I5
sg46
I0
sg47
I0
ssI8
(dp353
g45
I5
sg46
I0
sg47
I9
ssI10
(dp354
g45
I7
sg46
I0
sg47
I6
ssI11
(dp355
g45
I7
sg46
I0
sg47
I0
ssI13
(dp356
g45
I7
sg46
I0
sg47
I1
ssI14
(dp357
g45
I6
sg46
I0
sg47
I7
ssI15
(dp358
g45
I7
sg46
I0
sg47
I4
ssI17
(dp359
g45
I7
sg46
I0
sg47
I8
ssI21
(dp360
g45
I7
sg46
I0
sg47
I9
ssI24
(dp361
g45
I5
sg46
I0
sg47
I9
ssI29
(dp362
g45
I8
sg46
I0
sg47
I2
sssI21
(dp363
I4
(dp364
g45
I5
sg46
I0
sg47
I4
ssI5
(dp365
g45
I5
sg46
I0
sg47
I7
ssI6
(dp366
g45
I5
sg46
I0
sg47
I0
ssI7
(dp367
g45
I5
sg46
I0
sg47
I7
ssI10
(dp368
g45
I6
sg46
I0
sg47
I2
ssI13
(dp369
g45
I8
sg46
I0
sg47
I3
ssI14
(dp370
g45
I5
sg46
I0
sg47
I0
ssI16
(dp371
g45
I8
sg46
I0
sg47
I0
ssI17
(dp372
g45
I8
sg46
I0
sg47
I3
ssI18
(dp373
g45
I7
sg46
I0
sg47
I1
ssI19
(dp374
g45
I7
sg46
I0
sg47
I1
ssI23
(dp375
g45
I5
sg46
I0
sg47
I2
ssI25
(dp376
g45
I8
sg46
I0
sg47
I7
ssI26
(dp377
g45
I8
sg46
I0
sg47
I3
ssI27
(dp378
g45
I6
sg46
I0
sg47
I6
ssI28
(dp379
g45
I8
sg46
I0
sg47
I7
ssI30
(dp380
g45
I8
sg46
I0
sg47
I3
sssI22
(dp381
I1
(dp382
g45
I6
sg46
I0
sg47
I3
ssI4
(dp383
g45
I6
sg46
I0
sg47
I4
ssI9
(dp384
g45
I8
sg46
I0
sg47
I2
ssI10
(dp385
g45
I5
sg46
I0
sg47
I7
ssI12
(dp386
g45
I6
sg46
I0
sg47
I4
ssI13
(dp387
g45
I5
sg46
I0
sg47
I9
ssI14
(dp388
g45
I8
sg46
I0
sg47
I2
ssI15
(dp389
g45
I6
sg46
I0
sg47
I9
ssI16
(dp390
g45
I6
sg46
I0
sg47
I5
ssI18
(dp391
g45
I7
sg46
I0
sg47
I2
ssI20
(dp392
g45
I7
sg46
I0
sg47
I7
ssI27
(dp393
g45
I8
sg46
I0
sg47
I7
ssI28
(dp394
g45
I7
sg46
I0
sg47
I6
ssI30
(dp395
g45
I8
sg46
I0
sg47
I4
sssI23
(dp396
I2
(dp397
g45
I6
sg46
I0
sg47
I7
ssI5
(dp398
g45
I5
sg46
I0
sg47
I0
ssI6
(dp399
g45
I6
sg46
I0
sg47
I7
ssI7
(dp400
g45
I8
sg46
I0
sg47
I6
ssI8
(dp401
g45
I5
sg46
I0
sg47
I7
ssI9
(dp402
g45
I8
sg46
I0
sg47
I0
ssI10
(dp403
g45
I6
sg46
I0
sg47
I8
ssI12
(dp404
g45
I8
sg46
I0
sg47
I2
ssI13
(dp405
g45
I6
sg46
I0
sg47
I2
ssI14
(dp406
g45
I5
sg46
I0
sg47
I7
ssI15
(dp407
g45
I6
sg46
I0
sg47
I5
ssI16
(dp408
g45
I8
sg46
I0
sg47
I2
ssI17
(dp409
g45
I7
sg46
I0
sg47
I6
ssI19
(dp410
g45
I5
sg46
I0
sg47
I3
ssI20
(dp411
g45
I6
sg46
I0
sg47
I6
ssI25
(dp412
g45
I8
sg46
I0
sg47
I3
ssI29
(dp413
g45
I6
sg46
I0
sg47
I0
ssI30
(dp414
g45
I6
sg46
I0
sg47
I0
sssI24
(dp415
I1
(dp416
g45
I7
sg46
I0
sg47
I4
ssI2
(dp417
g45
I8
sg46
I0
sg47
I10
ssI5
(dp418
g45
I8
sg46
I0
sg47
I8
ssI8
(dp419
g45
I6
sg46
I0
sg47
I6
ssI11
(dp420
g45
I5
sg46
I0
sg47
I3
ssI13
(dp421
g45
I6
sg46
I0
sg47
I5
ssI14
(dp422
g45
I5
sg46
I0
sg47
I1
ssI16
(dp423
g45
I6
sg46
I0
sg47
I7
ssI19
(dp424
g45
I8
sg46
I0
sg47
I1
sssI25
(dp425
I2
(dp426
g45
I6
sg46
I0
sg47
I9
ssI3
(dp427
g45
I8
sg46
I0
sg47
I9
ssI5
(dp428
g45
I6
sg46
I0
sg47
I4
ssI7
(dp429
g45
I5
sg46
I0
sg47
I4
ssI10
(dp430
g45
I5
sg46
I0
sg47
I8
ssI12
(dp431
g45
I8
sg46
I0
sg47
I9
ssI14
(dp432
g45
I7
sg46
I0
sg47
I10
ssI15
(dp433
g45
I8
sg46
I0
sg47
I10
ssI16
(dp434
g45
I7
sg46
I0
sg47
I7
ssI19
(dp435
g45
I5
sg46
I0
sg47
I1
ssI20
(dp436
g45
I7
sg46
I0
sg47
I10
ssI21
(dp437
g45
I6
sg46
I0
sg47
I0
ssI23
(dp438
g45
I8
sg46
I0
sg47
I1
ssI24
(dp439
g45
I8
sg46
I0
sg47
I1
ssI27
(dp440
g45
I6
sg46
I0
sg47
I10
ssI28
(dp441
g45
I6
sg46
I0
sg47
I1
ssI29
(dp442
g45
I8
sg46
I0
sg47
I9
sssI26
(dp443
I2
(dp444
g45
I7
sg46
I0
sg47
I7
ssI8
(dp445
g45
I5
sg46
I0
sg47
I3
ssI11
(dp446
g45
I7
sg46
I0
sg47
I9
ssI12
(dp447
g45
I8
sg46
I0
sg47
I4
ssI16
(dp448
g45
I7
sg46
I0
sg47
I3
ssI20
(dp449
g45
I6
sg46
I0
sg47
I9
ssI22
(dp450
g45
I8
sg46
I0
sg47
I10
ssI23
(dp451
g45
I6
sg46
I0
sg47
I4
ssI28
(dp452
g45
I8
sg46
I0
sg47
I6
ssI30
(dp453
g45
I8
sg46
I0
sg47
I8
sssI27
(dp454
I2
(dp455
g45
I8
sg46
I0
sg47
I8
ssI3
(dp456
g45
I7
sg46
I0
sg47
I2
ssI4
(dp457
g45
I7
sg46
I0
sg47
I3
ssI5
(dp458
g45
I6
sg46
I0
sg47
I9
ssI8
(dp459
g45
I5
sg46
I0
sg47
I9
ssI12
(dp460
g45
I5
sg46
I0
sg47
I0
ssI13
(dp461
g45
I7
sg46
I0
sg47
I9
ssI15
(dp462
g45
I5
sg46
I0
sg47
I6
ssI16
(dp463
g45
I7
sg46
I0
sg47
I1
ssI17
(dp464
g45
I5
sg46
I0
sg47
I9
ssI23
(dp465
g45
I7
sg46
I0
sg47
I8
ssI24
(dp466
g45
I7
sg46
I0
sg47
I7
ssI25
(dp467
g45
I7
sg46
I0
sg47
I3
ssI26
(dp468
g45
I7
sg46
I0
sg47
I3
ssI30
(dp469
g45
I5
sg46
I0
sg47
I3
sssI28
(dp470
I1
(dp471
g45
I7
sg46
I0
sg47
I8
ssI3
(dp472
g45
I8
sg46
I0
sg47
I1
ssI4
(dp473
g45
I8
sg46
I0
sg47
I5
ssI9
(dp474
g45
I7
sg46
I0
sg47
I10
ssI11
(dp475
g45
I6
sg46
I0
sg47
I1
ssI16
(dp476
g45
I8
sg46
I0
sg47
I3
ssI18
(dp477
g45
I6
sg46
I0
sg47
I8
ssI19
(dp478
g45
I6
sg46
I0
sg47
I5
ssI21
(dp479
g45
I7
sg46
I0
sg47
I6
ssI23
(dp480
g45
I5
sg46
I0
sg47
I8
ssI24
(dp481
g45
I7
sg46
I0
sg47
I3
sssI29
(dp482
I5
(dp483
g45
I7
sg46
I0
sg47
I8
ssI6
(dp484
g45
I8
sg46
I0
sg47
I4
ssI7
(dp485
g45
I8
sg46
I0
sg47
I0
ssI8
(dp486
g45
I8
sg46
I0
sg47
I5
ssI12
(dp487
g45
I8
sg46
I0
sg47
I4
ssI17
(dp488
g45
I8
sg46
I0
sg47
I5
ssI18
(dp489
g45
I5
sg46
I0
sg47
I2
ssI20
(dp490
g45
I7
sg46
I0
sg47
I1
ssI22
(dp491
g45
I7
sg46
I0
sg47
I2
ssI24
(dp492
g45
I8
sg46
I0
sg47
I7
ssI27
(dp493
g45
I7
sg46
I0
sg47
I8
sssI30
(dp494
I2
(dp495
g45
I5
sg46
I0
sg47
I2
ssI3
(dp496
g45
I8
sg46
I0
sg47
I5
ssI4
(dp497
g45
I7
sg46
I0
sg47
I0
ssI5
(dp498
g45
I5
sg46
I0
sg47
I5
ssI6
(dp499
g45
I7
sg46
I0
sg47
I10
ssI9
(dp500
g45
I6
sg46
I0
sg47
I10
ssI10
(dp501
g45
I5
sg46
I0
sg47
I10
ssI11
(dp502
g45
I5
sg46
I0
sg47
I1
ssI12
(dp503
g45
I7
sg46
I0
sg47
I3
ssI15
(dp504
g45
I6
sg46
I0
sg47
I4
ssI16
(dp505
g45
I8
sg46
I0
sg47
I9
ssI18
(dp506
g45
I5
sg46
I0
sg47
I10
ssI19
(dp507
g45
I6
sg46
I0
sg47
I2
ssI20
(dp508
g45
I5
sg46
I0
sg47
I5
ssI24
(dp509
g45
I5
sg46
I0
sg47
I3
ssI27
(dp510
g45
I7
sg46
I0
sg47
I0
ssssS'edge'
p511
g42
sS'pred'
p512
(dp513
I1
(dp514
I2
g64
sI3
g84
sI4
g103
sI7
g144
sI8
g157
sI9
g174
sI10
g188
sI17
g303
sI18
g320
sI22
g382
sI24
g416
sI28
g471
ssI2
(dp515
I3
g85
sI4
g104
sI5
g116
sI6
g126
sI9
g175
sI10
g189
sI11
g208
sI15
g266
sI20
g349
sI23
g397
sI24
g417
sI25
g426
sI26
g444
sI27
g455
sI30
g495
ssI3
(dp516
I1
g44
sI2
g65
sI7
g145
sI8
g158
sI10
g190
sI11
g209
sI13
g238
sI14
g252
sI15
g267
sI16
g284
sI18
g321
sI20
g350
sI25
g427
sI27
g456
sI28
g472
sI30
g496
ssI4
(dp517
I1
g48
sI2
g66
sI6
g127
sI8
g159
sI9
g176
sI10
g191
sI15
g268
sI16
g285
sI20
g351
sI21
g364
sI22
g383
sI27
g457
sI28
g473
sI30
g497
ssI5
(dp518
I1
g49
sI2
g67
sI3
g86
sI11
g210
sI12
g223
sI13
g239
sI15
g269
sI17
g304
sI19
g336
sI21
g365
sI23
g398
sI24
g418
sI25
g428
sI27
g458
sI29
g483
sI30
g498
ssI6
(dp519
I1
g50
sI2
g68
sI4
g105
sI10
g192
sI13
g240
sI14
g253
sI15
g270
sI21
g366
sI23
g399
sI29
g484
sI30
g499
ssI7
(dp520
I1
g51
sI2
g69
sI4
g106
sI6
g128
sI8
g160
sI9
g177
sI11
g211
sI17
g305
sI18
g322
sI19
g337
sI20
g352
sI21
g367
sI23
g400
sI25
g429
sI29
g485
ssI8
(dp521
I3
g87
sI9
g178
sI11
g212
sI12
g224
sI13
g241
sI14
g254
sI15
g271
sI16
g286
sI17
g306
sI18
g323
sI19
g338
sI20
g353
sI23
g401
sI24
g419
sI26
g445
sI27
g459
sI29
g486
ssI9
(dp522
I2
g70
sI3
g88
sI4
g107
sI5
g117
sI6
g129
sI8
g161
sI10
g193
sI11
g213
sI12
g225
sI16
g287
sI17
g307
sI18
g324
sI22
g384
sI23
g402
sI28
g474
sI30
g500
ssI10
(dp523
I3
g89
sI4
g108
sI5
g118
sI6
g130
sI7
g146
sI8
g162
sI11
g214
sI14
g255
sI15
g272
sI16
g288
sI19
g339
sI20
g354
sI21
g368
sI22
g385
sI23
g403
sI25
g430
sI30
g501
ssI11
(dp524
I1
g52
sI3
g90
sI12
g226
sI15
g273
sI17
g308
sI18
g325
sI20
g355
sI24
g420
sI26
g446
sI28
g475
sI30
g502
ssI12
(dp525
I1
g53
sI3
g91
sI4
g109
sI6
g131
sI10
g194
sI13
g242
sI14
g256
sI17
g309
sI18
g326
sI19
g340
sI22
g386
sI23
g404
sI25
g431
sI26
g447
sI27
g460
sI29
g487
sI30
g503
ssI13
(dp526
I2
g71
sI3
g92
sI4
g110
sI7
g147
sI9
g179
sI10
g195
sI11
g215
sI17
g310
sI20
g356
sI21
g369
sI22
g387
sI23
g405
sI24
g421
sI27
g461
ssI14
(dp527
I5
g119
sI7
g148
sI9
g180
sI10
g196
sI16
g289
sI17
g311
sI18
g327
sI19
g341
sI20
g357
sI21
g370
sI22
g388
sI23
g406
sI24
g422
sI25
g432
ssI15
(dp528
I2
g72
sI3
g93
sI6
g132
sI7
g149
sI8
g163
sI9
g181
sI10
g197
sI12
g227
sI13
g243
sI14
g257
sI16
g290
sI17
g312
sI18
g328
sI20
g358
sI22
g389
sI23
g407
sI25
g433
sI27
g462
sI30
g504
ssI16
(dp529
I2
g73
sI3
g94
sI6
g133
sI8
g164
sI11
g216
sI12
g228
sI18
g329
sI19
g342
sI21
g371
sI22
g390
sI23
g408
sI24
g423
sI25
g434
sI26
g448
sI27
g463
sI28
g476
sI30
g505
ssI17
(dp530
I1
g54
sI2
g74
sI3
g95
sI4
g111
sI6
g134
sI9
g182
sI12
g229
sI16
g291
sI20
g359
sI21
g372
sI23
g409
sI27
g464
sI29
g488
ssI18
(dp531
I1
g55
sI2
g75
sI5
g120
sI6
g135
sI7
g150
sI8
g165
sI9
g183
sI10
g198
sI13
g244
sI14
g258
sI15
g274
sI16
g292
sI21
g373
sI22
g391
sI28
g477
sI29
g489
sI30
g506
ssI19
(dp532
I1
g56
sI2
g76
sI3
g96
sI4
g112
sI7
g151
sI8
g166
sI10
g199
sI13
g245
sI14
g259
sI15
g275
sI16
g293
sI17
g313
sI18
g330
sI21
g374
sI23
g410
sI24
g424
sI25
g435
sI28
g478
sI30
g507
ssI20
(dp533
I1
g57
sI2
g77
sI6
g136
sI12
g230
sI13
g246
sI16
g294
sI22
g392
sI23
g411
sI25
g436
sI26
g449
sI29
g490
sI30
g508
ssI21
(dp534
I1
g58
sI4
g113
sI5
g121
sI6
g137
sI8
g167
sI10
g200
sI11
g217
sI14
g260
sI15
g276
sI17
g314
sI20
g360
sI25
g437
sI28
g479
ssI22
(dp535
I2
g78
sI5
g122
sI7
g152
sI8
g168
sI11
g218
sI13
g247
sI16
g295
sI18
g331
sI19
g343
sI26
g450
sI29
g491
ssI23
(dp536
I1
g59
sI3
g97
sI6
g138
sI8
g169
sI9
g184
sI10
g201
sI11
g219
sI12
g231
sI13
g248
sI14
g261
sI15
g277
sI16
g296
sI17
g315
sI19
g344
sI21
g375
sI25
g438
sI26
g451
sI27
g465
sI28
g480
ssI24
(dp537
I1
g60
sI3
g98
sI4
g114
sI5
g123
sI6
g139
sI8
g170
sI12
g232
sI13
g249
sI16
g297
sI17
g316
sI20
g361
sI25
g439
sI27
g466
sI28
g481
sI29
g492
sI30
g509
ssI25
(dp538
I2
g79
sI3
g99
sI6
g140
sI7
g153
sI10
g202
sI12
g233
sI13
g250
sI14
g262
sI15
g278
sI21
g376
sI23
g412
sI27
g467
ssI26
(dp539
I1
g61
sI2
g80
sI10
g203
sI11
g220
sI12
g234
sI16
g298
sI19
g345
sI21
g377
sI27
g468
ssI27
(dp540
I2
g81
sI3
g100
sI5
g124
sI6
g141
sI8
g171
sI9
g185
sI14
g263
sI15
g279
sI16
g299
sI17
g317
sI18
g332
sI19
g346
sI21
g378
sI22
g393
sI25
g440
sI29
g493
sI30
g510
ssI28
(dp541
I1
g62
sI9
g186
sI10
g204
sI15
g280
sI16
g300
sI18
g333
sI19
g347
sI21
g379
sI22
g394
sI25
g441
sI26
g452
ssI29
(dp542
I2
g82
sI7
g154
sI10
g205
sI11
g221
sI12
g235
sI14
g264
sI15
g281
sI16
g301
sI17
g318
sI20
g362
sI23
g413
sI25
g442
ssI30
(dp543
I3
g101
sI6
g142
sI7
g155
sI8
g172
sI10
g206
sI12
g236
sI15
g282
sI18
g334
sI21
g380
sI22
g395
sI23
g414
sI26
g453
sI27
g469
sssS'adj'
p544
g42
sb.