ccopy_reg
_reconstructor
p1
(cnetworkx.classes.digraph
DiGraph
p2
c__builtin__
object
p3
NtRp4
(dp5
S'node'
p6
(dp7
I1
(dp8
S'demand'
p9
I3
ssI2
(dp10
g9
I3
ssI3
(dp11
g9
I7
ssI4
(dp12
g9
I10
ssI5
(dp13
g9
I6
ssI6
(dp14
g9
I5
ssI7
(dp15
g9
I8
ssI8
(dp16
g9
I3
ssI9
(dp17
g9
I2
ssI10
(dp18
g9
I1
ssI11
(dp19
g9
I4
ssI12
(dp20
g9
I9
ssI13
(dp21
g9
I1
ssI14
(dp22
g9
I2
ssI15
(dp23
g9
I1
ssI16
(dp24
g9
I0
ssI17
(dp25
g9
I0
ssI18
(dp26
g9
I0
ssI19
(dp27
g9
I0
ssI20
(dp28
g9
I0
ssI21
(dp29
g9
I0
ssI22
(dp30
g9
I0
ssI23
(dp31
g9
I0
ssI24
(dp32
g9
I0
ssI25
(dp33
g9
I0
ssI26
(dp34
g9
I0
ssI27
(dp35
g9
I0
ssI28
(dp36
g9
I0
ssI29
(dp37
g9
I0
ssI30
(dp38
g9
I-65
sssS'graph'
p39
(dp40
sS'succ'
p41
(dp42
I1
(dp43
I25
(dp44
S'capacity'
p45
I6
sS'fluxo'
p46
I0
sS'weight'
p47
I6
ssI27
(dp48
g45
I7
sg46
I0
sg47
I10
ssI5
(dp49
g45
I8
sg46
I0
sg47
I4
ssI29
(dp50
g45
I6
sg46
I0
sg47
I3
sssI2
(dp51
I5
(dp52
g45
I6
sg46
I0
sg47
I4
ssI6
(dp53
g45
I7
sg46
I0
sg47
I0
ssI18
(dp54
g45
I7
sg46
I0
sg47
I10
ssI22
(dp55
g45
I8
sg46
I0
sg47
I3
ssI23
(dp56
g45
I8
sg46
I0
sg47
I6
ssI30
(dp57
g45
I6
sg46
I0
sg47
I6
sssI3
(dp58
I4
(dp59
g45
I7
sg46
I0
sg47
I9
ssI8
(dp60
g45
I7
sg46
I0
sg47
I5
ssI11
(dp61
g45
I5
sg46
I0
sg47
I6
ssI15
(dp62
g45
I5
sg46
I0
sg47
I7
ssI20
(dp63
g45
I5
sg46
I0
sg47
I10
ssI23
(dp64
g45
I5
sg46
I0
sg47
I1
ssI25
(dp65
g45
I6
sg46
I0
sg47
I10
ssI28
(dp66
g45
I8
sg46
I0
sg47
I9
sssI4
(dp67
I7
(dp68
g45
I6
sg46
I0
sg47
I3
ssI18
(dp69
g45
I6
sg46
I0
sg47
I9
ssI20
(dp70
g45
I7
sg46
I0
sg47
I5
ssI22
(dp71
g45
I5
sg46
I0
sg47
I3
ssI24
(dp72
g45
I5
sg46
I0
sg47
I5
ssI26
(dp73
g45
I6
sg46
I0
sg47
I5
sssI5
(dp74
I4
(dp75
g45
I8
sg46
I0
sg47
I6
ssI7
(dp76
g45
I7
sg46
I0
sg47
I5
ssI11
(dp77
g45
I7
sg46
I0
sg47
I4
ssI13
(dp78
g45
I7
sg46
I0
sg47
I7
ssI18
(dp79
g45
I8
sg46
I0
sg47
I10
ssI24
(dp80
g45
I6
sg46
I0
sg47
I0
ssI26
(dp81
g45
I7
sg46
I0
sg47
I2
ssI28
(dp82
g45
I8
sg46
I0
sg47
I10
sssI6
(dp83
I1
(dp84
g45
I8
sg46
I0
sg47
I10
ssI7
(dp85
g45
I5
sg46
I0
sg47
I4
ssI8
(dp86
g45
I7
sg46
I0
sg47
I0
ssI11
(dp87
g45
I8
sg46
I0
sg47
I8
ssI14
(dp88
g45
I7
sg46
I0
sg47
I3
ssI23
(dp89
g45
I8
sg46
I0
sg47
I10
ssI25
(dp90
g45
I6
sg46
I0
sg47
I0
ssI27
(dp91
g45
I6
sg46
I0
sg47
I5
sssI7
(dp92
I3
(dp93
g45
I6
sg46
I0
sg47
I4
ssI8
(dp94
g45
I6
sg46
I0
sg47
I10
ssI9
(dp95
g45
I8
sg46
I0
sg47
I0
ssI12
(dp96
g45
I5
sg46
I0
sg47
I1
ssI14
(dp97
g45
I5
sg46
I0
sg47
I3
ssI15
(dp98
g45
I5
sg46
I0
sg47
I1
ssI17
(dp99
g45
I6
sg46
I0
sg47
I2
ssI18
(dp100
g45
I7
sg46
I0
sg47
I9
ssI21
(dp101
g45
I6
sg46
I0
sg47
I5
ssI27
(dp102
g45
I6
sg46
I0
sg47
I3
ssI30
(dp103
g45
I8
sg46
I0
sg47
I8
sssI8
(dp104
I6
(dp105
g45
I5
sg46
I0
sg47
I6
ssI9
(dp106
g45
I5
sg46
I0
sg47
I7
ssI10
(dp107
g45
I8
sg46
I0
sg47
I7
ssI12
(dp108
g45
I5
sg46
I0
sg47
I7
ssI13
(dp109
g45
I7
sg46
I0
sg47
I2
ssI19
(dp110
g45
I5
sg46
I0
sg47
I2
ssI20
(dp111
g45
I5
sg46
I0
sg47
I8
ssI23
(dp112
g45
I7
sg46
I0
sg47
I0
ssI26
(dp113
g45
I5
sg46
I0
sg47
I3
ssI29
(dp114
g45
I7
sg46
I0
sg47
I1
ssI30
(dp115
g45
I5
sg46
I0
sg47
I3
sssI9
(dp116
I2
(dp117
g45
I5
sg46
I0
sg47
I6
ssI13
(dp118
g45
I5
sg46
I0
sg47
I4
ssI15
(dp119
g45
I6
sg46
I0
sg47
I3
ssI21
(dp120
g45
I6
sg46
I0
sg47
I8
ssI26
(dp121
g45
I5
sg46
I0
sg47
I0
ssI30
(dp122
g45
I6
sg46
I0
sg47
I6
sssI10
(dp123
I9
(dp124
g45
I7
sg46
I0
sg47
I8
ssI2
(dp125
g45
I5
sg46
I0
sg47
I5
ssI6
(dp126
g45
I5
sg46
I0
sg47
I3
ssI14
(dp127
g45
I8
sg46
I0
sg47
I9
ssI21
(dp128
g45
I7
sg46
I0
sg47
I10
sssI11
(dp129
I10
(dp130
g45
I6
sg46
I0
sg47
I1
ssI29
(dp131
g45
I6
sg46
I0
sg47
I6
ssI21
(dp132
g45
I8
sg46
I0
sg47
I5
sssI12
(dp133
I2
(dp134
g45
I6
sg46
I0
sg47
I1
ssI3
(dp135
g45
I8
sg46
I0
sg47
I6
ssI6
(dp136
g45
I6
sg46
I0
sg47
I9
ssI7
(dp137
g45
I6
sg46
I0
sg47
I6
ssI9
(dp138
g45
I8
sg46
I0
sg47
I2
ssI13
(dp139
g45
I6
sg46
I0
sg47
I9
ssI17
(dp140
g45
I7
sg46
I0
sg47
I5
ssI19
(dp141
g45
I6
sg46
I0
sg47
I3
ssI20
(dp142
g45
I8
sg46
I0
sg47
I6
ssI21
(dp143
g45
I7
sg46
I0
sg47
I10
ssI27
(dp144
g45
I6
sg46
I0
sg47
I4
ssI30
(dp145
g45
I5
sg46
I0
sg47
I3
sssI13
(dp146
I2
(dp147
g45
I6
sg46
I0
sg47
I1
ssI5
(dp148
g45
I7
sg46
I0
sg47
I8
ssI6
(dp149
g45
I8
sg46
I0
sg47
I8
ssI11
(dp150
g45
I6
sg46
I0
sg47
I10
ssI20
(dp151
g45
I8
sg46
I0
sg47
I0
ssI23
(dp152
g45
I5
sg46
I0
sg47
I0
ssI25
(dp153
g45
I7
sg46
I0
sg47
I2
ssI28
(dp154
g45
I8
sg46
I0
sg47
I2
sssI14
(dp155
I8
(dp156
g45
I8
sg46
I0
sg47
I4
ssI10
(dp157
g45
I5
sg46
I0
sg47
I5
ssI11
(dp158
g45
I8
sg46
I0
sg47
I4
ssI15
(dp159
g45
I6
sg46
I0
sg47
I8
ssI20
(dp160
g45
I7
sg46
I0
sg47
I1
ssI22
(dp161
g45
I6
sg46
I0
sg47
I3
ssI25
(dp162
g45
I5
sg46
I0
sg47
I1
ssI27
(dp163
g45
I6
sg46
I0
sg47
I0
ssI29
(dp164
g45
I7
sg46
I0
sg47
I1
ssI30
(dp165
g45
I8
sg46
I0
sg47
I1
sssI15
(dp166
I7
(dp167
g45
I6
sg46
I0
sg47
I5
ssI13
(dp168
g45
I6
sg46
I0
sg47
I6
ssI17
(dp169
g45
I8
sg46
I0
sg47
I5
ssI22
(dp170
g45
I7
sg46
I0
sg47
I4
ssI26
(dp171
g45
I5
sg46
I0
sg47
I4
ssI28
(dp172
g45
I8
sg46
I0
sg47
I4
ssI29
(dp173
g45
I5
sg46
I0
sg47
I0
sssI16
(dp174
I1
(dp175
g45
I8
sg46
I0
sg47
I2
ssI5
(dp176
g45
I6
sg46
I0
sg47
I2
ssI7
(dp177
g45
I8
sg46
I0
sg47
I7
ssI13
(dp178
g45
I8
sg46
I0
sg47
I4
ssI14
(dp179
g45
I7
sg46
I0
sg47
I7
ssI18
(dp180
g45
I7
sg46
I0
sg47
I1
ssI19
(dp181
g45
I5
sg46
I0
sg47
I3
ssI24
(dp182
g45
I8
sg46
I0
sg47
I7
ssI30
(dp183
g45
I7
sg46
I0
sg47
I3
sssI17
(dp184
I11
(dp185
g45
I5
sg46
I0
sg47
I6
ssI13
(dp186
g45
I5
sg46
I0
sg47
I4
ssI16
(dp187
g45
I5
sg46
I0
sg47
I10
ssI21
(dp188
g45
I5
sg46
I0
sg47
I1
ssI27
(dp189
g45
I5
sg46
I0
sg47
I10
ssI29
(dp190
g45
I5
sg46
I0
sg47
I5
ssI30
(dp191
g45
I5
sg46
I0
sg47
I8
sssI18
(dp192
I1
(dp193
g45
I6
sg46
I0
sg47
I8
ssI4
(dp194
g45
I6
sg46
I0
sg47
I6
ssI5
(dp195
g45
I6
sg46
I0
sg47
I9
ssI9
(dp196
g45
I8
sg46
I0
sg47
I0
ssI10
(dp197
g45
I7
sg46
I0
sg47
I1
ssI13
(dp198
g45
I5
sg46
I0
sg47
I7
ssI22
(dp199
g45
I5
sg46
I0
sg47
I6
ssI23
(dp200
g45
I6
sg46
I0
sg47
I9
ssI26
(dp201
g45
I8
sg46
I0
sg47
I9
ssI29
(dp202
g45
I7
sg46
I0
sg47
I2
sssI19
(dp203
I14
(dp204
g45
I8
sg46
I0
sg47
I5
ssI17
(dp205
g45
I8
sg46
I0
sg47
I9
ssI21
(dp206
g45
I5
sg46
I0
sg47
I2
ssI23
(dp207
g45
I6
sg46
I0
sg47
I4
ssI24
(dp208
g45
I5
sg46
I0
sg47
I10
ssI26
(dp209
g45
I6
sg46
I0
sg47
I1
ssI28
(dp210
g45
I5
sg46
I0
sg47
I0
sssI20
(dp211
I1
(dp212
g45
I6
sg46
I0
sg47
I5
ssI2
(dp213
g45
I6
sg46
I0
sg47
I8
ssI7
(dp214
g45
I5
sg46
I0
sg47
I1
ssI12
(dp215
g45
I8
sg46
I0
sg47
I10
ssI15
(dp216
g45
I7
sg46
I0
sg47
I6
ssI16
(dp217
g45
I6
sg46
I0
sg47
I4
ssI18
(dp218
g45
I8
sg46
I0
sg47
I0
ssI24
(dp219
g45
I7
sg46
I0
sg47
I5
sssI21
(dp220
I1
(dp221
g45
I7
sg46
I0
sg47
I1
ssI10
(dp222
g45
I5
sg46
I0
sg47
I3
sssI22
(dp223
I16
(dp224
g45
I6
sg46
I0
sg47
I0
ssI10
(dp225
g45
I7
sg46
I0
sg47
I9
ssI6
(dp226
g45
I5
sg46
I0
sg47
I2
ssI23
(dp227
g45
I8
sg46
I0
sg47
I1
sssI23
(dp228
I13
(dp229
g45
I8
sg46
I0
sg47
I3
ssI14
(dp230
g45
I5
sg46
I0
sg47
I7
ssI18
(dp231
g45
I5
sg46
I0
sg47
I10
ssI21
(dp232
g45
I5
sg46
I0
sg47
I4
ssI27
(dp233
g45
I6
sg46
I0
sg47
I1
ssI28
(dp234
g45
I6
sg46
I0
sg47
I6
ssI29
(dp235
g45
I7
sg46
I0
sg47
I5
sssI24
(dp236
I10
(dp237
g45
I5
sg46
I0
sg47
I3
ssI12
(dp238
g45
I8
sg46
I0
sg47
I1
ssI14
(dp239
g45
I7
sg46
I0
sg47
I3
ssI21
(dp240
g45
I5
sg46
I0
sg47
I2
ssI22
(dp241
g45
I5
sg46
I0
sg47
I1
ssI23
(dp242
g45
I8
sg46
I0
sg47
I7
ssI25
(dp243
g45
I5
sg46
I0
sg47
I8
ssI29
(dp244
g45
I8
sg46
I0
sg47
I9
sssI25
(dp245
I8
(dp246
g45
I8
sg46
I0
sg47
I7
ssI10
(dp247
g45
I5
sg46
I0
sg47
I4
ssI11
(dp248
g45
I7
sg46
I0
sg47
I6
ssI14
(dp249
g45
I8
sg46
I0
sg47
I2
ssI22
(dp250
g45
I6
sg46
I0
sg47
I5
ssI27
(dp251
g45
I7
sg46
I0
sg47
I6
sssI26
(dp252
I16
(dp253
g45
I7
sg46
I0
sg47
I3
ssI8
(dp254
g45
I8
sg46
I0
sg47
I5
ssI3
(dp255
g45
I7
sg46
I0
sg47
I3
ssI7
(dp256
g45
I8
sg46
I0
sg47
I4
ssI25
(dp257
g45
I7
sg46
I0
sg47
I5
sssI27
(dp258
I4
(dp259
g45
I5
sg46
I0
sg47
I3
ssI6
(dp260
g45
I6
sg46
I0
sg47
I3
ssI14
(dp261
g45
I5
sg46
I0
sg47
I4
ssI19
(dp262
g45
I6
sg46
I0
sg47
I10
ssI21
(dp263
g45
I7
sg46
I0
sg47
I9
ssI24
(dp264
g45
I7
sg46
I0
sg47
I3
sssI28
(dp265
I1
(dp266
g45
I6
sg46
I0
sg47
I9
ssI6
(dp267
g45
I7
sg46
I0
sg47
I6
ssI10
(dp268
g45
I5
sg46
I0
sg47
I4
ssI12
(dp269
g45
I7
sg46
I0
sg47
I3
ssI18
(dp270
g45
I8
sg46
I0
sg47
I1
ssI20
(dp271
g45
I8
sg46
I0
sg47
I2
ssI26
(dp272
g45
I7
sg46
I0
sg47
I8
sssI29
(dp273
I2
(dp274
g45
I6
sg46
I0
sg47
I2
ssI10
(dp275
g45
I8
sg46
I0
sg47
I0
ssI13
(dp276
g45
I6
sg46
I0
sg47
I8
ssI17
(dp277
g45
I6
sg46
I0
sg47
I8
ssI18
(dp278
g45
I6
sg46
I0
sg47
I7
ssI22
(dp279
g45
I6
sg46
I0
sg47
I6
ssI25
(dp280
g45
I5
sg46
I0
sg47
I10
ssI30
(dp281
g45
I7
sg46
I0
sg47
I1
sssI30
(dp282
I1
(dp283
g45
I5
sg46
I0
sg47
I1
ssI2
(dp284
g45
I7
sg46
I0
sg47
I6
ssI3
(dp285
g45
I5
sg46
I0
sg47
I0
ssI4
(dp286
g45
I8
sg46
I0
sg47
I7
ssI7
(dp287
g45
I7
sg46
I0
sg47
I10
ssI12
(dp288
g45
I8
sg46
I0
sg47
I0
ssI15
(dp289
g45
I5
sg46
I0
sg47
I7
ssI23
(dp290
g45
I6
sg46
I0
sg47
I5
ssI25
(dp291
g45
I8
sg46
I0
sg47
I3
ssI26
(dp292
g45
I7
sg46
I0
sg47
I5
ssssS'edge'
p293
g42
sS'pred'
p294
(dp295
I1
(dp296
I6
g84
sI16
g175
sI18
g193
sI20
g212
sI21
g221
sI28
g266
sI30
g283
ssI2
(dp297
I9
g117
sI10
g125
sI12
g134
sI13
g147
sI20
g213
sI29
g274
sI30
g284
ssI3
(dp298
I26
g255
sI12
g135
sI30
g285
sI7
g93
ssI4
(dp299
I3
g59
sI18
g194
sI27
g259
sI5
g75
sI30
g286
ssI5
(dp300
I16
g176
sI1
g49
sI18
g195
sI2
g52
sI13
g148
ssI6
(dp301
I2
g53
sI8
g105
sI10
g126
sI12
g136
sI13
g149
sI22
g226
sI27
g260
sI28
g267
ssI7
(dp302
I4
g68
sI5
g76
sI6
g85
sI12
g137
sI15
g167
sI16
g177
sI20
g214
sI26
g256
sI30
g287
ssI8
(dp303
I3
g60
sI6
g86
sI7
g94
sI14
g156
sI25
g246
sI26
g254
ssI9
(dp304
I8
g106
sI18
g196
sI12
g138
sI10
g124
sI7
g95
ssI10
(dp305
I8
g107
sI11
g130
sI14
g157
sI18
g197
sI21
g222
sI22
g225
sI24
g237
sI25
g247
sI28
g268
sI29
g275
ssI11
(dp306
I3
g61
sI5
g77
sI6
g87
sI13
g150
sI14
g158
sI17
g185
sI25
g248
ssI12
(dp307
I7
g96
sI8
g108
sI20
g215
sI24
g238
sI28
g269
sI30
g288
ssI13
(dp308
I5
g78
sI8
g109
sI9
g118
sI12
g139
sI15
g168
sI16
g178
sI17
g186
sI18
g198
sI23
g229
sI29
g276
ssI14
(dp309
I6
g88
sI7
g97
sI10
g127
sI16
g179
sI19
g204
sI23
g230
sI24
g239
sI25
g249
sI27
g261
ssI15
(dp310
I3
g62
sI7
g98
sI9
g119
sI14
g159
sI20
g216
sI30
g289
ssI16
(dp311
I17
g187
sI26
g253
sI20
g217
sI22
g224
ssI17
(dp312
I15
g169
sI19
g205
sI12
g140
sI29
g277
sI7
g99
ssI18
(dp313
I2
g54
sI4
g69
sI5
g79
sI7
g100
sI16
g180
sI20
g218
sI23
g231
sI28
g270
sI29
g278
ssI19
(dp314
I16
g181
sI8
g110
sI27
g262
sI12
g141
ssI20
(dp315
I3
g63
sI4
g70
sI8
g111
sI12
g142
sI13
g151
sI14
g160
sI28
g271
ssI21
(dp316
I7
g101
sI9
g120
sI10
g128
sI11
g132
sI12
g143
sI17
g188
sI19
g206
sI23
g232
sI24
g240
sI27
g263
ssI22
(dp317
I2
g55
sI4
g71
sI14
g161
sI15
g170
sI18
g199
sI24
g241
sI25
g250
sI29
g279
ssI23
(dp318
I2
g56
sI3
g64
sI6
g89
sI8
g112
sI13
g152
sI18
g200
sI19
g207
sI22
g227
sI24
g242
sI30
g290
ssI24
(dp319
I4
g72
sI5
g80
sI16
g182
sI19
g208
sI20
g219
sI27
g264
ssI25
(dp320
I1
g44
sI3
g65
sI6
g90
sI13
g153
sI14
g162
sI24
g243
sI26
g257
sI29
g280
sI30
g291
ssI26
(dp321
I4
g73
sI5
g81
sI8
g113
sI9
g121
sI15
g171
sI18
g201
sI19
g209
sI28
g272
sI30
g292
ssI27
(dp322
I1
g48
sI6
g91
sI7
g102
sI12
g144
sI14
g163
sI17
g189
sI23
g233
sI25
g251
ssI28
(dp323
I3
g66
sI5
g82
sI13
g154
sI15
g172
sI19
g210
sI23
g234
ssI29
(dp324
I1
g50
sI8
g114
sI11
g131
sI14
g164
sI15
g173
sI17
g190
sI18
g202
sI23
g235
sI24
g244
ssI30
(dp325
I2
g57
sI7
g103
sI8
g115
sI9
g122
sI12
g145
sI14
g165
sI16
g183
sI17
g191
sI29
g281
sssS'adj'
p326
g42
sb.