ccopy_reg
_reconstructor
p1
(cnetworkx.classes.digraph
DiGraph
p2
c__builtin__
object
p3
NtRp4
(dp5
S'node'
p6
(dp7
I1
(dp8
S'demand'
p9
I3
ssI2
(dp10
g9
I9
ssI3
(dp11
g9
I2
ssI4
(dp12
g9
I2
ssI5
(dp13
g9
I8
ssI6
(dp14
g9
I5
ssI7
(dp15
g9
I3
ssI8
(dp16
g9
I4
ssI9
(dp17
g9
I6
ssI10
(dp18
g9
I3
ssI11
(dp19
g9
I1
ssI12
(dp20
g9
I1
ssI13
(dp21
g9
I4
ssI14
(dp22
g9
I3
ssI15
(dp23
g9
I2
ssI16
(dp24
g9
I3
ssI17
(dp25
g9
I2
ssI18
(dp26
g9
I3
ssI19
(dp27
g9
I10
ssI20
(dp28
g9
I2
ssI21
(dp29
g9
I0
ssI22
(dp30
g9
I0
ssI23
(dp31
g9
I0
ssI24
(dp32
g9
I0
ssI25
(dp33
g9
I0
ssI26
(dp34
g9
I0
ssI27
(dp35
g9
I0
ssI28
(dp36
g9
I0
ssI29
(dp37
g9
I0
ssI30
(dp38
g9
I0
ssI31
(dp39
g9
I0
ssI32
(dp40
g9
I0
ssI33
(dp41
g9
I0
ssI34
(dp42
g9
I0
ssI35
(dp43
g9
I0
ssI36
(dp44
g9
I0
ssI37
(dp45
g9
I0
ssI38
(dp46
g9
I0
ssI39
(dp47
g9
I0
ssI40
(dp48
g9
I-76
sssS'graph'
p49
(dp50
sS'succ'
p51
(dp52
I1
(dp53
I4
(dp54
S'capacity'
p55
I6
sS'fluxo'
p56
I0
sS'weight'
p57
I10
ssI38
(dp58
g55
I5
sg56
I0
sg57
I4
ssI12
(dp59
g55
I7
sg56
I0
sg57
I4
ssI13
(dp60
g55
I8
sg56
I0
sg57
I7
ssI21
(dp61
g55
I5
sg56
I0
sg57
I6
ssI22
(dp62
g55
I6
sg56
I0
sg57
I6
ssI24
(dp63
g55
I6
sg56
I0
sg57
I4
ssI36
(dp64
g55
I6
sg56
I0
sg57
I0
ssI28
(dp65
g55
I5
sg56
I0
sg57
I1
ssI30
(dp66
g55
I5
sg56
I0
sg57
I6
sssI2
(dp67
I3
(dp68
g55
I5
sg56
I0
sg57
I0
ssI5
(dp69
g55
I8
sg56
I0
sg57
I9
ssI39
(dp70
g55
I5
sg56
I0
sg57
I3
ssI9
(dp71
g55
I7
sg56
I0
sg57
I0
ssI20
(dp72
g55
I5
sg56
I0
sg57
I8
ssI21
(dp73
g55
I5
sg56
I0
sg57
I3
sssI3
(dp74
I2
(dp75
g55
I7
sg56
I0
sg57
I0
ssI4
(dp76
g55
I5
sg56
I0
sg57
I9
ssI5
(dp77
g55
I6
sg56
I0
sg57
I10
ssI38
(dp78
g55
I5
sg56
I0
sg57
I10
ssI9
(dp79
g55
I8
sg56
I0
sg57
I7
ssI13
(dp80
g55
I5
sg56
I0
sg57
I7
ssI14
(dp81
g55
I5
sg56
I0
sg57
I6
ssI19
(dp82
g55
I7
sg56
I0
sg57
I2
ssI22
(dp83
g55
I8
sg56
I0
sg57
I1
ssI31
(dp84
g55
I8
sg56
I0
sg57
I5
sssI4
(dp85
I2
(dp86
g55
I5
sg56
I0
sg57
I4
ssI3
(dp87
g55
I8
sg56
I0
sg57
I3
ssI7
(dp88
g55
I6
sg56
I0
sg57
I1
ssI10
(dp89
g55
I6
sg56
I0
sg57
I10
ssI17
(dp90
g55
I6
sg56
I0
sg57
I0
ssI27
(dp91
g55
I6
sg56
I0
sg57
I6
ssI31
(dp92
g55
I8
sg56
I0
sg57
I5
sssI5
(dp93
I34
(dp94
g55
I7
sg56
I0
sg57
I4
ssI4
(dp95
g55
I5
sg56
I0
sg57
I4
ssI38
(dp96
g55
I6
sg56
I0
sg57
I0
ssI6
(dp97
g55
I5
sg56
I0
sg57
I4
ssI12
(dp98
g55
I8
sg56
I0
sg57
I1
ssI15
(dp99
g55
I7
sg56
I0
sg57
I3
ssI17
(dp100
g55
I6
sg56
I0
sg57
I7
ssI19
(dp101
g55
I5
sg56
I0
sg57
I6
ssI20
(dp102
g55
I8
sg56
I0
sg57
I7
ssI23
(dp103
g55
I8
sg56
I0
sg57
I4
ssI30
(dp104
g55
I5
sg56
I0
sg57
I7
sssI6
(dp105
I32
(dp106
g55
I5
sg56
I0
sg57
I7
ssI2
(dp107
g55
I7
sg56
I0
sg57
I7
ssI5
(dp108
g55
I8
sg56
I0
sg57
I9
ssI14
(dp109
g55
I6
sg56
I0
sg57
I2
ssI18
(dp110
g55
I8
sg56
I0
sg57
I6
ssI27
(dp111
g55
I6
sg56
I0
sg57
I7
sssI7
(dp112
I32
(dp113
g55
I7
sg56
I0
sg57
I5
ssI1
(dp114
g55
I8
sg56
I0
sg57
I2
ssI34
(dp115
g55
I8
sg56
I0
sg57
I4
ssI3
(dp116
g55
I5
sg56
I0
sg57
I10
ssI4
(dp117
g55
I5
sg56
I0
sg57
I3
ssI5
(dp118
g55
I5
sg56
I0
sg57
I8
ssI33
(dp119
g55
I7
sg56
I0
sg57
I2
ssI40
(dp120
g55
I8
sg56
I0
sg57
I3
ssI10
(dp121
g55
I7
sg56
I0
sg57
I8
ssI11
(dp122
g55
I5
sg56
I0
sg57
I4
ssI13
(dp123
g55
I7
sg56
I0
sg57
I4
ssI18
(dp124
g55
I8
sg56
I0
sg57
I0
ssI36
(dp125
g55
I5
sg56
I0
sg57
I9
sssI8
(dp126
I2
(dp127
g55
I7
sg56
I0
sg57
I0
ssI3
(dp128
g55
I5
sg56
I0
sg57
I10
ssI39
(dp129
g55
I8
sg56
I0
sg57
I2
ssI40
(dp130
g55
I8
sg56
I0
sg57
I5
ssI10
(dp131
g55
I6
sg56
I0
sg57
I0
ssI16
(dp132
g55
I8
sg56
I0
sg57
I4
ssI18
(dp133
g55
I6
sg56
I0
sg57
I9
ssI35
(dp134
g55
I8
sg56
I0
sg57
I3
ssI21
(dp135
g55
I8
sg56
I0
sg57
I3
ssI23
(dp136
g55
I6
sg56
I0
sg57
I8
ssI30
(dp137
g55
I5
sg56
I0
sg57
I3
sssI9
(dp138
I33
(dp139
g55
I8
sg56
I0
sg57
I4
ssI2
(dp140
g55
I7
sg56
I0
sg57
I0
ssI35
(dp141
g55
I8
sg56
I0
sg57
I7
ssI6
(dp142
g55
I7
sg56
I0
sg57
I5
ssI40
(dp143
g55
I5
sg56
I0
sg57
I5
ssI34
(dp144
g55
I5
sg56
I0
sg57
I5
ssI14
(dp145
g55
I5
sg56
I0
sg57
I1
ssI23
(dp146
g55
I8
sg56
I0
sg57
I3
ssI24
(dp147
g55
I5
sg56
I0
sg57
I5
sssI10
(dp148
I5
(dp149
g55
I5
sg56
I0
sg57
I8
ssI6
(dp150
g55
I6
sg56
I0
sg57
I9
ssI39
(dp151
g55
I7
sg56
I0
sg57
I0
ssI40
(dp152
g55
I6
sg56
I0
sg57
I6
ssI11
(dp153
g55
I6
sg56
I0
sg57
I8
ssI18
(dp154
g55
I5
sg56
I0
sg57
I7
ssI20
(dp155
g55
I8
sg56
I0
sg57
I0
ssI22
(dp156
g55
I7
sg56
I0
sg57
I5
sssI11
(dp157
I33
(dp158
g55
I6
sg56
I0
sg57
I4
ssI2
(dp159
g55
I8
sg56
I0
sg57
I6
ssI4
(dp160
g55
I5
sg56
I0
sg57
I4
ssI40
(dp161
g55
I6
sg56
I0
sg57
I1
ssI10
(dp162
g55
I8
sg56
I0
sg57
I4
ssI12
(dp163
g55
I5
sg56
I0
sg57
I6
ssI20
(dp164
g55
I6
sg56
I0
sg57
I0
ssI24
(dp165
g55
I7
sg56
I0
sg57
I4
ssI26
(dp166
g55
I8
sg56
I0
sg57
I3
ssI27
(dp167
g55
I6
sg56
I0
sg57
I9
sssI12
(dp168
I33
(dp169
g55
I5
sg56
I0
sg57
I4
ssI34
(dp170
g55
I6
sg56
I0
sg57
I7
ssI4
(dp171
g55
I6
sg56
I0
sg57
I2
ssI40
(dp172
g55
I8
sg56
I0
sg57
I4
ssI11
(dp173
g55
I7
sg56
I0
sg57
I3
ssI13
(dp174
g55
I7
sg56
I0
sg57
I8
ssI20
(dp175
g55
I6
sg56
I0
sg57
I2
ssI22
(dp176
g55
I6
sg56
I0
sg57
I3
ssI23
(dp177
g55
I5
sg56
I0
sg57
I7
ssI24
(dp178
g55
I5
sg56
I0
sg57
I2
ssI2
(dp179
g55
I6
sg56
I0
sg57
I3
sssI13
(dp180
I32
(dp181
g55
I6
sg56
I0
sg57
I9
ssI2
(dp182
g55
I7
sg56
I0
sg57
I3
ssI3
(dp183
g55
I8
sg56
I0
sg57
I10
ssI4
(dp184
g55
I8
sg56
I0
sg57
I0
ssI37
(dp185
g55
I6
sg56
I0
sg57
I8
ssI8
(dp186
g55
I8
sg56
I0
sg57
I3
ssI10
(dp187
g55
I6
sg56
I0
sg57
I8
ssI16
(dp188
g55
I5
sg56
I0
sg57
I6
ssI17
(dp189
g55
I7
sg56
I0
sg57
I8
ssI28
(dp190
g55
I7
sg56
I0
sg57
I9
ssI31
(dp191
g55
I6
sg56
I0
sg57
I0
sssI14
(dp192
I1
(dp193
g55
I5
sg56
I0
sg57
I8
ssI2
(dp194
g55
I6
sg56
I0
sg57
I3
ssI36
(dp195
g55
I7
sg56
I0
sg57
I7
ssI5
(dp196
g55
I5
sg56
I0
sg57
I9
ssI20
(dp197
g55
I6
sg56
I0
sg57
I5
ssI23
(dp198
g55
I6
sg56
I0
sg57
I7
ssI29
(dp199
g55
I8
sg56
I0
sg57
I10
sssI15
(dp200
I9
(dp201
g55
I6
sg56
I0
sg57
I8
ssI34
(dp202
g55
I8
sg56
I0
sg57
I3
ssI12
(dp203
g55
I5
sg56
I0
sg57
I1
ssI37
(dp204
g55
I5
sg56
I0
sg57
I9
ssI7
(dp205
g55
I6
sg56
I0
sg57
I9
sssI16
(dp206
I32
(dp207
g55
I8
sg56
I0
sg57
I9
ssI7
(dp208
g55
I6
sg56
I0
sg57
I4
ssI13
(dp209
g55
I7
sg56
I0
sg57
I1
ssI17
(dp210
g55
I6
sg56
I0
sg57
I4
ssI20
(dp211
g55
I6
sg56
I0
sg57
I4
ssI22
(dp212
g55
I5
sg56
I0
sg57
I5
ssI24
(dp213
g55
I6
sg56
I0
sg57
I0
ssI27
(dp214
g55
I5
sg56
I0
sg57
I4
sssI17
(dp215
I32
(dp216
g55
I5
sg56
I0
sg57
I9
ssI2
(dp217
g55
I8
sg56
I0
sg57
I8
ssI35
(dp218
g55
I8
sg56
I0
sg57
I1
ssI36
(dp219
g55
I8
sg56
I0
sg57
I2
ssI5
(dp220
g55
I6
sg56
I0
sg57
I4
ssI9
(dp221
g55
I5
sg56
I0
sg57
I7
ssI14
(dp222
g55
I8
sg56
I0
sg57
I4
ssI22
(dp223
g55
I7
sg56
I0
sg57
I6
ssI25
(dp224
g55
I5
sg56
I0
sg57
I3
ssI26
(dp225
g55
I5
sg56
I0
sg57
I4
ssI27
(dp226
g55
I5
sg56
I0
sg57
I5
ssI28
(dp227
g55
I7
sg56
I0
sg57
I1
ssI30
(dp228
g55
I6
sg56
I0
sg57
I5
sssI18
(dp229
I34
(dp230
g55
I7
sg56
I0
sg57
I2
ssI35
(dp231
g55
I7
sg56
I0
sg57
I2
ssI9
(dp232
g55
I8
sg56
I0
sg57
I4
ssI11
(dp233
g55
I8
sg56
I0
sg57
I9
ssI22
(dp234
g55
I6
sg56
I0
sg57
I1
ssI25
(dp235
g55
I5
sg56
I0
sg57
I5
ssI28
(dp236
g55
I6
sg56
I0
sg57
I8
sssI19
(dp237
I34
(dp238
g55
I6
sg56
I0
sg57
I1
ssI5
(dp239
g55
I7
sg56
I0
sg57
I4
ssI7
(dp240
g55
I7
sg56
I0
sg57
I1
ssI40
(dp241
g55
I6
sg56
I0
sg57
I9
ssI39
(dp242
g55
I8
sg56
I0
sg57
I4
ssI2
(dp243
g55
I6
sg56
I0
sg57
I5
ssI13
(dp244
g55
I7
sg56
I0
sg57
I0
ssI16
(dp245
g55
I6
sg56
I0
sg57
I4
ssI18
(dp246
g55
I8
sg56
I0
sg57
I6
ssI21
(dp247
g55
I8
sg56
I0
sg57
I4
ssI25
(dp248
g55
I8
sg56
I0
sg57
I3
ssI27
(dp249
g55
I7
sg56
I0
sg57
I6
ssI30
(dp250
g55
I8
sg56
I0
sg57
I3
ssI31
(dp251
g55
I8
sg56
I0
sg57
I3
sssI20
(dp252
I32
(dp253
g55
I7
sg56
I0
sg57
I9
ssI1
(dp254
g55
I8
sg56
I0
sg57
I9
ssI4
(dp255
g55
I8
sg56
I0
sg57
I5
ssI9
(dp256
g55
I7
sg56
I0
sg57
I7
ssI11
(dp257
g55
I8
sg56
I0
sg57
I6
ssI13
(dp258
g55
I7
sg56
I0
sg57
I9
ssI26
(dp259
g55
I7
sg56
I0
sg57
I10
ssI28
(dp260
g55
I6
sg56
I0
sg57
I0
sssI21
(dp261
I1
(dp262
g55
I5
sg56
I0
sg57
I9
ssI35
(dp263
g55
I5
sg56
I0
sg57
I4
ssI5
(dp264
g55
I7
sg56
I0
sg57
I9
ssI6
(dp265
g55
I8
sg56
I0
sg57
I5
ssI39
(dp266
g55
I8
sg56
I0
sg57
I9
ssI11
(dp267
g55
I6
sg56
I0
sg57
I2
ssI12
(dp268
g55
I6
sg56
I0
sg57
I3
ssI13
(dp269
g55
I8
sg56
I0
sg57
I5
ssI16
(dp270
g55
I7
sg56
I0
sg57
I1
ssI19
(dp271
g55
I7
sg56
I0
sg57
I4
ssI25
(dp272
g55
I5
sg56
I0
sg57
I3
ssI31
(dp273
g55
I7
sg56
I0
sg57
I3
sssI22
(dp274
I32
(dp275
g55
I6
sg56
I0
sg57
I8
ssI1
(dp276
g55
I7
sg56
I0
sg57
I1
ssI40
(dp277
g55
I8
sg56
I0
sg57
I10
ssI11
(dp278
g55
I5
sg56
I0
sg57
I4
ssI13
(dp279
g55
I7
sg56
I0
sg57
I2
ssI17
(dp280
g55
I5
sg56
I0
sg57
I7
ssI25
(dp281
g55
I5
sg56
I0
sg57
I1
sssI23
(dp282
I8
(dp283
g55
I6
sg56
I0
sg57
I0
ssI12
(dp284
g55
I7
sg56
I0
sg57
I5
ssI14
(dp285
g55
I8
sg56
I0
sg57
I2
ssI15
(dp286
g55
I8
sg56
I0
sg57
I9
ssI16
(dp287
g55
I8
sg56
I0
sg57
I8
ssI17
(dp288
g55
I6
sg56
I0
sg57
I9
ssI21
(dp289
g55
I7
sg56
I0
sg57
I9
ssI31
(dp290
g55
I5
sg56
I0
sg57
I4
sssI24
(dp291
I33
(dp292
g55
I8
sg56
I0
sg57
I8
ssI3
(dp293
g55
I5
sg56
I0
sg57
I1
ssI36
(dp294
g55
I6
sg56
I0
sg57
I1
ssI38
(dp295
g55
I7
sg56
I0
sg57
I10
ssI16
(dp296
g55
I6
sg56
I0
sg57
I7
ssI18
(dp297
g55
I6
sg56
I0
sg57
I10
ssI29
(dp298
g55
I6
sg56
I0
sg57
I3
ssI31
(dp299
g55
I5
sg56
I0
sg57
I9
sssI25
(dp300
I3
(dp301
g55
I8
sg56
I0
sg57
I3
ssI36
(dp302
g55
I5
sg56
I0
sg57
I8
ssI37
(dp303
g55
I8
sg56
I0
sg57
I1
ssI38
(dp304
g55
I6
sg56
I0
sg57
I0
ssI8
(dp305
g55
I6
sg56
I0
sg57
I10
ssI10
(dp306
g55
I7
sg56
I0
sg57
I7
ssI11
(dp307
g55
I7
sg56
I0
sg57
I3
ssI12
(dp308
g55
I6
sg56
I0
sg57
I6
ssI21
(dp309
g55
I8
sg56
I0
sg57
I9
ssI28
(dp310
g55
I7
sg56
I0
sg57
I0
ssI29
(dp311
g55
I6
sg56
I0
sg57
I5
sssI26
(dp312
I32
(dp313
g55
I6
sg56
I0
sg57
I0
ssI1
(dp314
g55
I5
sg56
I0
sg57
I3
ssI35
(dp315
g55
I8
sg56
I0
sg57
I10
ssI5
(dp316
g55
I6
sg56
I0
sg57
I9
ssI6
(dp317
g55
I6
sg56
I0
sg57
I4
ssI9
(dp318
g55
I8
sg56
I0
sg57
I1
ssI18
(dp319
g55
I5
sg56
I0
sg57
I5
ssI3
(dp320
g55
I6
sg56
I0
sg57
I5
ssI20
(dp321
g55
I8
sg56
I0
sg57
I9
ssI25
(dp322
g55
I8
sg56
I0
sg57
I7
ssI27
(dp323
g55
I8
sg56
I0
sg57
I5
ssI28
(dp324
g55
I7
sg56
I0
sg57
I10
ssI30
(dp325
g55
I8
sg56
I0
sg57
I1
ssI37
(dp326
g55
I6
sg56
I0
sg57
I7
sssI27
(dp327
I32
(dp328
g55
I5
sg56
I0
sg57
I6
ssI33
(dp329
g55
I7
sg56
I0
sg57
I7
ssI34
(dp330
g55
I5
sg56
I0
sg57
I7
ssI3
(dp331
g55
I5
sg56
I0
sg57
I8
ssI17
(dp332
g55
I6
sg56
I0
sg57
I1
ssI39
(dp333
g55
I6
sg56
I0
sg57
I4
ssI40
(dp334
g55
I8
sg56
I0
sg57
I6
ssI2
(dp335
g55
I7
sg56
I0
sg57
I4
ssI13
(dp336
g55
I5
sg56
I0
sg57
I8
ssI15
(dp337
g55
I6
sg56
I0
sg57
I3
ssI8
(dp338
g55
I7
sg56
I0
sg57
I0
ssI24
(dp339
g55
I6
sg56
I0
sg57
I9
ssI25
(dp340
g55
I8
sg56
I0
sg57
I1
ssI29
(dp341
g55
I8
sg56
I0
sg57
I6
ssI30
(dp342
g55
I7
sg56
I0
sg57
I1
ssI31
(dp343
g55
I5
sg56
I0
sg57
I10
sssI28
(dp344
I19
(dp345
g55
I7
sg56
I0
sg57
I5
ssI35
(dp346
g55
I7
sg56
I0
sg57
I9
ssI4
(dp347
g55
I5
sg56
I0
sg57
I1
ssI6
(dp348
g55
I6
sg56
I0
sg57
I3
ssI39
(dp349
g55
I7
sg56
I0
sg57
I0
ssI17
(dp350
g55
I6
sg56
I0
sg57
I2
ssI3
(dp351
g55
I8
sg56
I0
sg57
I7
ssI21
(dp352
g55
I6
sg56
I0
sg57
I1
ssI25
(dp353
g55
I8
sg56
I0
sg57
I2
ssI27
(dp354
g55
I6
sg56
I0
sg57
I1
sssI29
(dp355
I4
(dp356
g55
I7
sg56
I0
sg57
I9
ssI6
(dp357
g55
I6
sg56
I0
sg57
I8
ssI39
(dp358
g55
I5
sg56
I0
sg57
I1
ssI8
(dp359
g55
I5
sg56
I0
sg57
I8
ssI15
(dp360
g55
I5
sg56
I0
sg57
I4
ssI19
(dp361
g55
I5
sg56
I0
sg57
I3
ssI23
(dp362
g55
I6
sg56
I0
sg57
I9
ssI26
(dp363
g55
I8
sg56
I0
sg57
I9
ssI30
(dp364
g55
I7
sg56
I0
sg57
I10
sssI30
(dp365
I1
(dp366
g55
I7
sg56
I0
sg57
I9
ssI34
(dp367
g55
I8
sg56
I0
sg57
I8
ssI38
(dp368
g55
I5
sg56
I0
sg57
I8
ssI40
(dp369
g55
I6
sg56
I0
sg57
I8
ssI18
(dp370
g55
I6
sg56
I0
sg57
I5
ssI19
(dp371
g55
I7
sg56
I0
sg57
I10
ssI20
(dp372
g55
I7
sg56
I0
sg57
I7
ssI23
(dp373
g55
I7
sg56
I0
sg57
I2
ssI26
(dp374
g55
I5
sg56
I0
sg57
I1
ssI31
(dp375
g55
I5
sg56
I0
sg57
I7
sssI31
(dp376
I32
(dp377
g55
I5
sg56
I0
sg57
I8
ssI1
(dp378
g55
I8
sg56
I0
sg57
I4
ssI3
(dp379
g55
I5
sg56
I0
sg57
I8
ssI36
(dp380
g55
I5
sg56
I0
sg57
I9
ssI37
(dp381
g55
I6
sg56
I0
sg57
I2
ssI38
(dp382
g55
I5
sg56
I0
sg57
I7
ssI39
(dp383
g55
I5
sg56
I0
sg57
I0
ssI40
(dp384
g55
I6
sg56
I0
sg57
I2
ssI9
(dp385
g55
I8
sg56
I0
sg57
I7
ssI10
(dp386
g55
I5
sg56
I0
sg57
I1
ssI11
(dp387
g55
I7
sg56
I0
sg57
I0
ssI12
(dp388
g55
I8
sg56
I0
sg57
I0
ssI14
(dp389
g55
I5
sg56
I0
sg57
I8
ssI18
(dp390
g55
I5
sg56
I0
sg57
I0
ssI19
(dp391
g55
I6
sg56
I0
sg57
I1
ssI23
(dp392
g55
I5
sg56
I0
sg57
I3
sssI32
(dp393
I4
(dp394
g55
I6
sg56
I0
sg57
I2
ssI6
(dp395
g55
I8
sg56
I0
sg57
I4
ssI11
(dp396
g55
I8
sg56
I0
sg57
I10
ssI15
(dp397
g55
I6
sg56
I0
sg57
I8
ssI19
(dp398
g55
I7
sg56
I0
sg57
I10
ssI20
(dp399
g55
I6
sg56
I0
sg57
I0
ssI29
(dp400
g55
I8
sg56
I0
sg57
I10
sssI33
(dp401
I38
(dp402
g55
I6
sg56
I0
sg57
I8
ssI40
(dp403
g55
I8
sg56
I0
sg57
I8
ssI9
(dp404
g55
I5
sg56
I0
sg57
I3
ssI13
(dp405
g55
I7
sg56
I0
sg57
I7
ssI15
(dp406
g55
I7
sg56
I0
sg57
I4
ssI23
(dp407
g55
I7
sg56
I0
sg57
I10
ssI24
(dp408
g55
I5
sg56
I0
sg57
I5
ssI25
(dp409
g55
I5
sg56
I0
sg57
I9
ssI28
(dp410
g55
I6
sg56
I0
sg57
I1
sssI34
(dp411
I33
(dp412
g55
I6
sg56
I0
sg57
I1
ssI6
(dp413
g55
I8
sg56
I0
sg57
I1
ssI39
(dp414
g55
I8
sg56
I0
sg57
I3
ssI7
(dp415
g55
I5
sg56
I0
sg57
I3
ssI21
(dp416
g55
I8
sg56
I0
sg57
I4
ssI31
(dp417
g55
I8
sg56
I0
sg57
I4
sssI35
(dp418
I2
(dp419
g55
I5
sg56
I0
sg57
I7
ssI36
(dp420
g55
I8
sg56
I0
sg57
I10
ssI38
(dp421
g55
I8
sg56
I0
sg57
I0
ssI10
(dp422
g55
I8
sg56
I0
sg57
I0
ssI14
(dp423
g55
I8
sg56
I0
sg57
I9
ssI17
(dp424
g55
I6
sg56
I0
sg57
I10
ssI27
(dp425
g55
I8
sg56
I0
sg57
I7
ssI28
(dp426
g55
I5
sg56
I0
sg57
I4
sssI36
(dp427
I33
(dp428
g55
I5
sg56
I0
sg57
I4
ssI39
(dp429
g55
I8
sg56
I0
sg57
I5
ssI8
(dp430
g55
I7
sg56
I0
sg57
I4
ssI13
(dp431
g55
I7
sg56
I0
sg57
I3
ssI18
(dp432
g55
I8
sg56
I0
sg57
I3
ssI21
(dp433
g55
I5
sg56
I0
sg57
I7
ssI31
(dp434
g55
I6
sg56
I0
sg57
I5
sssI37
(dp435
I32
(dp436
g55
I5
sg56
I0
sg57
I7
ssI1
(dp437
g55
I5
sg56
I0
sg57
I7
ssI36
(dp438
g55
I5
sg56
I0
sg57
I5
ssI5
(dp439
g55
I6
sg56
I0
sg57
I9
ssI6
(dp440
g55
I7
sg56
I0
sg57
I7
ssI7
(dp441
g55
I5
sg56
I0
sg57
I5
ssI9
(dp442
g55
I7
sg56
I0
sg57
I10
ssI10
(dp443
g55
I8
sg56
I0
sg57
I2
ssI14
(dp444
g55
I6
sg56
I0
sg57
I6
ssI20
(dp445
g55
I8
sg56
I0
sg57
I1
ssI24
(dp446
g55
I7
sg56
I0
sg57
I5
ssI4
(dp447
g55
I6
sg56
I0
sg57
I1
ssI28
(dp448
g55
I8
sg56
I0
sg57
I10
ssI29
(dp449
g55
I6
sg56
I0
sg57
I9
sssI38
(dp450
I35
(dp451
g55
I6
sg56
I0
sg57
I4
ssI4
(dp452
g55
I5
sg56
I0
sg57
I9
ssI37
(dp453
g55
I5
sg56
I0
sg57
I10
ssI39
(dp454
g55
I6
sg56
I0
sg57
I7
ssI10
(dp455
g55
I6
sg56
I0
sg57
I6
ssI21
(dp456
g55
I6
sg56
I0
sg57
I2
ssI24
(dp457
g55
I6
sg56
I0
sg57
I8
ssI25
(dp458
g55
I8
sg56
I0
sg57
I0
ssI26
(dp459
g55
I7
sg56
I0
sg57
I8
sssI39
(dp460
I1
(dp461
g55
I6
sg56
I0
sg57
I7
ssI34
(dp462
g55
I8
sg56
I0
sg57
I0
ssI36
(dp463
g55
I6
sg56
I0
sg57
I4
ssI33
(dp464
g55
I8
sg56
I0
sg57
I0
ssI40
(dp465
g55
I5
sg56
I0
sg57
I2
ssI11
(dp466
g55
I5
sg56
I0
sg57
I9
ssI21
(dp467
g55
I5
sg56
I0
sg57
I3
ssI23
(dp468
g55
I8
sg56
I0
sg57
I9
ssI24
(dp469
g55
I8
sg56
I0
sg57
I8
ssI27
(dp470
g55
I5
sg56
I0
sg57
I2
sssI40
(dp471
I34
(dp472
g55
I7
sg56
I0
sg57
I4
ssI35
(dp473
g55
I5
sg56
I0
sg57
I8
ssI36
(dp474
g55
I7
sg56
I0
sg57
I9
ssI6
(dp475
g55
I5
sg56
I0
sg57
I9
ssI38
(dp476
g55
I6
sg56
I0
sg57
I4
ssI8
(dp477
g55
I6
sg56
I0
sg57
I1
ssI9
(dp478
g55
I5
sg56
I0
sg57
I8
ssI11
(dp479
g55
I7
sg56
I0
sg57
I8
ssI12
(dp480
g55
I7
sg56
I0
sg57
I0
ssI2
(dp481
g55
I5
sg56
I0
sg57
I9
ssI20
(dp482
g55
I7
sg56
I0
sg57
I3
ssI21
(dp483
g55
I6
sg56
I0
sg57
I4
ssI22
(dp484
g55
I5
sg56
I0
sg57
I1
ssI26
(dp485
g55
I5
sg56
I0
sg57
I1
ssssS'edge'
p486
g52
sS'pred'
p487
(dp488
I1
(dp489
I37
g437
sI7
g114
sI39
g461
sI14
g193
sI20
g254
sI21
g262
sI22
g276
sI26
g314
sI30
g366
sI31
g378
ssI2
(dp490
I35
g419
sI3
g75
sI4
g86
sI6
g107
sI17
g217
sI8
g127
sI9
g140
sI11
g159
sI12
g179
sI13
g182
sI14
g194
sI40
g481
sI19
g243
sI27
g335
ssI3
(dp491
I2
g68
sI4
g87
sI7
g116
sI8
g128
sI13
g183
sI24
g293
sI25
g301
sI26
g320
sI27
g331
sI28
g351
sI31
g379
ssI4
(dp492
I32
g394
sI1
g54
sI3
g76
sI5
g95
sI38
g452
sI7
g117
sI11
g160
sI12
g171
sI13
g184
sI20
g255
sI28
g347
sI29
g356
sI37
g447
ssI5
(dp493
I2
g69
sI3
g77
sI37
g439
sI6
g108
sI7
g118
sI10
g149
sI14
g196
sI17
g220
sI19
g239
sI21
g264
sI26
g316
ssI6
(dp494
I32
g395
sI34
g413
sI5
g97
sI40
g475
sI9
g142
sI10
g150
sI21
g265
sI26
g317
sI28
g348
sI29
g357
sI37
g440
ssI7
(dp495
I34
g415
sI4
g88
sI37
g441
sI15
g205
sI16
g208
sI19
g240
ssI8
(dp496
I36
g430
sI40
g477
sI13
g186
sI23
g283
sI25
g305
sI27
g338
sI29
g359
ssI9
(dp497
I33
g404
sI2
g71
sI3
g79
sI37
g442
sI40
g478
sI15
g201
sI17
g221
sI18
g232
sI20
g256
sI26
g318
sI31
g385
ssI10
(dp498
I35
g422
sI4
g89
sI37
g443
sI38
g455
sI7
g121
sI8
g131
sI11
g162
sI13
g187
sI25
g306
sI31
g386
ssI11
(dp499
I32
g396
sI39
g466
sI40
g479
sI10
g153
sI7
g122
sI12
g173
sI18
g233
sI20
g257
sI21
g267
sI22
g278
sI25
g307
sI31
g387
ssI12
(dp500
I1
g59
sI5
g98
sI40
g480
sI11
g163
sI15
g203
sI21
g268
sI23
g284
sI25
g308
sI31
g388
ssI13
(dp501
I1
g60
sI3
g80
sI36
g431
sI33
g405
sI7
g123
sI12
g174
sI16
g209
sI19
g244
sI20
g258
sI21
g269
sI22
g279
sI27
g336
ssI14
(dp502
I3
g81
sI37
g444
sI6
g109
sI9
g145
sI17
g222
sI35
g423
sI23
g285
sI31
g389
ssI15
(dp503
I32
g397
sI33
g406
sI5
g99
sI23
g286
sI27
g337
sI29
g360
ssI16
(dp504
I8
g132
sI13
g188
sI19
g245
sI21
g270
sI23
g287
sI24
g296
ssI17
(dp505
I35
g424
sI4
g90
sI5
g100
sI13
g189
sI16
g210
sI22
g280
sI23
g288
sI27
g332
sI28
g350
ssI18
(dp506
I36
g432
sI6
g110
sI7
g124
sI8
g133
sI10
g154
sI19
g246
sI24
g297
sI26
g319
sI30
g370
sI31
g390
ssI19
(dp507
I32
g398
sI3
g82
sI5
g101
sI21
g271
sI28
g345
sI29
g361
sI30
g371
sI31
g391
ssI20
(dp508
I32
g399
sI2
g72
sI37
g445
sI40
g482
sI10
g155
sI11
g164
sI12
g175
sI14
g197
sI16
g211
sI26
g321
sI30
g372
sI5
g102
ssI21
(dp509
I1
g61
sI34
g416
sI36
g433
sI38
g456
sI39
g467
sI40
g483
sI2
g73
sI8
g135
sI19
g247
sI23
g289
sI25
g309
sI28
g352
ssI22
(dp510
I1
g62
sI3
g83
sI40
g484
sI10
g156
sI12
g176
sI16
g212
sI17
g223
sI18
g234
ssI23
(dp511
I33
g407
sI5
g103
sI39
g468
sI8
g136
sI9
g146
sI12
g177
sI14
g198
sI29
g362
sI30
g373
sI31
g392
ssI24
(dp512
I33
g408
sI11
g165
sI37
g446
sI38
g457
sI1
g63
sI9
g147
sI39
g469
sI12
g178
sI16
g213
sI27
g339
ssI25
(dp513
I33
g409
sI38
g458
sI17
g224
sI18
g235
sI19
g248
sI21
g272
sI22
g281
sI26
g322
sI27
g340
sI28
g353
ssI26
(dp514
I38
g459
sI40
g485
sI11
g166
sI17
g225
sI20
g259
sI29
g363
sI30
g374
ssI27
(dp515
I35
g425
sI4
g91
sI6
g111
sI39
g470
sI11
g167
sI16
g214
sI17
g226
sI19
g249
sI26
g323
sI28
g354
ssI28
(dp516
I33
g410
sI35
g426
sI37
g448
sI1
g65
sI13
g190
sI17
g227
sI18
g236
sI20
g260
sI25
g310
sI26
g324
ssI29
(dp517
I32
g400
sI37
g449
sI14
g199
sI24
g298
sI25
g311
sI27
g341
ssI30
(dp518
I1
g66
sI5
g104
sI8
g137
sI17
g228
sI19
g250
sI26
g325
sI27
g342
sI29
g364
ssI31
(dp519
I34
g417
sI3
g84
sI4
g92
sI13
g191
sI19
g251
sI21
g273
sI23
g290
sI24
g299
sI36
g434
sI27
g343
sI30
g375
ssI32
(dp520
I37
g436
sI6
g106
sI7
g113
sI13
g181
sI16
g207
sI17
g216
sI20
g253
sI22
g275
sI26
g313
sI27
g328
sI31
g377
ssI33
(dp521
I34
g412
sI11
g158
sI36
g428
sI39
g464
sI9
g139
sI7
g119
sI12
g169
sI24
g292
sI27
g329
ssI34
(dp522
I5
g94
sI39
g462
sI40
g472
sI9
g144
sI7
g115
sI12
g170
sI15
g202
sI18
g230
sI19
g238
sI27
g330
sI30
g367
ssI35
(dp523
I38
g451
sI8
g134
sI9
g141
sI17
g218
sI18
g231
sI21
g263
sI40
g473
sI26
g315
sI28
g346
ssI36
(dp524
I1
g64
sI35
g420
sI37
g438
sI7
g125
sI40
g474
sI39
g463
sI14
g195
sI17
g219
sI24
g294
sI25
g302
sI31
g380
ssI37
(dp525
I38
g453
sI13
g185
sI15
g204
sI25
g303
sI26
g326
sI31
g381
ssI38
(dp526
I33
g402
sI35
g421
sI5
g96
sI1
g58
sI40
g476
sI3
g78
sI24
g295
sI25
g304
sI30
g368
sI31
g382
ssI39
(dp527
I2
g70
sI36
g429
sI38
g454
sI8
g129
sI10
g151
sI34
g414
sI19
g242
sI21
g266
sI27
g333
sI28
g349
sI29
g358
sI31
g383
ssI40
(dp528
I33
g403
sI39
g465
sI8
g130
sI9
g143
sI10
g152
sI11
g161
sI12
g172
sI19
g241
sI22
g277
sI7
g120
sI27
g334
sI30
g369
sI31
g384
sssS'adj'
p529
g52
sb.