ccopy_reg
_reconstructor
p1
(cnetworkx.classes.digraph
DiGraph
p2
c__builtin__
object
p3
NtRp4
(dp5
S'node'
p6
(dp7
I1
(dp8
S'demand'
p9
I7
ssI2
(dp10
g9
I3
ssI3
(dp11
g9
I3
ssI4
(dp12
g9
I6
ssI5
(dp13
g9
I6
ssI6
(dp14
g9
I8
ssI7
(dp15
g9
I3
ssI8
(dp16
g9
I9
ssI9
(dp17
g9
I9
ssI10
(dp18
g9
I9
ssI11
(dp19
g9
I9
ssI12
(dp20
g9
I8
ssI13
(dp21
g9
I5
ssI14
(dp22
g9
I7
ssI15
(dp23
g9
I10
ssI16
(dp24
g9
I7
ssI17
(dp25
g9
I5
ssI18
(dp26
g9
I4
ssI19
(dp27
g9
I4
ssI20
(dp28
g9
I1
ssI21
(dp29
g9
I0
ssI22
(dp30
g9
I0
ssI23
(dp31
g9
I0
ssI24
(dp32
g9
I0
ssI25
(dp33
g9
I0
ssI26
(dp34
g9
I0
ssI27
(dp35
g9
I0
ssI28
(dp36
g9
I0
ssI29
(dp37
g9
I0
ssI30
(dp38
g9
I0
ssI31
(dp39
g9
I0
ssI32
(dp40
g9
I0
ssI33
(dp41
g9
I0
ssI34
(dp42
g9
I0
ssI35
(dp43
g9
I0
ssI36
(dp44
g9
I0
ssI37
(dp45
g9
I0
ssI38
(dp46
g9
I0
ssI39
(dp47
g9
I0
ssI40
(dp48
g9
I-123
sssS'graph'
p49
(dp50
sS'succ'
p51
(dp52
I1
(dp53
I32
(dp54
S'capacity'
p55
I6
sS'fluxo'
p56
I0
sS'weight'
p57
I9
ssI33
(dp58
g55
I6
sg56
I0
sg57
I2
ssI2
(dp59
g55
I7
sg56
I0
sg57
I2
ssI36
(dp60
g55
I5
sg56
I0
sg57
I4
ssI5
(dp61
g55
I7
sg56
I0
sg57
I5
ssI38
(dp62
g55
I8
sg56
I0
sg57
I3
ssI40
(dp63
g55
I8
sg56
I0
sg57
I3
ssI15
(dp64
g55
I7
sg56
I0
sg57
I0
ssI10
(dp65
g55
I5
sg56
I0
sg57
I10
ssI13
(dp66
g55
I5
sg56
I0
sg57
I10
ssI8
(dp67
g55
I7
sg56
I0
sg57
I1
ssI17
(dp68
g55
I7
sg56
I0
sg57
I3
ssI18
(dp69
g55
I7
sg56
I0
sg57
I4
ssI19
(dp70
g55
I5
sg56
I0
sg57
I3
ssI22
(dp71
g55
I7
sg56
I0
sg57
I8
ssI23
(dp72
g55
I6
sg56
I0
sg57
I2
ssI24
(dp73
g55
I5
sg56
I0
sg57
I9
ssI26
(dp74
g55
I5
sg56
I0
sg57
I5
ssI27
(dp75
g55
I6
sg56
I0
sg57
I8
ssI28
(dp76
g55
I5
sg56
I0
sg57
I10
ssI31
(dp77
g55
I5
sg56
I0
sg57
I9
sssI2
(dp78
I32
(dp79
g55
I5
sg56
I0
sg57
I6
ssI1
(dp80
g55
I7
sg56
I0
sg57
I6
ssI34
(dp81
g55
I8
sg56
I0
sg57
I0
ssI36
(dp82
g55
I7
sg56
I0
sg57
I10
ssI37
(dp83
g55
I8
sg56
I0
sg57
I10
ssI6
(dp84
g55
I6
sg56
I0
sg57
I3
ssI40
(dp85
g55
I7
sg56
I0
sg57
I4
ssI12
(dp86
g55
I6
sg56
I0
sg57
I10
ssI16
(dp87
g55
I8
sg56
I0
sg57
I2
ssI8
(dp88
g55
I6
sg56
I0
sg57
I2
ssI18
(dp89
g55
I6
sg56
I0
sg57
I3
ssI20
(dp90
g55
I8
sg56
I0
sg57
I5
ssI22
(dp91
g55
I8
sg56
I0
sg57
I0
ssI23
(dp92
g55
I5
sg56
I0
sg57
I9
ssI31
(dp93
g55
I5
sg56
I0
sg57
I5
ssI29
(dp94
g55
I8
sg56
I0
sg57
I9
ssI5
(dp95
g55
I6
sg56
I0
sg57
I0
sssI3
(dp96
I32
(dp97
g55
I5
sg56
I0
sg57
I3
ssI1
(dp98
g55
I6
sg56
I0
sg57
I6
ssI34
(dp99
g55
I6
sg56
I0
sg57
I1
ssI35
(dp100
g55
I5
sg56
I0
sg57
I1
ssI4
(dp101
g55
I8
sg56
I0
sg57
I3
ssI5
(dp102
g55
I7
sg56
I0
sg57
I3
ssI6
(dp103
g55
I5
sg56
I0
sg57
I1
ssI7
(dp104
g55
I8
sg56
I0
sg57
I2
ssI39
(dp105
g55
I7
sg56
I0
sg57
I7
ssI14
(dp106
g55
I7
sg56
I0
sg57
I6
ssI29
(dp107
g55
I6
sg56
I0
sg57
I8
ssI16
(dp108
g55
I6
sg56
I0
sg57
I0
ssI20
(dp109
g55
I7
sg56
I0
sg57
I9
ssI21
(dp110
g55
I6
sg56
I0
sg57
I5
ssI22
(dp111
g55
I6
sg56
I0
sg57
I7
ssI24
(dp112
g55
I8
sg56
I0
sg57
I10
ssI33
(dp113
g55
I5
sg56
I0
sg57
I6
ssI28
(dp114
g55
I5
sg56
I0
sg57
I2
ssI26
(dp115
g55
I8
sg56
I0
sg57
I1
ssI31
(dp116
g55
I5
sg56
I0
sg57
I1
sssI4
(dp117
I2
(dp118
g55
I6
sg56
I0
sg57
I7
ssI3
(dp119
g55
I6
sg56
I0
sg57
I2
ssI5
(dp120
g55
I5
sg56
I0
sg57
I6
ssI11
(dp121
g55
I8
sg56
I0
sg57
I5
ssI13
(dp122
g55
I6
sg56
I0
sg57
I0
ssI15
(dp123
g55
I8
sg56
I0
sg57
I8
ssI16
(dp124
g55
I8
sg56
I0
sg57
I10
ssI18
(dp125
g55
I6
sg56
I0
sg57
I10
ssI20
(dp126
g55
I6
sg56
I0
sg57
I7
ssI21
(dp127
g55
I5
sg56
I0
sg57
I8
ssI23
(dp128
g55
I5
sg56
I0
sg57
I8
ssI25
(dp129
g55
I8
sg56
I0
sg57
I5
ssI27
(dp130
g55
I6
sg56
I0
sg57
I10
ssI28
(dp131
g55
I5
sg56
I0
sg57
I6
ssI30
(dp132
g55
I8
sg56
I0
sg57
I7
ssI32
(dp133
g55
I8
sg56
I0
sg57
I9
ssI33
(dp134
g55
I8
sg56
I0
sg57
I4
ssI34
(dp135
g55
I7
sg56
I0
sg57
I3
ssI35
(dp136
g55
I5
sg56
I0
sg57
I8
ssI38
(dp137
g55
I7
sg56
I0
sg57
I7
ssI39
(dp138
g55
I5
sg56
I0
sg57
I2
ssI40
(dp139
g55
I8
sg56
I0
sg57
I7
sssI5
(dp140
I32
(dp141
g55
I8
sg56
I0
sg57
I5
ssI1
(dp142
g55
I8
sg56
I0
sg57
I8
ssI35
(dp143
g55
I8
sg56
I0
sg57
I1
ssI4
(dp144
g55
I6
sg56
I0
sg57
I0
ssI37
(dp145
g55
I7
sg56
I0
sg57
I4
ssI6
(dp146
g55
I6
sg56
I0
sg57
I4
ssI7
(dp147
g55
I7
sg56
I0
sg57
I8
ssI17
(dp148
g55
I5
sg56
I0
sg57
I7
ssI18
(dp149
g55
I8
sg56
I0
sg57
I8
ssI20
(dp150
g55
I5
sg56
I0
sg57
I7
ssI21
(dp151
g55
I5
sg56
I0
sg57
I3
ssI22
(dp152
g55
I6
sg56
I0
sg57
I4
ssI36
(dp153
g55
I6
sg56
I0
sg57
I6
ssI29
(dp154
g55
I8
sg56
I0
sg57
I9
ssI30
(dp155
g55
I5
sg56
I0
sg57
I2
sssI6
(dp156
I32
(dp157
g55
I8
sg56
I0
sg57
I10
ssI1
(dp158
g55
I6
sg56
I0
sg57
I3
ssI2
(dp159
g55
I6
sg56
I0
sg57
I7
ssI3
(dp160
g55
I5
sg56
I0
sg57
I9
ssI5
(dp161
g55
I5
sg56
I0
sg57
I0
ssI7
(dp162
g55
I8
sg56
I0
sg57
I8
ssI8
(dp163
g55
I5
sg56
I0
sg57
I7
ssI12
(dp164
g55
I5
sg56
I0
sg57
I3
ssI13
(dp165
g55
I7
sg56
I0
sg57
I0
ssI14
(dp166
g55
I7
sg56
I0
sg57
I7
ssI17
(dp167
g55
I7
sg56
I0
sg57
I5
ssI35
(dp168
g55
I6
sg56
I0
sg57
I5
ssI23
(dp169
g55
I5
sg56
I0
sg57
I1
ssI26
(dp170
g55
I6
sg56
I0
sg57
I0
ssI31
(dp171
g55
I6
sg56
I0
sg57
I7
ssI29
(dp172
g55
I8
sg56
I0
sg57
I7
ssI30
(dp173
g55
I5
sg56
I0
sg57
I9
ssI37
(dp174
g55
I5
sg56
I0
sg57
I6
sssI7
(dp175
I32
(dp176
g55
I6
sg56
I0
sg57
I2
ssI33
(dp177
g55
I7
sg56
I0
sg57
I1
ssI2
(dp178
g55
I6
sg56
I0
sg57
I6
ssI3
(dp179
g55
I5
sg56
I0
sg57
I4
ssI36
(dp180
g55
I6
sg56
I0
sg57
I5
ssI38
(dp181
g55
I8
sg56
I0
sg57
I0
ssI1
(dp182
g55
I8
sg56
I0
sg57
I0
ssI9
(dp183
g55
I7
sg56
I0
sg57
I3
ssI39
(dp184
g55
I8
sg56
I0
sg57
I7
ssI13
(dp185
g55
I5
sg56
I0
sg57
I2
ssI14
(dp186
g55
I6
sg56
I0
sg57
I3
ssI34
(dp187
g55
I5
sg56
I0
sg57
I3
ssI18
(dp188
g55
I5
sg56
I0
sg57
I8
ssI19
(dp189
g55
I8
sg56
I0
sg57
I1
ssI20
(dp190
g55
I5
sg56
I0
sg57
I4
ssI21
(dp191
g55
I8
sg56
I0
sg57
I1
ssI22
(dp192
g55
I7
sg56
I0
sg57
I8
ssI24
(dp193
g55
I8
sg56
I0
sg57
I0
ssI25
(dp194
g55
I5
sg56
I0
sg57
I6
ssI16
(dp195
g55
I5
sg56
I0
sg57
I4
ssI31
(dp196
g55
I5
sg56
I0
sg57
I10
sssI8
(dp197
I1
(dp198
g55
I8
sg56
I0
sg57
I1
ssI2
(dp199
g55
I5
sg56
I0
sg57
I2
ssI3
(dp200
g55
I7
sg56
I0
sg57
I2
ssI4
(dp201
g55
I8
sg56
I0
sg57
I2
ssI5
(dp202
g55
I8
sg56
I0
sg57
I8
ssI7
(dp203
g55
I5
sg56
I0
sg57
I10
ssI9
(dp204
g55
I5
sg56
I0
sg57
I8
ssI11
(dp205
g55
I5
sg56
I0
sg57
I8
ssI13
(dp206
g55
I7
sg56
I0
sg57
I10
ssI14
(dp207
g55
I7
sg56
I0
sg57
I10
ssI15
(dp208
g55
I5
sg56
I0
sg57
I5
ssI17
(dp209
g55
I5
sg56
I0
sg57
I3
ssI18
(dp210
g55
I5
sg56
I0
sg57
I6
ssI19
(dp211
g55
I6
sg56
I0
sg57
I5
ssI21
(dp212
g55
I6
sg56
I0
sg57
I4
ssI22
(dp213
g55
I6
sg56
I0
sg57
I5
ssI23
(dp214
g55
I5
sg56
I0
sg57
I0
ssI24
(dp215
g55
I6
sg56
I0
sg57
I1
ssI26
(dp216
g55
I5
sg56
I0
sg57
I4
ssI36
(dp217
g55
I7
sg56
I0
sg57
I9
ssI37
(dp218
g55
I7
sg56
I0
sg57
I8
ssI38
(dp219
g55
I5
sg56
I0
sg57
I5
ssI39
(dp220
g55
I7
sg56
I0
sg57
I4
sssI9
(dp221
I3
(dp222
g55
I5
sg56
I0
sg57
I5
ssI4
(dp223
g55
I6
sg56
I0
sg57
I5
ssI37
(dp224
g55
I6
sg56
I0
sg57
I3
ssI7
(dp225
g55
I6
sg56
I0
sg57
I0
ssI8
(dp226
g55
I8
sg56
I0
sg57
I8
ssI39
(dp227
g55
I8
sg56
I0
sg57
I6
ssI12
(dp228
g55
I7
sg56
I0
sg57
I5
ssI13
(dp229
g55
I8
sg56
I0
sg57
I10
ssI14
(dp230
g55
I6
sg56
I0
sg57
I7
ssI16
(dp231
g55
I5
sg56
I0
sg57
I6
ssI19
(dp232
g55
I8
sg56
I0
sg57
I10
ssI21
(dp233
g55
I8
sg56
I0
sg57
I7
ssI24
(dp234
g55
I7
sg56
I0
sg57
I9
ssI29
(dp235
g55
I6
sg56
I0
sg57
I1
ssI30
(dp236
g55
I5
sg56
I0
sg57
I9
ssI5
(dp237
g55
I7
sg56
I0
sg57
I3
sssI10
(dp238
I32
(dp239
g55
I8
sg56
I0
sg57
I6
ssI1
(dp240
g55
I8
sg56
I0
sg57
I2
ssI2
(dp241
g55
I6
sg56
I0
sg57
I4
ssI35
(dp242
g55
I6
sg56
I0
sg57
I3
ssI37
(dp243
g55
I8
sg56
I0
sg57
I7
ssI38
(dp244
g55
I5
sg56
I0
sg57
I10
ssI7
(dp245
g55
I7
sg56
I0
sg57
I4
ssI9
(dp246
g55
I6
sg56
I0
sg57
I6
ssI11
(dp247
g55
I7
sg56
I0
sg57
I8
ssI12
(dp248
g55
I7
sg56
I0
sg57
I4
ssI17
(dp249
g55
I7
sg56
I0
sg57
I10
ssI18
(dp250
g55
I7
sg56
I0
sg57
I0
ssI19
(dp251
g55
I5
sg56
I0
sg57
I2
ssI21
(dp252
g55
I5
sg56
I0
sg57
I8
ssI22
(dp253
g55
I6
sg56
I0
sg57
I10
ssI25
(dp254
g55
I6
sg56
I0
sg57
I5
ssI26
(dp255
g55
I5
sg56
I0
sg57
I4
ssI27
(dp256
g55
I8
sg56
I0
sg57
I5
ssI39
(dp257
g55
I7
sg56
I0
sg57
I2
ssI3
(dp258
g55
I6
sg56
I0
sg57
I9
sssI11
(dp259
I32
(dp260
g55
I6
sg56
I0
sg57
I8
ssI1
(dp261
g55
I8
sg56
I0
sg57
I6
ssI34
(dp262
g55
I7
sg56
I0
sg57
I4
ssI35
(dp263
g55
I6
sg56
I0
sg57
I6
ssI36
(dp264
g55
I6
sg56
I0
sg57
I10
ssI37
(dp265
g55
I5
sg56
I0
sg57
I0
ssI38
(dp266
g55
I6
sg56
I0
sg57
I2
ssI7
(dp267
g55
I7
sg56
I0
sg57
I6
ssI40
(dp268
g55
I6
sg56
I0
sg57
I3
ssI10
(dp269
g55
I8
sg56
I0
sg57
I10
ssI13
(dp270
g55
I7
sg56
I0
sg57
I4
ssI15
(dp271
g55
I7
sg56
I0
sg57
I7
ssI16
(dp272
g55
I7
sg56
I0
sg57
I0
ssI8
(dp273
g55
I8
sg56
I0
sg57
I0
ssI18
(dp274
g55
I8
sg56
I0
sg57
I4
ssI20
(dp275
g55
I6
sg56
I0
sg57
I3
ssI22
(dp276
g55
I6
sg56
I0
sg57
I10
ssI25
(dp277
g55
I5
sg56
I0
sg57
I9
ssI26
(dp278
g55
I5
sg56
I0
sg57
I8
ssI29
(dp279
g55
I8
sg56
I0
sg57
I10
ssI30
(dp280
g55
I5
sg56
I0
sg57
I6
sssI12
(dp281
I32
(dp282
g55
I5
sg56
I0
sg57
I10
ssI1
(dp283
g55
I8
sg56
I0
sg57
I4
ssI27
(dp284
g55
I7
sg56
I0
sg57
I0
ssI36
(dp285
g55
I7
sg56
I0
sg57
I4
ssI37
(dp286
g55
I7
sg56
I0
sg57
I8
ssI6
(dp287
g55
I5
sg56
I0
sg57
I2
ssI39
(dp288
g55
I6
sg56
I0
sg57
I0
ssI40
(dp289
g55
I6
sg56
I0
sg57
I9
ssI9
(dp290
g55
I8
sg56
I0
sg57
I1
ssI13
(dp291
g55
I6
sg56
I0
sg57
I1
ssI14
(dp292
g55
I5
sg56
I0
sg57
I10
ssI16
(dp293
g55
I7
sg56
I0
sg57
I9
ssI8
(dp294
g55
I6
sg56
I0
sg57
I6
ssI21
(dp295
g55
I7
sg56
I0
sg57
I9
ssI22
(dp296
g55
I6
sg56
I0
sg57
I9
ssI24
(dp297
g55
I7
sg56
I0
sg57
I8
ssI31
(dp298
g55
I5
sg56
I0
sg57
I10
ssI30
(dp299
g55
I7
sg56
I0
sg57
I4
ssI5
(dp300
g55
I6
sg56
I0
sg57
I0
sssI13
(dp301
I1
(dp302
g55
I6
sg56
I0
sg57
I4
ssI2
(dp303
g55
I7
sg56
I0
sg57
I1
ssI3
(dp304
g55
I7
sg56
I0
sg57
I1
ssI36
(dp305
g55
I5
sg56
I0
sg57
I5
ssI33
(dp306
g55
I8
sg56
I0
sg57
I3
ssI38
(dp307
g55
I6
sg56
I0
sg57
I5
ssI7
(dp308
g55
I8
sg56
I0
sg57
I9
ssI40
(dp309
g55
I7
sg56
I0
sg57
I8
ssI11
(dp310
g55
I6
sg56
I0
sg57
I7
ssI34
(dp311
g55
I7
sg56
I0
sg57
I7
ssI15
(dp312
g55
I5
sg56
I0
sg57
I2
ssI16
(dp313
g55
I6
sg56
I0
sg57
I4
ssI19
(dp314
g55
I8
sg56
I0
sg57
I10
ssI21
(dp315
g55
I5
sg56
I0
sg57
I8
ssI22
(dp316
g55
I7
sg56
I0
sg57
I1
ssI23
(dp317
g55
I5
sg56
I0
sg57
I3
ssI25
(dp318
g55
I5
sg56
I0
sg57
I0
ssI27
(dp319
g55
I5
sg56
I0
sg57
I5
ssI28
(dp320
g55
I7
sg56
I0
sg57
I4
ssI31
(dp321
g55
I5
sg56
I0
sg57
I6
sssI14
(dp322
I32
(dp323
g55
I8
sg56
I0
sg57
I3
ssI33
(dp324
g55
I5
sg56
I0
sg57
I5
ssI34
(dp325
g55
I8
sg56
I0
sg57
I6
ssI36
(dp326
g55
I6
sg56
I0
sg57
I0
ssI5
(dp327
g55
I8
sg56
I0
sg57
I10
ssI8
(dp328
g55
I8
sg56
I0
sg57
I8
ssI31
(dp329
g55
I6
sg56
I0
sg57
I2
ssI2
(dp330
g55
I6
sg56
I0
sg57
I3
ssI13
(dp331
g55
I8
sg56
I0
sg57
I4
ssI16
(dp332
g55
I7
sg56
I0
sg57
I4
ssI19
(dp333
g55
I6
sg56
I0
sg57
I4
ssI20
(dp334
g55
I6
sg56
I0
sg57
I7
ssI4
(dp335
g55
I7
sg56
I0
sg57
I10
ssI27
(dp336
g55
I7
sg56
I0
sg57
I7
ssI28
(dp337
g55
I6
sg56
I0
sg57
I2
ssI37
(dp338
g55
I6
sg56
I0
sg57
I1
sssI15
(dp339
I33
(dp340
g55
I7
sg56
I0
sg57
I7
ssI34
(dp341
g55
I6
sg56
I0
sg57
I1
ssI3
(dp342
g55
I7
sg56
I0
sg57
I1
ssI31
(dp343
g55
I7
sg56
I0
sg57
I10
ssI37
(dp344
g55
I7
sg56
I0
sg57
I0
ssI38
(dp345
g55
I7
sg56
I0
sg57
I5
ssI39
(dp346
g55
I6
sg56
I0
sg57
I5
ssI8
(dp347
g55
I5
sg56
I0
sg57
I7
ssI9
(dp348
g55
I5
sg56
I0
sg57
I2
ssI2
(dp349
g55
I7
sg56
I0
sg57
I9
ssI14
(dp350
g55
I5
sg56
I0
sg57
I7
ssI16
(dp351
g55
I5
sg56
I0
sg57
I10
ssI19
(dp352
g55
I7
sg56
I0
sg57
I7
ssI20
(dp353
g55
I8
sg56
I0
sg57
I7
ssI21
(dp354
g55
I7
sg56
I0
sg57
I4
ssI22
(dp355
g55
I7
sg56
I0
sg57
I8
ssI26
(dp356
g55
I5
sg56
I0
sg57
I7
ssI27
(dp357
g55
I7
sg56
I0
sg57
I1
ssI29
(dp358
g55
I5
sg56
I0
sg57
I5
ssI30
(dp359
g55
I8
sg56
I0
sg57
I3
ssI5
(dp360
g55
I5
sg56
I0
sg57
I8
sssI16
(dp361
I19
(dp362
g55
I5
sg56
I0
sg57
I8
ssI33
(dp363
g55
I8
sg56
I0
sg57
I4
ssI34
(dp364
g55
I5
sg56
I0
sg57
I9
ssI3
(dp365
g55
I6
sg56
I0
sg57
I8
ssI1
(dp366
g55
I8
sg56
I0
sg57
I8
ssI7
(dp367
g55
I8
sg56
I0
sg57
I6
ssI9
(dp368
g55
I5
sg56
I0
sg57
I2
ssI12
(dp369
g55
I8
sg56
I0
sg57
I0
ssI35
(dp370
g55
I6
sg56
I0
sg57
I4
ssI21
(dp371
g55
I5
sg56
I0
sg57
I9
ssI25
(dp372
g55
I8
sg56
I0
sg57
I9
ssI26
(dp373
g55
I6
sg56
I0
sg57
I1
ssI29
(dp374
g55
I8
sg56
I0
sg57
I1
ssI4
(dp375
g55
I5
sg56
I0
sg57
I7
ssI31
(dp376
g55
I5
sg56
I0
sg57
I8
sssI17
(dp377
I36
(dp378
g55
I5
sg56
I0
sg57
I2
ssI37
(dp379
g55
I6
sg56
I0
sg57
I10
ssI38
(dp380
g55
I5
sg56
I0
sg57
I6
ssI7
(dp381
g55
I7
sg56
I0
sg57
I10
ssI8
(dp382
g55
I7
sg56
I0
sg57
I3
ssI10
(dp383
g55
I8
sg56
I0
sg57
I9
ssI11
(dp384
g55
I5
sg56
I0
sg57
I4
ssI14
(dp385
g55
I8
sg56
I0
sg57
I3
ssI15
(dp386
g55
I7
sg56
I0
sg57
I6
ssI18
(dp387
g55
I5
sg56
I0
sg57
I5
ssI20
(dp388
g55
I7
sg56
I0
sg57
I6
ssI22
(dp389
g55
I6
sg56
I0
sg57
I3
ssI23
(dp390
g55
I6
sg56
I0
sg57
I9
ssI39
(dp391
g55
I5
sg56
I0
sg57
I9
ssI26
(dp392
g55
I6
sg56
I0
sg57
I3
ssI28
(dp393
g55
I7
sg56
I0
sg57
I2
ssI29
(dp394
g55
I5
sg56
I0
sg57
I3
ssI30
(dp395
g55
I8
sg56
I0
sg57
I9
ssI31
(dp396
g55
I6
sg56
I0
sg57
I2
sssI18
(dp397
I32
(dp398
g55
I8
sg56
I0
sg57
I2
ssI33
(dp399
g55
I5
sg56
I0
sg57
I4
ssI34
(dp400
g55
I5
sg56
I0
sg57
I1
ssI3
(dp401
g55
I8
sg56
I0
sg57
I6
ssI5
(dp402
g55
I5
sg56
I0
sg57
I9
ssI6
(dp403
g55
I5
sg56
I0
sg57
I6
ssI40
(dp404
g55
I6
sg56
I0
sg57
I8
ssI9
(dp405
g55
I5
sg56
I0
sg57
I6
ssI11
(dp406
g55
I6
sg56
I0
sg57
I8
ssI12
(dp407
g55
I5
sg56
I0
sg57
I9
ssI2
(dp408
g55
I5
sg56
I0
sg57
I6
ssI13
(dp409
g55
I8
sg56
I0
sg57
I10
ssI16
(dp410
g55
I5
sg56
I0
sg57
I7
ssI8
(dp411
g55
I7
sg56
I0
sg57
I7
ssI22
(dp412
g55
I5
sg56
I0
sg57
I1
ssI23
(dp413
g55
I6
sg56
I0
sg57
I2
ssI25
(dp414
g55
I6
sg56
I0
sg57
I9
ssI26
(dp415
g55
I5
sg56
I0
sg57
I3
ssI38
(dp416
g55
I6
sg56
I0
sg57
I8
ssI31
(dp417
g55
I8
sg56
I0
sg57
I8
sssI19
(dp418
I1
(dp419
g55
I5
sg56
I0
sg57
I0
ssI35
(dp420
g55
I8
sg56
I0
sg57
I5
ssI36
(dp421
g55
I8
sg56
I0
sg57
I6
ssI33
(dp422
g55
I8
sg56
I0
sg57
I4
ssI39
(dp423
g55
I7
sg56
I0
sg57
I8
ssI9
(dp424
g55
I7
sg56
I0
sg57
I10
ssI10
(dp425
g55
I7
sg56
I0
sg57
I9
ssI7
(dp426
g55
I7
sg56
I0
sg57
I10
ssI14
(dp427
g55
I8
sg56
I0
sg57
I4
ssI15
(dp428
g55
I5
sg56
I0
sg57
I3
ssI16
(dp429
g55
I6
sg56
I0
sg57
I2
ssI17
(dp430
g55
I7
sg56
I0
sg57
I2
ssI18
(dp431
g55
I8
sg56
I0
sg57
I9
ssI3
(dp432
g55
I8
sg56
I0
sg57
I5
ssI20
(dp433
g55
I8
sg56
I0
sg57
I1
ssI23
(dp434
g55
I5
sg56
I0
sg57
I6
ssI4
(dp435
g55
I7
sg56
I0
sg57
I5
ssI26
(dp436
g55
I8
sg56
I0
sg57
I0
ssI27
(dp437
g55
I8
sg56
I0
sg57
I7
ssI29
(dp438
g55
I6
sg56
I0
sg57
I6
sssI20
(dp439
I32
(dp440
g55
I6
sg56
I0
sg57
I3
ssI1
(dp441
g55
I5
sg56
I0
sg57
I8
ssI34
(dp442
g55
I8
sg56
I0
sg57
I4
ssI35
(dp443
g55
I5
sg56
I0
sg57
I3
ssI4
(dp444
g55
I8
sg56
I0
sg57
I2
ssI37
(dp445
g55
I6
sg56
I0
sg57
I3
ssI38
(dp446
g55
I7
sg56
I0
sg57
I10
ssI7
(dp447
g55
I5
sg56
I0
sg57
I1
ssI40
(dp448
g55
I7
sg56
I0
sg57
I10
ssI11
(dp449
g55
I8
sg56
I0
sg57
I10
ssI16
(dp450
g55
I8
sg56
I0
sg57
I2
ssI17
(dp451
g55
I6
sg56
I0
sg57
I3
ssI3
(dp452
g55
I5
sg56
I0
sg57
I0
ssI26
(dp453
g55
I7
sg56
I0
sg57
I2
ssI28
(dp454
g55
I5
sg56
I0
sg57
I4
ssI29
(dp455
g55
I5
sg56
I0
sg57
I3
ssI30
(dp456
g55
I8
sg56
I0
sg57
I9
ssI5
(dp457
g55
I8
sg56
I0
sg57
I8
sssI21
(dp458
I1
(dp459
g55
I7
sg56
I0
sg57
I8
ssI35
(dp460
g55
I8
sg56
I0
sg57
I7
ssI5
(dp461
g55
I7
sg56
I0
sg57
I3
ssI38
(dp462
g55
I7
sg56
I0
sg57
I8
ssI33
(dp463
g55
I5
sg56
I0
sg57
I10
ssI8
(dp464
g55
I7
sg56
I0
sg57
I9
ssI7
(dp465
g55
I6
sg56
I0
sg57
I8
ssI12
(dp466
g55
I6
sg56
I0
sg57
I6
ssI14
(dp467
g55
I6
sg56
I0
sg57
I1
ssI15
(dp468
g55
I6
sg56
I0
sg57
I3
ssI40
(dp469
g55
I5
sg56
I0
sg57
I6
ssI3
(dp470
g55
I7
sg56
I0
sg57
I5
ssI20
(dp471
g55
I5
sg56
I0
sg57
I6
ssI22
(dp472
g55
I8
sg56
I0
sg57
I5
ssI25
(dp473
g55
I8
sg56
I0
sg57
I4
ssI26
(dp474
g55
I5
sg56
I0
sg57
I7
ssI27
(dp475
g55
I7
sg56
I0
sg57
I3
ssI29
(dp476
g55
I8
sg56
I0
sg57
I4
ssI30
(dp477
g55
I5
sg56
I0
sg57
I3
ssI31
(dp478
g55
I5
sg56
I0
sg57
I0
sssI22
(dp479
I34
(dp480
g55
I7
sg56
I0
sg57
I7
ssI38
(dp481
g55
I6
sg56
I0
sg57
I9
ssI40
(dp482
g55
I8
sg56
I0
sg57
I9
ssI10
(dp483
g55
I6
sg56
I0
sg57
I2
ssI2
(dp484
g55
I8
sg56
I0
sg57
I9
ssI15
(dp485
g55
I8
sg56
I0
sg57
I4
ssI19
(dp486
g55
I8
sg56
I0
sg57
I1
ssI21
(dp487
g55
I7
sg56
I0
sg57
I10
ssI27
(dp488
g55
I7
sg56
I0
sg57
I6
ssI28
(dp489
g55
I5
sg56
I0
sg57
I9
ssI31
(dp490
g55
I7
sg56
I0
sg57
I7
sssI23
(dp491
I32
(dp492
g55
I5
sg56
I0
sg57
I7
ssI1
(dp493
g55
I6
sg56
I0
sg57
I4
ssI3
(dp494
g55
I7
sg56
I0
sg57
I0
ssI4
(dp495
g55
I6
sg56
I0
sg57
I5
ssI6
(dp496
g55
I5
sg56
I0
sg57
I8
ssI38
(dp497
g55
I7
sg56
I0
sg57
I10
ssI39
(dp498
g55
I6
sg56
I0
sg57
I2
ssI12
(dp499
g55
I8
sg56
I0
sg57
I0
ssI15
(dp500
g55
I8
sg56
I0
sg57
I8
ssI19
(dp501
g55
I8
sg56
I0
sg57
I4
ssI21
(dp502
g55
I7
sg56
I0
sg57
I0
ssI22
(dp503
g55
I5
sg56
I0
sg57
I4
ssI25
(dp504
g55
I7
sg56
I0
sg57
I5
ssI33
(dp505
g55
I5
sg56
I0
sg57
I0
ssI28
(dp506
g55
I6
sg56
I0
sg57
I2
ssI29
(dp507
g55
I5
sg56
I0
sg57
I3
ssI31
(dp508
g55
I5
sg56
I0
sg57
I7
sssI24
(dp509
I2
(dp510
g55
I6
sg56
I0
sg57
I0
ssI35
(dp511
g55
I7
sg56
I0
sg57
I3
ssI36
(dp512
g55
I8
sg56
I0
sg57
I3
ssI37
(dp513
g55
I6
sg56
I0
sg57
I9
ssI6
(dp514
g55
I6
sg56
I0
sg57
I9
ssI40
(dp515
g55
I6
sg56
I0
sg57
I10
ssI10
(dp516
g55
I5
sg56
I0
sg57
I4
ssI11
(dp517
g55
I8
sg56
I0
sg57
I7
ssI13
(dp518
g55
I7
sg56
I0
sg57
I4
ssI15
(dp519
g55
I6
sg56
I0
sg57
I4
ssI16
(dp520
g55
I8
sg56
I0
sg57
I8
ssI18
(dp521
g55
I6
sg56
I0
sg57
I0
ssI19
(dp522
g55
I8
sg56
I0
sg57
I3
ssI21
(dp523
g55
I6
sg56
I0
sg57
I3
ssI22
(dp524
g55
I8
sg56
I0
sg57
I8
ssI25
(dp525
g55
I5
sg56
I0
sg57
I3
ssI38
(dp526
g55
I6
sg56
I0
sg57
I9
ssI28
(dp527
g55
I7
sg56
I0
sg57
I9
ssI29
(dp528
g55
I7
sg56
I0
sg57
I8
ssI30
(dp529
g55
I6
sg56
I0
sg57
I2
ssI5
(dp530
g55
I7
sg56
I0
sg57
I8
sssI25
(dp531
I2
(dp532
g55
I6
sg56
I0
sg57
I5
ssI3
(dp533
g55
I8
sg56
I0
sg57
I8
ssI6
(dp534
g55
I5
sg56
I0
sg57
I7
ssI9
(dp535
g55
I6
sg56
I0
sg57
I10
ssI10
(dp536
g55
I7
sg56
I0
sg57
I8
ssI11
(dp537
g55
I6
sg56
I0
sg57
I7
ssI14
(dp538
g55
I6
sg56
I0
sg57
I1
ssI15
(dp539
g55
I8
sg56
I0
sg57
I7
ssI16
(dp540
g55
I6
sg56
I0
sg57
I5
ssI17
(dp541
g55
I6
sg56
I0
sg57
I4
ssI18
(dp542
g55
I7
sg56
I0
sg57
I5
ssI19
(dp543
g55
I7
sg56
I0
sg57
I9
ssI22
(dp544
g55
I6
sg56
I0
sg57
I6
ssI24
(dp545
g55
I8
sg56
I0
sg57
I7
ssI28
(dp546
g55
I8
sg56
I0
sg57
I9
ssI29
(dp547
g55
I8
sg56
I0
sg57
I3
ssI31
(dp548
g55
I7
sg56
I0
sg57
I4
ssI32
(dp549
g55
I7
sg56
I0
sg57
I1
ssI33
(dp550
g55
I5
sg56
I0
sg57
I7
ssI35
(dp551
g55
I5
sg56
I0
sg57
I1
ssI36
(dp552
g55
I8
sg56
I0
sg57
I10
ssI38
(dp553
g55
I8
sg56
I0
sg57
I2
ssI40
(dp554
g55
I8
sg56
I0
sg57
I2
sssI26
(dp555
I32
(dp556
g55
I5
sg56
I0
sg57
I10
ssI2
(dp557
g55
I7
sg56
I0
sg57
I8
ssI3
(dp558
g55
I8
sg56
I0
sg57
I3
ssI4
(dp559
g55
I7
sg56
I0
sg57
I3
ssI37
(dp560
g55
I7
sg56
I0
sg57
I7
ssI38
(dp561
g55
I8
sg56
I0
sg57
I7
ssI39
(dp562
g55
I7
sg56
I0
sg57
I7
ssI10
(dp563
g55
I6
sg56
I0
sg57
I10
ssI11
(dp564
g55
I6
sg56
I0
sg57
I8
ssI14
(dp565
g55
I6
sg56
I0
sg57
I10
ssI15
(dp566
g55
I7
sg56
I0
sg57
I5
ssI17
(dp567
g55
I5
sg56
I0
sg57
I6
ssI18
(dp568
g55
I6
sg56
I0
sg57
I5
ssI19
(dp569
g55
I6
sg56
I0
sg57
I8
ssI20
(dp570
g55
I8
sg56
I0
sg57
I1
ssI23
(dp571
g55
I7
sg56
I0
sg57
I8
ssI24
(dp572
g55
I7
sg56
I0
sg57
I10
ssI36
(dp573
g55
I7
sg56
I0
sg57
I4
ssI27
(dp574
g55
I7
sg56
I0
sg57
I1
sssI27
(dp575
I32
(dp576
g55
I6
sg56
I0
sg57
I2
ssI33
(dp577
g55
I8
sg56
I0
sg57
I8
ssI2
(dp578
g55
I8
sg56
I0
sg57
I8
ssI3
(dp579
g55
I8
sg56
I0
sg57
I1
ssI36
(dp580
g55
I8
sg56
I0
sg57
I0
ssI38
(dp581
g55
I8
sg56
I0
sg57
I10
ssI7
(dp582
g55
I5
sg56
I0
sg57
I6
ssI8
(dp583
g55
I7
sg56
I0
sg57
I4
ssI9
(dp584
g55
I7
sg56
I0
sg57
I8
ssI12
(dp585
g55
I7
sg56
I0
sg57
I8
ssI13
(dp586
g55
I7
sg56
I0
sg57
I6
ssI15
(dp587
g55
I6
sg56
I0
sg57
I5
ssI17
(dp588
g55
I6
sg56
I0
sg57
I0
ssI18
(dp589
g55
I6
sg56
I0
sg57
I5
ssI19
(dp590
g55
I5
sg56
I0
sg57
I5
ssI20
(dp591
g55
I5
sg56
I0
sg57
I4
ssI21
(dp592
g55
I6
sg56
I0
sg57
I8
ssI25
(dp593
g55
I7
sg56
I0
sg57
I6
ssI29
(dp594
g55
I7
sg56
I0
sg57
I6
ssI31
(dp595
g55
I5
sg56
I0
sg57
I7
sssI28
(dp596
I33
(dp597
g55
I5
sg56
I0
sg57
I4
ssI2
(dp598
g55
I7
sg56
I0
sg57
I7
ssI5
(dp599
g55
I8
sg56
I0
sg57
I6
ssI7
(dp600
g55
I6
sg56
I0
sg57
I7
ssI8
(dp601
g55
I8
sg56
I0
sg57
I10
ssI39
(dp602
g55
I8
sg56
I0
sg57
I7
ssI12
(dp603
g55
I7
sg56
I0
sg57
I2
ssI13
(dp604
g55
I8
sg56
I0
sg57
I10
ssI14
(dp605
g55
I6
sg56
I0
sg57
I5
ssI15
(dp606
g55
I6
sg56
I0
sg57
I10
ssI16
(dp607
g55
I5
sg56
I0
sg57
I3
ssI37
(dp608
g55
I6
sg56
I0
sg57
I7
ssI20
(dp609
g55
I8
sg56
I0
sg57
I5
ssI22
(dp610
g55
I5
sg56
I0
sg57
I3
ssI26
(dp611
g55
I6
sg56
I0
sg57
I5
ssI27
(dp612
g55
I5
sg56
I0
sg57
I9
ssI29
(dp613
g55
I5
sg56
I0
sg57
I1
ssI30
(dp614
g55
I7
sg56
I0
sg57
I2
ssI31
(dp615
g55
I7
sg56
I0
sg57
I2
sssI29
(dp616
I1
(dp617
g55
I8
sg56
I0
sg57
I1
ssI2
(dp618
g55
I6
sg56
I0
sg57
I9
ssI3
(dp619
g55
I8
sg56
I0
sg57
I7
ssI5
(dp620
g55
I8
sg56
I0
sg57
I0
ssI6
(dp621
g55
I8
sg56
I0
sg57
I5
ssI7
(dp622
g55
I8
sg56
I0
sg57
I1
ssI10
(dp623
g55
I8
sg56
I0
sg57
I3
ssI11
(dp624
g55
I5
sg56
I0
sg57
I7
ssI15
(dp625
g55
I7
sg56
I0
sg57
I5
ssI16
(dp626
g55
I8
sg56
I0
sg57
I2
ssI17
(dp627
g55
I5
sg56
I0
sg57
I1
ssI19
(dp628
g55
I8
sg56
I0
sg57
I1
ssI20
(dp629
g55
I5
sg56
I0
sg57
I8
ssI23
(dp630
g55
I5
sg56
I0
sg57
I2
ssI24
(dp631
g55
I8
sg56
I0
sg57
I9
ssI26
(dp632
g55
I7
sg56
I0
sg57
I3
ssI28
(dp633
g55
I6
sg56
I0
sg57
I4
ssI30
(dp634
g55
I6
sg56
I0
sg57
I3
ssI31
(dp635
g55
I7
sg56
I0
sg57
I10
ssI35
(dp636
g55
I8
sg56
I0
sg57
I6
ssI36
(dp637
g55
I8
sg56
I0
sg57
I5
ssI38
(dp638
g55
I5
sg56
I0
sg57
I3
ssI39
(dp639
g55
I5
sg56
I0
sg57
I3
ssI40
(dp640
g55
I6
sg56
I0
sg57
I9
sssI30
(dp641
I32
(dp642
g55
I7
sg56
I0
sg57
I10
ssI33
(dp643
g55
I8
sg56
I0
sg57
I3
ssI34
(dp644
g55
I5
sg56
I0
sg57
I10
ssI4
(dp645
g55
I6
sg56
I0
sg57
I0
ssI5
(dp646
g55
I6
sg56
I0
sg57
I7
ssI6
(dp647
g55
I6
sg56
I0
sg57
I3
ssI7
(dp648
g55
I8
sg56
I0
sg57
I0
ssI40
(dp649
g55
I6
sg56
I0
sg57
I2
ssI9
(dp650
g55
I8
sg56
I0
sg57
I3
ssI11
(dp651
g55
I8
sg56
I0
sg57
I0
ssI15
(dp652
g55
I8
sg56
I0
sg57
I3
ssI16
(dp653
g55
I5
sg56
I0
sg57
I5
ssI17
(dp654
g55
I6
sg56
I0
sg57
I2
ssI25
(dp655
g55
I7
sg56
I0
sg57
I5
ssI29
(dp656
g55
I5
sg56
I0
sg57
I9
sssI31
(dp657
I1
(dp658
g55
I7
sg56
I0
sg57
I5
ssI34
(dp659
g55
I5
sg56
I0
sg57
I10
ssI35
(dp660
g55
I8
sg56
I0
sg57
I3
ssI36
(dp661
g55
I8
sg56
I0
sg57
I5
ssI37
(dp662
g55
I5
sg56
I0
sg57
I8
ssI39
(dp663
g55
I7
sg56
I0
sg57
I5
ssI8
(dp664
g55
I8
sg56
I0
sg57
I7
ssI9
(dp665
g55
I7
sg56
I0
sg57
I0
ssI10
(dp666
g55
I8
sg56
I0
sg57
I0
ssI11
(dp667
g55
I5
sg56
I0
sg57
I4
ssI12
(dp668
g55
I5
sg56
I0
sg57
I1
ssI14
(dp669
g55
I6
sg56
I0
sg57
I6
ssI19
(dp670
g55
I7
sg56
I0
sg57
I1
ssI22
(dp671
g55
I8
sg56
I0
sg57
I7
ssI29
(dp672
g55
I6
sg56
I0
sg57
I2
ssI30
(dp673
g55
I6
sg56
I0
sg57
I5
ssI5
(dp674
g55
I7
sg56
I0
sg57
I9
sssI32
(dp675
I1
(dp676
g55
I6
sg56
I0
sg57
I0
ssI3
(dp677
g55
I7
sg56
I0
sg57
I2
ssI4
(dp678
g55
I7
sg56
I0
sg57
I8
ssI5
(dp679
g55
I5
sg56
I0
sg57
I3
ssI7
(dp680
g55
I8
sg56
I0
sg57
I5
ssI8
(dp681
g55
I6
sg56
I0
sg57
I6
ssI10
(dp682
g55
I7
sg56
I0
sg57
I2
ssI11
(dp683
g55
I7
sg56
I0
sg57
I5
ssI12
(dp684
g55
I5
sg56
I0
sg57
I7
ssI13
(dp685
g55
I7
sg56
I0
sg57
I8
ssI16
(dp686
g55
I7
sg56
I0
sg57
I1
ssI17
(dp687
g55
I5
sg56
I0
sg57
I3
ssI20
(dp688
g55
I8
sg56
I0
sg57
I4
ssI21
(dp689
g55
I7
sg56
I0
sg57
I3
ssI23
(dp690
g55
I5
sg56
I0
sg57
I8
ssI25
(dp691
g55
I6
sg56
I0
sg57
I4
ssI28
(dp692
g55
I6
sg56
I0
sg57
I7
ssI29
(dp693
g55
I8
sg56
I0
sg57
I9
ssI31
(dp694
g55
I7
sg56
I0
sg57
I7
ssI36
(dp695
g55
I6
sg56
I0
sg57
I4
ssI37
(dp696
g55
I6
sg56
I0
sg57
I8
ssI39
(dp697
g55
I5
sg56
I0
sg57
I6
sssI33
(dp698
I32
(dp699
g55
I5
sg56
I0
sg57
I0
ssI2
(dp700
g55
I5
sg56
I0
sg57
I3
ssI35
(dp701
g55
I5
sg56
I0
sg57
I9
ssI36
(dp702
g55
I5
sg56
I0
sg57
I2
ssI5
(dp703
g55
I6
sg56
I0
sg57
I9
ssI6
(dp704
g55
I6
sg56
I0
sg57
I2
ssI39
(dp705
g55
I8
sg56
I0
sg57
I7
ssI40
(dp706
g55
I8
sg56
I0
sg57
I1
ssI11
(dp707
g55
I8
sg56
I0
sg57
I7
ssI12
(dp708
g55
I6
sg56
I0
sg57
I5
ssI14
(dp709
g55
I6
sg56
I0
sg57
I5
ssI16
(dp710
g55
I6
sg56
I0
sg57
I1
ssI17
(dp711
g55
I8
sg56
I0
sg57
I10
ssI19
(dp712
g55
I6
sg56
I0
sg57
I8
ssI23
(dp713
g55
I8
sg56
I0
sg57
I6
ssI24
(dp714
g55
I7
sg56
I0
sg57
I3
ssI4
(dp715
g55
I5
sg56
I0
sg57
I6
ssI29
(dp716
g55
I6
sg56
I0
sg57
I2
ssI30
(dp717
g55
I5
sg56
I0
sg57
I9
sssI34
(dp718
I32
(dp719
g55
I6
sg56
I0
sg57
I9
ssI35
(dp720
g55
I6
sg56
I0
sg57
I2
ssI38
(dp721
g55
I6
sg56
I0
sg57
I10
ssI39
(dp722
g55
I8
sg56
I0
sg57
I1
ssI11
(dp723
g55
I7
sg56
I0
sg57
I8
ssI14
(dp724
g55
I6
sg56
I0
sg57
I5
ssI15
(dp725
g55
I6
sg56
I0
sg57
I5
ssI16
(dp726
g55
I8
sg56
I0
sg57
I10
ssI18
(dp727
g55
I8
sg56
I0
sg57
I7
ssI3
(dp728
g55
I5
sg56
I0
sg57
I6
ssI20
(dp729
g55
I6
sg56
I0
sg57
I1
ssI21
(dp730
g55
I8
sg56
I0
sg57
I7
ssI23
(dp731
g55
I7
sg56
I0
sg57
I6
ssI24
(dp732
g55
I5
sg56
I0
sg57
I4
ssI25
(dp733
g55
I8
sg56
I0
sg57
I5
ssI26
(dp734
g55
I8
sg56
I0
sg57
I9
ssI27
(dp735
g55
I5
sg56
I0
sg57
I10
sssI35
(dp736
I32
(dp737
g55
I5
sg56
I0
sg57
I2
ssI34
(dp738
g55
I8
sg56
I0
sg57
I5
ssI36
(dp739
g55
I7
sg56
I0
sg57
I7
ssI37
(dp740
g55
I6
sg56
I0
sg57
I1
ssI7
(dp741
g55
I8
sg56
I0
sg57
I6
ssI9
(dp742
g55
I7
sg56
I0
sg57
I9
ssI11
(dp743
g55
I8
sg56
I0
sg57
I1
ssI12
(dp744
g55
I5
sg56
I0
sg57
I4
ssI2
(dp745
g55
I5
sg56
I0
sg57
I6
ssI19
(dp746
g55
I6
sg56
I0
sg57
I3
ssI20
(dp747
g55
I7
sg56
I0
sg57
I0
ssI21
(dp748
g55
I7
sg56
I0
sg57
I5
ssI23
(dp749
g55
I8
sg56
I0
sg57
I3
ssI24
(dp750
g55
I5
sg56
I0
sg57
I2
ssI25
(dp751
g55
I5
sg56
I0
sg57
I5
ssI29
(dp752
g55
I6
sg56
I0
sg57
I5
ssI39
(dp753
g55
I5
sg56
I0
sg57
I0
ssI31
(dp754
g55
I7
sg56
I0
sg57
I6
sssI36
(dp755
I1
(dp756
g55
I8
sg56
I0
sg57
I1
ssI5
(dp757
g55
I5
sg56
I0
sg57
I8
ssI6
(dp758
g55
I7
sg56
I0
sg57
I8
ssI7
(dp759
g55
I5
sg56
I0
sg57
I6
ssI9
(dp760
g55
I7
sg56
I0
sg57
I9
ssI10
(dp761
g55
I5
sg56
I0
sg57
I2
ssI11
(dp762
g55
I6
sg56
I0
sg57
I10
ssI12
(dp763
g55
I6
sg56
I0
sg57
I8
ssI14
(dp764
g55
I8
sg56
I0
sg57
I0
ssI15
(dp765
g55
I8
sg56
I0
sg57
I3
ssI16
(dp766
g55
I7
sg56
I0
sg57
I7
ssI17
(dp767
g55
I7
sg56
I0
sg57
I2
ssI19
(dp768
g55
I8
sg56
I0
sg57
I4
ssI23
(dp769
g55
I6
sg56
I0
sg57
I5
ssI24
(dp770
g55
I8
sg56
I0
sg57
I9
ssI25
(dp771
g55
I6
sg56
I0
sg57
I4
ssI26
(dp772
g55
I6
sg56
I0
sg57
I10
ssI27
(dp773
g55
I7
sg56
I0
sg57
I9
ssI29
(dp774
g55
I8
sg56
I0
sg57
I5
ssI30
(dp775
g55
I8
sg56
I0
sg57
I5
ssI32
(dp776
g55
I5
sg56
I0
sg57
I8
ssI33
(dp777
g55
I5
sg56
I0
sg57
I5
ssI34
(dp778
g55
I8
sg56
I0
sg57
I1
ssI35
(dp779
g55
I7
sg56
I0
sg57
I4
ssI37
(dp780
g55
I6
sg56
I0
sg57
I7
ssI38
(dp781
g55
I7
sg56
I0
sg57
I1
ssI40
(dp782
g55
I7
sg56
I0
sg57
I2
sssI37
(dp783
I32
(dp784
g55
I6
sg56
I0
sg57
I6
ssI1
(dp785
g55
I8
sg56
I0
sg57
I8
ssI34
(dp786
g55
I6
sg56
I0
sg57
I4
ssI36
(dp787
g55
I5
sg56
I0
sg57
I6
ssI6
(dp788
g55
I7
sg56
I0
sg57
I5
ssI39
(dp789
g55
I6
sg56
I0
sg57
I6
ssI8
(dp790
g55
I6
sg56
I0
sg57
I7
ssI9
(dp791
g55
I6
sg56
I0
sg57
I6
ssI12
(dp792
g55
I7
sg56
I0
sg57
I4
ssI15
(dp793
g55
I8
sg56
I0
sg57
I5
ssI16
(dp794
g55
I7
sg56
I0
sg57
I0
ssI18
(dp795
g55
I7
sg56
I0
sg57
I1
ssI19
(dp796
g55
I7
sg56
I0
sg57
I4
ssI21
(dp797
g55
I8
sg56
I0
sg57
I1
ssI22
(dp798
g55
I6
sg56
I0
sg57
I5
ssI24
(dp799
g55
I5
sg56
I0
sg57
I3
ssI26
(dp800
g55
I5
sg56
I0
sg57
I2
ssI29
(dp801
g55
I7
sg56
I0
sg57
I6
sssI38
(dp802
I1
(dp803
g55
I7
sg56
I0
sg57
I8
ssI3
(dp804
g55
I6
sg56
I0
sg57
I10
ssI4
(dp805
g55
I5
sg56
I0
sg57
I8
ssI5
(dp806
g55
I7
sg56
I0
sg57
I6
ssI6
(dp807
g55
I7
sg56
I0
sg57
I5
ssI7
(dp808
g55
I6
sg56
I0
sg57
I6
ssI9
(dp809
g55
I8
sg56
I0
sg57
I10
ssI12
(dp810
g55
I6
sg56
I0
sg57
I2
ssI14
(dp811
g55
I8
sg56
I0
sg57
I1
ssI17
(dp812
g55
I7
sg56
I0
sg57
I9
ssI18
(dp813
g55
I6
sg56
I0
sg57
I4
ssI20
(dp814
g55
I7
sg56
I0
sg57
I0
ssI22
(dp815
g55
I7
sg56
I0
sg57
I4
ssI23
(dp816
g55
I7
sg56
I0
sg57
I8
ssI24
(dp817
g55
I5
sg56
I0
sg57
I4
ssI25
(dp818
g55
I8
sg56
I0
sg57
I10
ssI26
(dp819
g55
I7
sg56
I0
sg57
I8
ssI32
(dp820
g55
I7
sg56
I0
sg57
I9
ssI33
(dp821
g55
I6
sg56
I0
sg57
I8
ssI34
(dp822
g55
I5
sg56
I0
sg57
I3
ssI35
(dp823
g55
I7
sg56
I0
sg57
I5
ssI36
(dp824
g55
I6
sg56
I0
sg57
I8
ssI37
(dp825
g55
I5
sg56
I0
sg57
I6
ssI39
(dp826
g55
I7
sg56
I0
sg57
I5
sssI39
(dp827
I3
(dp828
g55
I8
sg56
I0
sg57
I5
ssI4
(dp829
g55
I6
sg56
I0
sg57
I8
ssI6
(dp830
g55
I5
sg56
I0
sg57
I8
ssI7
(dp831
g55
I5
sg56
I0
sg57
I4
ssI9
(dp832
g55
I7
sg56
I0
sg57
I8
ssI12
(dp833
g55
I5
sg56
I0
sg57
I4
ssI13
(dp834
g55
I8
sg56
I0
sg57
I3
ssI15
(dp835
g55
I8
sg56
I0
sg57
I1
ssI16
(dp836
g55
I8
sg56
I0
sg57
I8
ssI17
(dp837
g55
I5
sg56
I0
sg57
I10
ssI19
(dp838
g55
I5
sg56
I0
sg57
I6
ssI20
(dp839
g55
I5
sg56
I0
sg57
I7
ssI21
(dp840
g55
I5
sg56
I0
sg57
I8
ssI22
(dp841
g55
I8
sg56
I0
sg57
I9
ssI23
(dp842
g55
I6
sg56
I0
sg57
I8
ssI27
(dp843
g55
I7
sg56
I0
sg57
I10
ssI28
(dp844
g55
I8
sg56
I0
sg57
I1
ssI29
(dp845
g55
I6
sg56
I0
sg57
I4
ssI30
(dp846
g55
I5
sg56
I0
sg57
I8
ssI32
(dp847
g55
I8
sg56
I0
sg57
I6
ssI33
(dp848
g55
I6
sg56
I0
sg57
I9
ssI34
(dp849
g55
I7
sg56
I0
sg57
I1
ssI36
(dp850
g55
I5
sg56
I0
sg57
I8
ssI37
(dp851
g55
I8
sg56
I0
sg57
I2
sssI40
(dp852
I1
(dp853
g55
I7
sg56
I0
sg57
I4
ssI2
(dp854
g55
I5
sg56
I0
sg57
I7
ssI4
(dp855
g55
I7
sg56
I0
sg57
I10
ssI6
(dp856
g55
I7
sg56
I0
sg57
I5
ssI8
(dp857
g55
I7
sg56
I0
sg57
I3
ssI10
(dp858
g55
I8
sg56
I0
sg57
I0
ssI11
(dp859
g55
I7
sg56
I0
sg57
I7
ssI13
(dp860
g55
I6
sg56
I0
sg57
I5
ssI14
(dp861
g55
I8
sg56
I0
sg57
I1
ssI15
(dp862
g55
I6
sg56
I0
sg57
I0
ssI16
(dp863
g55
I5
sg56
I0
sg57
I9
ssI18
(dp864
g55
I8
sg56
I0
sg57
I5
ssI19
(dp865
g55
I8
sg56
I0
sg57
I5
ssI21
(dp866
g55
I5
sg56
I0
sg57
I10
ssI23
(dp867
g55
I6
sg56
I0
sg57
I4
ssI24
(dp868
g55
I5
sg56
I0
sg57
I3
ssI28
(dp869
g55
I6
sg56
I0
sg57
I4
ssI29
(dp870
g55
I5
sg56
I0
sg57
I2
ssI31
(dp871
g55
I6
sg56
I0
sg57
I10
ssI34
(dp872
g55
I8
sg56
I0
sg57
I8
ssI36
(dp873
g55
I6
sg56
I0
sg57
I0
ssI38
(dp874
g55
I7
sg56
I0
sg57
I0
ssI39
(dp875
g55
I6
sg56
I0
sg57
I1
ssssS'edge'
p876
g52
sS'pred'
p877
(dp878
I1
(dp879
I2
g80
sI3
g98
sI5
g142
sI6
g158
sI7
g182
sI8
g198
sI10
g240
sI11
g261
sI12
g283
sI13
g302
sI16
g366
sI19
g419
sI20
g441
sI21
g459
sI23
g493
sI29
g617
sI31
g658
sI32
g676
sI36
g756
sI37
g785
sI38
g803
sI40
g853
ssI2
(dp880
I1
g59
sI35
g745
sI4
g118
sI6
g159
sI33
g700
sI8
g199
sI10
g241
sI7
g178
sI13
g303
sI14
g330
sI15
g349
sI40
g854
sI18
g408
sI22
g484
sI24
g510
sI25
g532
sI26
g557
sI27
g578
sI28
g598
sI29
g618
ssI3
(dp881
I4
g119
sI6
g160
sI7
g179
sI8
g200
sI9
g222
sI10
g258
sI13
g304
sI15
g342
sI16
g365
sI18
g401
sI19
g432
sI20
g452
sI21
g470
sI23
g494
sI25
g533
sI26
g558
sI27
g579
sI29
g619
sI32
g677
sI34
g728
sI38
g804
sI39
g828
ssI4
(dp882
I32
g678
sI33
g715
sI3
g101
sI5
g144
sI38
g805
sI39
g829
sI40
g855
sI9
g223
sI14
g335
sI16
g375
sI8
g201
sI19
g435
sI20
g444
sI23
g495
sI26
g559
sI30
g645
ssI5
(dp883
I1
g61
sI2
g95
sI3
g102
sI4
g120
sI6
g161
sI8
g202
sI9
g237
sI12
g300
sI14
g327
sI15
g360
sI18
g402
sI20
g457
sI21
g461
sI24
g530
sI28
g599
sI29
g620
sI30
g646
sI31
g674
sI32
g679
sI33
g703
sI36
g757
sI38
g806
ssI6
(dp884
I33
g704
sI2
g84
sI3
g103
sI36
g758
sI37
g788
sI38
g807
sI39
g830
sI40
g856
sI12
g287
sI18
g403
sI23
g496
sI24
g514
sI25
g534
sI29
g621
sI30
g647
sI5
g146
ssI7
(dp885
I3
g104
sI5
g147
sI6
g162
sI8
g203
sI9
g225
sI10
g245
sI11
g267
sI13
g308
sI16
g367
sI17
g381
sI19
g426
sI20
g447
sI21
g465
sI27
g582
sI28
g600
sI29
g622
sI30
g648
sI32
g680
sI35
g741
sI36
g759
sI38
g808
sI39
g831
ssI8
(dp886
I32
g681
sI1
g67
sI2
g88
sI37
g790
sI6
g163
sI40
g857
sI9
g226
sI11
g273
sI12
g294
sI14
g328
sI15
g347
sI17
g382
sI18
g411
sI21
g464
sI27
g583
sI28
g601
sI31
g664
ssI9
(dp887
I35
g742
sI36
g760
sI37
g791
sI38
g809
sI7
g183
sI8
g204
sI10
g246
sI39
g832
sI12
g290
sI15
g348
sI16
g368
sI18
g405
sI19
g424
sI25
g535
sI27
g584
sI30
g650
sI31
g665
ssI10
(dp888
I32
g682
sI1
g65
sI36
g761
sI40
g858
sI11
g269
sI17
g383
sI19
g425
sI22
g483
sI24
g516
sI25
g536
sI26
g563
sI29
g623
sI31
g666
ssI11
(dp889
I32
g683
sI33
g707
sI34
g723
sI35
g743
sI4
g121
sI40
g859
sI10
g247
sI13
g310
sI17
g384
sI18
g406
sI20
g449
sI8
g205
sI24
g517
sI25
g537
sI26
g564
sI36
g762
sI29
g624
sI30
g651
sI31
g667
ssI12
(dp890
I32
g684
sI33
g708
sI2
g86
sI35
g744
sI36
g763
sI6
g164
sI38
g810
sI39
g833
sI9
g228
sI10
g248
sI16
g369
sI27
g585
sI18
g407
sI21
g466
sI23
g499
sI31
g668
sI28
g603
sI37
g792
ssI13
(dp891
I32
g685
sI1
g66
sI4
g122
sI6
g165
sI7
g185
sI40
g860
sI9
g229
sI11
g270
sI12
g291
sI14
g331
sI8
g206
sI18
g409
sI24
g518
sI39
g834
sI27
g586
sI28
g604
ssI14
(dp892
I33
g709
sI34
g724
sI3
g106
sI36
g764
sI38
g811
sI6
g166
sI7
g186
sI8
g207
sI9
g230
sI12
g292
sI15
g350
sI17
g385
sI19
g427
sI21
g467
sI40
g861
sI25
g538
sI26
g565
sI28
g605
sI31
g669
ssI15
(dp893
I1
g64
sI4
g123
sI8
g208
sI11
g271
sI13
g312
sI17
g386
sI19
g428
sI21
g468
sI22
g485
sI23
g500
sI24
g519
sI25
g539
sI26
g566
sI27
g587
sI28
g606
sI29
g625
sI30
g652
sI34
g725
sI36
g765
sI37
g793
sI39
g835
sI40
g862
ssI16
(dp894
I2
g87
sI3
g108
sI4
g124
sI7
g195
sI9
g231
sI11
g272
sI12
g293
sI13
g313
sI14
g332
sI15
g351
sI18
g410
sI19
g429
sI20
g450
sI24
g520
sI25
g540
sI28
g607
sI29
g626
sI30
g653
sI32
g686
sI33
g710
sI34
g726
sI36
g766
sI37
g794
sI39
g836
sI40
g863
ssI17
(dp895
I32
g687
sI33
g711
sI1
g68
sI5
g148
sI6
g167
sI39
g837
sI8
g209
sI38
g812
sI10
g249
sI19
g430
sI20
g451
sI25
g541
sI26
g567
sI27
g588
sI29
g627
sI30
g654
sI36
g767
ssI18
(dp896
I1
g69
sI34
g727
sI4
g125
sI5
g149
sI38
g813
sI7
g188
sI40
g864
sI10
g250
sI11
g274
sI2
g89
sI17
g387
sI19
g431
sI8
g210
sI24
g521
sI25
g542
sI26
g568
sI27
g589
sI37
g795
ssI19
(dp897
I1
g70
sI7
g189
sI8
g211
sI9
g232
sI10
g251
sI13
g314
sI14
g333
sI15
g352
sI16
g362
sI22
g486
sI23
g501
sI24
g522
sI25
g543
sI26
g569
sI27
g590
sI29
g628
sI31
g670
sI33
g712
sI35
g746
sI36
g768
sI37
g796
sI39
g838
sI40
g865
ssI20
(dp898
I32
g688
sI35
g747
sI2
g90
sI3
g109
sI4
g126
sI5
g150
sI38
g814
sI7
g190
sI11
g275
sI34
g729
sI14
g334
sI15
g353
sI17
g388
sI19
g433
sI21
g471
sI39
g839
sI26
g570
sI27
g591
sI28
g609
sI29
g629
ssI21
(dp899
I32
g689
sI34
g730
sI3
g110
sI4
g127
sI5
g151
sI39
g840
sI40
g866
sI9
g233
sI10
g252
sI7
g191
sI12
g295
sI13
g315
sI15
g354
sI16
g371
sI8
g212
sI35
g748
sI22
g487
sI23
g502
sI24
g523
sI27
g592
sI37
g797
ssI22
(dp900
I1
g71
sI2
g91
sI3
g111
sI5
g152
sI7
g192
sI8
g213
sI10
g253
sI11
g276
sI12
g296
sI13
g316
sI15
g355
sI17
g389
sI18
g412
sI21
g472
sI23
g503
sI24
g524
sI25
g544
sI28
g610
sI31
g671
sI37
g798
sI38
g815
sI39
g841
ssI23
(dp901
I32
g690
sI1
g72
sI2
g92
sI35
g749
sI4
g128
sI33
g713
sI38
g816
sI39
g842
sI8
g214
sI34
g731
sI13
g317
sI40
g867
sI18
g413
sI19
g434
sI17
g390
sI36
g769
sI6
g169
sI26
g571
sI29
g630
ssI24
(dp902
I1
g73
sI34
g732
sI35
g750
sI36
g770
sI37
g799
sI38
g817
sI33
g714
sI8
g215
sI9
g234
sI7
g193
sI12
g297
sI40
g868
sI3
g112
sI25
g545
sI26
g572
sI29
g631
ssI25
(dp903
I32
g691
sI34
g733
sI35
g751
sI4
g129
sI38
g818
sI7
g194
sI10
g254
sI11
g277
sI13
g318
sI16
g372
sI18
g414
sI21
g473
sI23
g504
sI24
g525
sI36
g771
sI27
g593
sI30
g655
ssI26
(dp904
I1
g74
sI34
g734
sI3
g115
sI36
g772
sI6
g170
sI38
g819
sI8
g216
sI10
g255
sI11
g278
sI15
g356
sI16
g373
sI17
g392
sI18
g415
sI19
g436
sI20
g453
sI21
g474
sI28
g611
sI29
g632
sI37
g800
ssI27
(dp905
I1
g75
sI34
g735
sI4
g130
sI39
g843
sI10
g256
sI12
g284
sI13
g319
sI14
g336
sI15
g357
sI19
g437
sI21
g475
sI22
g488
sI36
g773
sI26
g574
sI28
g612
ssI28
(dp906
I32
g692
sI1
g76
sI3
g114
sI4
g131
sI39
g844
sI40
g869
sI13
g320
sI14
g337
sI17
g393
sI20
g454
sI22
g489
sI23
g506
sI24
g527
sI25
g546
sI29
g633
ssI29
(dp907
I2
g94
sI3
g107
sI5
g154
sI6
g172
sI9
g235
sI11
g279
sI15
g358
sI16
g374
sI17
g394
sI19
g438
sI20
g455
sI21
g476
sI23
g507
sI24
g528
sI25
g547
sI27
g594
sI28
g613
sI30
g656
sI31
g672
sI32
g693
sI33
g716
sI35
g752
sI36
g774
sI37
g801
sI39
g845
sI40
g870
ssI30
(dp908
I33
g717
sI4
g132
sI5
g155
sI6
g173
sI39
g846
sI9
g236
sI11
g280
sI12
g299
sI15
g359
sI17
g395
sI20
g456
sI21
g477
sI24
g529
sI36
g775
sI28
g614
sI29
g634
sI31
g673
ssI31
(dp909
I1
g77
sI2
g93
sI3
g116
sI6
g171
sI7
g196
sI12
g298
sI13
g321
sI14
g329
sI15
g343
sI16
g376
sI17
g396
sI18
g417
sI21
g478
sI22
g490
sI23
g508
sI25
g548
sI27
g595
sI28
g615
sI29
g635
sI32
g694
sI35
g754
sI40
g871
ssI32
(dp910
I1
g54
sI2
g79
sI3
g97
sI4
g133
sI5
g141
sI6
g157
sI7
g176
sI10
g239
sI11
g260
sI12
g282
sI14
g323
sI18
g398
sI20
g440
sI23
g492
sI25
g549
sI26
g556
sI27
g576
sI30
g642
sI33
g699
sI34
g719
sI35
g737
sI36
g776
sI37
g784
sI38
g820
sI39
g847
ssI33
(dp911
I1
g58
sI3
g113
sI4
g134
sI38
g821
sI7
g177
sI39
g848
sI13
g306
sI14
g324
sI15
g340
sI16
g363
sI18
g399
sI19
g422
sI21
g463
sI25
g550
sI23
g505
sI36
g777
sI27
g577
sI28
g597
sI30
g643
ssI34
(dp912
I2
g81
sI3
g99
sI4
g135
sI37
g786
sI38
g822
sI39
g849
sI40
g872
sI11
g262
sI13
g311
sI14
g325
sI15
g341
sI16
g364
sI18
g400
sI35
g738
sI20
g442
sI22
g480
sI7
g187
sI36
g778
sI30
g644
sI31
g659
ssI35
(dp913
I33
g701
sI34
g720
sI3
g100
sI4
g136
sI5
g143
sI38
g823
sI10
g242
sI11
g263
sI16
g370
sI19
g420
sI20
g443
sI21
g460
sI25
g551
sI24
g511
sI36
g779
sI6
g168
sI29
g636
sI31
g660
ssI36
(dp914
I1
g60
sI2
g82
sI5
g153
sI7
g180
sI8
g217
sI11
g264
sI12
g285
sI13
g305
sI14
g326
sI17
g378
sI19
g421
sI24
g512
sI25
g552
sI26
g573
sI27
g580
sI29
g637
sI31
g661
sI32
g695
sI33
g702
sI35
g739
sI37
g787
sI38
g824
sI39
g850
sI40
g873
ssI37
(dp915
I32
g696
sI2
g83
sI6
g174
sI36
g780
sI5
g145
sI38
g825
sI39
g851
sI8
g218
sI9
g224
sI10
g243
sI11
g265
sI12
g286
sI14
g338
sI15
g344
sI17
g379
sI35
g740
sI20
g445
sI24
g513
sI26
g560
sI28
g608
sI31
g662
ssI38
(dp916
I1
g62
sI4
g137
sI7
g181
sI8
g219
sI10
g244
sI11
g266
sI13
g307
sI15
g345
sI17
g380
sI18
g416
sI20
g446
sI21
g462
sI22
g481
sI23
g497
sI24
g526
sI25
g553
sI26
g561
sI27
g581
sI29
g638
sI34
g721
sI36
g781
sI40
g874
ssI39
(dp917
I3
g105
sI4
g138
sI7
g184
sI8
g220
sI9
g227
sI10
g257
sI12
g288
sI15
g346
sI17
g391
sI19
g423
sI23
g498
sI26
g562
sI28
g602
sI29
g639
sI31
g663
sI32
g697
sI33
g705
sI34
g722
sI35
g753
sI37
g789
sI38
g826
sI40
g875
ssI40
(dp918
I1
g63
sI2
g85
sI36
g782
sI33
g706
sI11
g268
sI12
g289
sI13
g309
sI18
g404
sI20
g448
sI21
g469
sI22
g482
sI4
g139
sI24
g515
sI25
g554
sI29
g640
sI30
g649
sssS'adj'
p919
g52
sb.