ccopy_reg
_reconstructor
p1
(cnetworkx.classes.digraph
DiGraph
p2
c__builtin__
object
p3
NtRp4
(dp5
S'node'
p6
(dp7
I1
(dp8
S'demand'
p9
I7
ssI2
(dp10
g9
I10
ssI3
(dp11
g9
I5
ssI4
(dp12
g9
I6
ssI5
(dp13
g9
I7
ssI6
(dp14
g9
I3
ssI7
(dp15
g9
I8
ssI8
(dp16
g9
I5
ssI9
(dp17
g9
I5
ssI10
(dp18
g9
I4
ssI11
(dp19
g9
I9
ssI12
(dp20
g9
I1
ssI13
(dp21
g9
I1
ssI14
(dp22
g9
I5
ssI15
(dp23
g9
I4
ssI16
(dp24
g9
I8
ssI17
(dp25
g9
I1
ssI18
(dp26
g9
I9
ssI19
(dp27
g9
I8
ssI20
(dp28
g9
I2
ssI21
(dp29
g9
I0
ssI22
(dp30
g9
I0
ssI23
(dp31
g9
I0
ssI24
(dp32
g9
I0
ssI25
(dp33
g9
I0
ssI26
(dp34
g9
I0
ssI27
(dp35
g9
I0
ssI28
(dp36
g9
I0
ssI29
(dp37
g9
I0
ssI30
(dp38
g9
I0
ssI31
(dp39
g9
I0
ssI32
(dp40
g9
I0
ssI33
(dp41
g9
I0
ssI34
(dp42
g9
I0
ssI35
(dp43
g9
I0
ssI36
(dp44
g9
I0
ssI37
(dp45
g9
I0
ssI38
(dp46
g9
I0
ssI39
(dp47
g9
I0
ssI40
(dp48
g9
I-108
sssS'graph'
p49
(dp50
sS'succ'
p51
(dp52
I1
(dp53
I2
(dp54
S'capacity'
p55
I6
sS'fluxo'
p56
I0
sS'weight'
p57
I8
ssI3
(dp58
g55
I6
sg56
I0
sg57
I5
ssI4
(dp59
g55
I8
sg56
I0
sg57
I9
ssI5
(dp60
g55
I5
sg56
I0
sg57
I1
ssI6
(dp61
g55
I5
sg56
I0
sg57
I4
ssI7
(dp62
g55
I7
sg56
I0
sg57
I4
ssI8
(dp63
g55
I6
sg56
I0
sg57
I4
ssI9
(dp64
g55
I7
sg56
I0
sg57
I8
ssI10
(dp65
g55
I7
sg56
I0
sg57
I2
ssI11
(dp66
g55
I6
sg56
I0
sg57
I1
ssI12
(dp67
g55
I6
sg56
I0
sg57
I7
ssI13
(dp68
g55
I7
sg56
I0
sg57
I6
ssI14
(dp69
g55
I6
sg56
I0
sg57
I3
ssI15
(dp70
g55
I5
sg56
I0
sg57
I9
ssI16
(dp71
g55
I5
sg56
I0
sg57
I4
ssI17
(dp72
g55
I6
sg56
I0
sg57
I10
ssI18
(dp73
g55
I5
sg56
I0
sg57
I0
ssI19
(dp74
g55
I7
sg56
I0
sg57
I5
ssI20
(dp75
g55
I5
sg56
I0
sg57
I8
ssI21
(dp76
g55
I8
sg56
I0
sg57
I6
ssI22
(dp77
g55
I6
sg56
I0
sg57
I2
ssI23
(dp78
g55
I7
sg56
I0
sg57
I4
ssI24
(dp79
g55
I6
sg56
I0
sg57
I7
ssI25
(dp80
g55
I5
sg56
I0
sg57
I3
ssI26
(dp81
g55
I7
sg56
I0
sg57
I0
ssI27
(dp82
g55
I7
sg56
I0
sg57
I6
ssI28
(dp83
g55
I5
sg56
I0
sg57
I8
ssI29
(dp84
g55
I6
sg56
I0
sg57
I6
ssI30
(dp85
g55
I7
sg56
I0
sg57
I10
ssI31
(dp86
g55
I7
sg56
I0
sg57
I8
ssI32
(dp87
g55
I5
sg56
I0
sg57
I9
ssI33
(dp88
g55
I7
sg56
I0
sg57
I0
ssI34
(dp89
g55
I5
sg56
I0
sg57
I0
ssI35
(dp90
g55
I5
sg56
I0
sg57
I10
ssI36
(dp91
g55
I5
sg56
I0
sg57
I6
ssI37
(dp92
g55
I8
sg56
I0
sg57
I2
ssI38
(dp93
g55
I8
sg56
I0
sg57
I0
ssI39
(dp94
g55
I7
sg56
I0
sg57
I9
ssI40
(dp95
g55
I7
sg56
I0
sg57
I2
sssI2
(dp96
I1
(dp97
g55
I8
sg56
I0
sg57
I8
ssI3
(dp98
g55
I5
sg56
I0
sg57
I0
ssI4
(dp99
g55
I7
sg56
I0
sg57
I10
ssI5
(dp100
g55
I7
sg56
I0
sg57
I4
ssI6
(dp101
g55
I5
sg56
I0
sg57
I4
ssI7
(dp102
g55
I7
sg56
I0
sg57
I1
ssI8
(dp103
g55
I5
sg56
I0
sg57
I0
ssI9
(dp104
g55
I5
sg56
I0
sg57
I10
ssI10
(dp105
g55
I7
sg56
I0
sg57
I5
ssI11
(dp106
g55
I5
sg56
I0
sg57
I8
ssI12
(dp107
g55
I8
sg56
I0
sg57
I9
ssI13
(dp108
g55
I6
sg56
I0
sg57
I10
ssI14
(dp109
g55
I5
sg56
I0
sg57
I7
ssI15
(dp110
g55
I8
sg56
I0
sg57
I7
ssI16
(dp111
g55
I5
sg56
I0
sg57
I8
ssI17
(dp112
g55
I7
sg56
I0
sg57
I9
ssI18
(dp113
g55
I6
sg56
I0
sg57
I2
ssI19
(dp114
g55
I7
sg56
I0
sg57
I8
ssI20
(dp115
g55
I7
sg56
I0
sg57
I7
ssI21
(dp116
g55
I7
sg56
I0
sg57
I3
ssI22
(dp117
g55
I7
sg56
I0
sg57
I10
ssI23
(dp118
g55
I5
sg56
I0
sg57
I10
ssI24
(dp119
g55
I6
sg56
I0
sg57
I0
ssI25
(dp120
g55
I5
sg56
I0
sg57
I8
ssI26
(dp121
g55
I7
sg56
I0
sg57
I1
ssI27
(dp122
g55
I5
sg56
I0
sg57
I6
ssI28
(dp123
g55
I8
sg56
I0
sg57
I9
ssI29
(dp124
g55
I5
sg56
I0
sg57
I5
ssI30
(dp125
g55
I8
sg56
I0
sg57
I7
ssI31
(dp126
g55
I8
sg56
I0
sg57
I6
ssI32
(dp127
g55
I8
sg56
I0
sg57
I2
ssI33
(dp128
g55
I6
sg56
I0
sg57
I1
ssI34
(dp129
g55
I5
sg56
I0
sg57
I4
ssI35
(dp130
g55
I7
sg56
I0
sg57
I8
ssI36
(dp131
g55
I5
sg56
I0
sg57
I1
ssI37
(dp132
g55
I7
sg56
I0
sg57
I7
ssI38
(dp133
g55
I7
sg56
I0
sg57
I7
ssI39
(dp134
g55
I5
sg56
I0
sg57
I0
ssI40
(dp135
g55
I5
sg56
I0
sg57
I8
sssI3
(dp136
I1
(dp137
g55
I7
sg56
I0
sg57
I5
ssI2
(dp138
g55
I5
sg56
I0
sg57
I7
ssI4
(dp139
g55
I7
sg56
I0
sg57
I6
ssI5
(dp140
g55
I7
sg56
I0
sg57
I1
ssI6
(dp141
g55
I5
sg56
I0
sg57
I1
ssI7
(dp142
g55
I6
sg56
I0
sg57
I10
ssI8
(dp143
g55
I5
sg56
I0
sg57
I7
ssI9
(dp144
g55
I5
sg56
I0
sg57
I0
ssI10
(dp145
g55
I6
sg56
I0
sg57
I7
ssI11
(dp146
g55
I5
sg56
I0
sg57
I3
ssI12
(dp147
g55
I8
sg56
I0
sg57
I9
ssI13
(dp148
g55
I5
sg56
I0
sg57
I7
ssI14
(dp149
g55
I7
sg56
I0
sg57
I10
ssI15
(dp150
g55
I8
sg56
I0
sg57
I9
ssI16
(dp151
g55
I7
sg56
I0
sg57
I0
ssI17
(dp152
g55
I8
sg56
I0
sg57
I8
ssI18
(dp153
g55
I8
sg56
I0
sg57
I5
ssI19
(dp154
g55
I5
sg56
I0
sg57
I2
ssI20
(dp155
g55
I8
sg56
I0
sg57
I6
ssI21
(dp156
g55
I7
sg56
I0
sg57
I6
ssI22
(dp157
g55
I7
sg56
I0
sg57
I10
ssI23
(dp158
g55
I7
sg56
I0
sg57
I10
ssI24
(dp159
g55
I5
sg56
I0
sg57
I0
ssI25
(dp160
g55
I8
sg56
I0
sg57
I5
ssI26
(dp161
g55
I6
sg56
I0
sg57
I3
ssI27
(dp162
g55
I6
sg56
I0
sg57
I8
ssI28
(dp163
g55
I7
sg56
I0
sg57
I3
ssI29
(dp164
g55
I5
sg56
I0
sg57
I6
ssI30
(dp165
g55
I7
sg56
I0
sg57
I1
ssI31
(dp166
g55
I7
sg56
I0
sg57
I4
ssI32
(dp167
g55
I5
sg56
I0
sg57
I6
ssI33
(dp168
g55
I7
sg56
I0
sg57
I4
ssI34
(dp169
g55
I5
sg56
I0
sg57
I5
ssI35
(dp170
g55
I6
sg56
I0
sg57
I5
ssI36
(dp171
g55
I6
sg56
I0
sg57
I0
ssI37
(dp172
g55
I7
sg56
I0
sg57
I5
ssI38
(dp173
g55
I7
sg56
I0
sg57
I0
ssI39
(dp174
g55
I7
sg56
I0
sg57
I1
ssI40
(dp175
g55
I6
sg56
I0
sg57
I7
sssI4
(dp176
I1
(dp177
g55
I7
sg56
I0
sg57
I9
ssI2
(dp178
g55
I5
sg56
I0
sg57
I0
ssI3
(dp179
g55
I7
sg56
I0
sg57
I2
ssI5
(dp180
g55
I6
sg56
I0
sg57
I5
ssI6
(dp181
g55
I7
sg56
I0
sg57
I5
ssI7
(dp182
g55
I7
sg56
I0
sg57
I4
ssI8
(dp183
g55
I8
sg56
I0
sg57
I4
ssI9
(dp184
g55
I5
sg56
I0
sg57
I7
ssI10
(dp185
g55
I5
sg56
I0
sg57
I4
ssI11
(dp186
g55
I7
sg56
I0
sg57
I7
ssI12
(dp187
g55
I7
sg56
I0
sg57
I3
ssI13
(dp188
g55
I5
sg56
I0
sg57
I9
ssI14
(dp189
g55
I6
sg56
I0
sg57
I6
ssI15
(dp190
g55
I5
sg56
I0
sg57
I9
ssI16
(dp191
g55
I8
sg56
I0
sg57
I5
ssI17
(dp192
g55
I8
sg56
I0
sg57
I2
ssI18
(dp193
g55
I7
sg56
I0
sg57
I10
ssI19
(dp194
g55
I6
sg56
I0
sg57
I5
ssI20
(dp195
g55
I8
sg56
I0
sg57
I2
ssI21
(dp196
g55
I5
sg56
I0
sg57
I1
ssI22
(dp197
g55
I6
sg56
I0
sg57
I4
ssI23
(dp198
g55
I6
sg56
I0
sg57
I0
ssI24
(dp199
g55
I8
sg56
I0
sg57
I7
ssI25
(dp200
g55
I8
sg56
I0
sg57
I10
ssI26
(dp201
g55
I7
sg56
I0
sg57
I7
ssI27
(dp202
g55
I7
sg56
I0
sg57
I7
ssI28
(dp203
g55
I6
sg56
I0
sg57
I10
ssI29
(dp204
g55
I7
sg56
I0
sg57
I2
ssI30
(dp205
g55
I7
sg56
I0
sg57
I5
ssI31
(dp206
g55
I8
sg56
I0
sg57
I3
ssI32
(dp207
g55
I7
sg56
I0
sg57
I4
ssI33
(dp208
g55
I5
sg56
I0
sg57
I4
ssI34
(dp209
g55
I5
sg56
I0
sg57
I8
ssI35
(dp210
g55
I6
sg56
I0
sg57
I3
ssI36
(dp211
g55
I5
sg56
I0
sg57
I8
ssI37
(dp212
g55
I8
sg56
I0
sg57
I6
ssI38
(dp213
g55
I6
sg56
I0
sg57
I6
ssI39
(dp214
g55
I6
sg56
I0
sg57
I4
ssI40
(dp215
g55
I5
sg56
I0
sg57
I0
sssI5
(dp216
I1
(dp217
g55
I6
sg56
I0
sg57
I0
ssI2
(dp218
g55
I8
sg56
I0
sg57
I1
ssI3
(dp219
g55
I5
sg56
I0
sg57
I5
ssI4
(dp220
g55
I7
sg56
I0
sg57
I10
ssI6
(dp221
g55
I6
sg56
I0
sg57
I5
ssI7
(dp222
g55
I6
sg56
I0
sg57
I4
ssI8
(dp223
g55
I5
sg56
I0
sg57
I3
ssI9
(dp224
g55
I5
sg56
I0
sg57
I5
ssI10
(dp225
g55
I7
sg56
I0
sg57
I9
ssI11
(dp226
g55
I8
sg56
I0
sg57
I1
ssI12
(dp227
g55
I7
sg56
I0
sg57
I9
ssI13
(dp228
g55
I8
sg56
I0
sg57
I10
ssI14
(dp229
g55
I6
sg56
I0
sg57
I8
ssI15
(dp230
g55
I8
sg56
I0
sg57
I1
ssI16
(dp231
g55
I5
sg56
I0
sg57
I7
ssI17
(dp232
g55
I5
sg56
I0
sg57
I1
ssI18
(dp233
g55
I7
sg56
I0
sg57
I6
ssI19
(dp234
g55
I8
sg56
I0
sg57
I0
ssI20
(dp235
g55
I8
sg56
I0
sg57
I9
ssI21
(dp236
g55
I5
sg56
I0
sg57
I3
ssI22
(dp237
g55
I8
sg56
I0
sg57
I2
ssI23
(dp238
g55
I5
sg56
I0
sg57
I6
ssI24
(dp239
g55
I8
sg56
I0
sg57
I7
ssI25
(dp240
g55
I5
sg56
I0
sg57
I4
ssI26
(dp241
g55
I7
sg56
I0
sg57
I10
ssI27
(dp242
g55
I7
sg56
I0
sg57
I0
ssI28
(dp243
g55
I5
sg56
I0
sg57
I10
ssI29
(dp244
g55
I5
sg56
I0
sg57
I2
ssI30
(dp245
g55
I6
sg56
I0
sg57
I2
ssI31
(dp246
g55
I7
sg56
I0
sg57
I8
ssI32
(dp247
g55
I5
sg56
I0
sg57
I9
ssI33
(dp248
g55
I5
sg56
I0
sg57
I6
ssI34
(dp249
g55
I6
sg56
I0
sg57
I10
ssI35
(dp250
g55
I5
sg56
I0
sg57
I10
ssI36
(dp251
g55
I6
sg56
I0
sg57
I6
ssI37
(dp252
g55
I6
sg56
I0
sg57
I0
ssI38
(dp253
g55
I7
sg56
I0
sg57
I7
ssI39
(dp254
g55
I6
sg56
I0
sg57
I10
ssI40
(dp255
g55
I5
sg56
I0
sg57
I10
sssI6
(dp256
I1
(dp257
g55
I7
sg56
I0
sg57
I1
ssI2
(dp258
g55
I6
sg56
I0
sg57
I4
ssI3
(dp259
g55
I7
sg56
I0
sg57
I5
ssI4
(dp260
g55
I7
sg56
I0
sg57
I10
ssI5
(dp261
g55
I8
sg56
I0
sg57
I0
ssI7
(dp262
g55
I6
sg56
I0
sg57
I10
ssI8
(dp263
g55
I6
sg56
I0
sg57
I1
ssI9
(dp264
g55
I8
sg56
I0
sg57
I7
ssI10
(dp265
g55
I7
sg56
I0
sg57
I4
ssI11
(dp266
g55
I7
sg56
I0
sg57
I0
ssI12
(dp267
g55
I7
sg56
I0
sg57
I1
ssI13
(dp268
g55
I5
sg56
I0
sg57
I10
ssI14
(dp269
g55
I7
sg56
I0
sg57
I0
ssI15
(dp270
g55
I6
sg56
I0
sg57
I9
ssI16
(dp271
g55
I8
sg56
I0
sg57
I2
ssI17
(dp272
g55
I7
sg56
I0
sg57
I5
ssI18
(dp273
g55
I8
sg56
I0
sg57
I8
ssI19
(dp274
g55
I7
sg56
I0
sg57
I5
ssI20
(dp275
g55
I8
sg56
I0
sg57
I10
ssI21
(dp276
g55
I8
sg56
I0
sg57
I9
ssI22
(dp277
g55
I8
sg56
I0
sg57
I6
ssI23
(dp278
g55
I5
sg56
I0
sg57
I8
ssI24
(dp279
g55
I5
sg56
I0
sg57
I6
ssI25
(dp280
g55
I6
sg56
I0
sg57
I10
ssI26
(dp281
g55
I6
sg56
I0
sg57
I3
ssI27
(dp282
g55
I8
sg56
I0
sg57
I4
ssI28
(dp283
g55
I5
sg56
I0
sg57
I9
ssI29
(dp284
g55
I5
sg56
I0
sg57
I8
ssI30
(dp285
g55
I7
sg56
I0
sg57
I7
ssI31
(dp286
g55
I8
sg56
I0
sg57
I7
ssI32
(dp287
g55
I7
sg56
I0
sg57
I7
ssI33
(dp288
g55
I8
sg56
I0
sg57
I9
ssI34
(dp289
g55
I6
sg56
I0
sg57
I3
ssI35
(dp290
g55
I7
sg56
I0
sg57
I4
ssI36
(dp291
g55
I5
sg56
I0
sg57
I1
ssI37
(dp292
g55
I6
sg56
I0
sg57
I4
ssI38
(dp293
g55
I8
sg56
I0
sg57
I5
ssI39
(dp294
g55
I6
sg56
I0
sg57
I10
ssI40
(dp295
g55
I8
sg56
I0
sg57
I7
sssI7
(dp296
I1
(dp297
g55
I6
sg56
I0
sg57
I1
ssI2
(dp298
g55
I7
sg56
I0
sg57
I7
ssI3
(dp299
g55
I5
sg56
I0
sg57
I6
ssI4
(dp300
g55
I5
sg56
I0
sg57
I7
ssI5
(dp301
g55
I7
sg56
I0
sg57
I4
ssI6
(dp302
g55
I5
sg56
I0
sg57
I9
ssI8
(dp303
g55
I7
sg56
I0
sg57
I8
ssI9
(dp304
g55
I8
sg56
I0
sg57
I4
ssI10
(dp305
g55
I5
sg56
I0
sg57
I0
ssI11
(dp306
g55
I8
sg56
I0
sg57
I2
ssI12
(dp307
g55
I7
sg56
I0
sg57
I3
ssI13
(dp308
g55
I6
sg56
I0
sg57
I7
ssI14
(dp309
g55
I5
sg56
I0
sg57
I8
ssI15
(dp310
g55
I8
sg56
I0
sg57
I3
ssI16
(dp311
g55
I8
sg56
I0
sg57
I4
ssI17
(dp312
g55
I5
sg56
I0
sg57
I5
ssI18
(dp313
g55
I7
sg56
I0
sg57
I5
ssI19
(dp314
g55
I7
sg56
I0
sg57
I5
ssI20
(dp315
g55
I7
sg56
I0
sg57
I5
ssI21
(dp316
g55
I5
sg56
I0
sg57
I5
ssI22
(dp317
g55
I6
sg56
I0
sg57
I2
ssI23
(dp318
g55
I8
sg56
I0
sg57
I10
ssI24
(dp319
g55
I8
sg56
I0
sg57
I5
ssI25
(dp320
g55
I6
sg56
I0
sg57
I5
ssI26
(dp321
g55
I6
sg56
I0
sg57
I1
ssI27
(dp322
g55
I7
sg56
I0
sg57
I5
ssI28
(dp323
g55
I5
sg56
I0
sg57
I7
ssI29
(dp324
g55
I5
sg56
I0
sg57
I4
ssI30
(dp325
g55
I8
sg56
I0
sg57
I5
ssI31
(dp326
g55
I6
sg56
I0
sg57
I0
ssI32
(dp327
g55
I8
sg56
I0
sg57
I0
ssI33
(dp328
g55
I7
sg56
I0
sg57
I0
ssI34
(dp329
g55
I8
sg56
I0
sg57
I9
ssI35
(dp330
g55
I6
sg56
I0
sg57
I6
ssI36
(dp331
g55
I7
sg56
I0
sg57
I2
ssI37
(dp332
g55
I7
sg56
I0
sg57
I9
ssI38
(dp333
g55
I8
sg56
I0
sg57
I4
ssI39
(dp334
g55
I6
sg56
I0
sg57
I5
ssI40
(dp335
g55
I8
sg56
I0
sg57
I2
sssI8
(dp336
I1
(dp337
g55
I7
sg56
I0
sg57
I8
ssI2
(dp338
g55
I6
sg56
I0
sg57
I0
ssI3
(dp339
g55
I8
sg56
I0
sg57
I4
ssI4
(dp340
g55
I6
sg56
I0
sg57
I5
ssI5
(dp341
g55
I5
sg56
I0
sg57
I4
ssI6
(dp342
g55
I8
sg56
I0
sg57
I0
ssI7
(dp343
g55
I6
sg56
I0
sg57
I1
ssI9
(dp344
g55
I7
sg56
I0
sg57
I0
ssI10
(dp345
g55
I7
sg56
I0
sg57
I5
ssI11
(dp346
g55
I6
sg56
I0
sg57
I1
ssI12
(dp347
g55
I7
sg56
I0
sg57
I3
ssI13
(dp348
g55
I8
sg56
I0
sg57
I9
ssI14
(dp349
g55
I6
sg56
I0
sg57
I9
ssI15
(dp350
g55
I8
sg56
I0
sg57
I10
ssI16
(dp351
g55
I7
sg56
I0
sg57
I0
ssI17
(dp352
g55
I6
sg56
I0
sg57
I6
ssI18
(dp353
g55
I8
sg56
I0
sg57
I1
ssI19
(dp354
g55
I8
sg56
I0
sg57
I7
ssI20
(dp355
g55
I8
sg56
I0
sg57
I2
ssI21
(dp356
g55
I6
sg56
I0
sg57
I9
ssI22
(dp357
g55
I7
sg56
I0
sg57
I4
ssI23
(dp358
g55
I6
sg56
I0
sg57
I7
ssI24
(dp359
g55
I8
sg56
I0
sg57
I5
ssI25
(dp360
g55
I8
sg56
I0
sg57
I1
ssI26
(dp361
g55
I8
sg56
I0
sg57
I6
ssI27
(dp362
g55
I5
sg56
I0
sg57
I8
ssI28
(dp363
g55
I6
sg56
I0
sg57
I1
ssI29
(dp364
g55
I5
sg56
I0
sg57
I5
ssI30
(dp365
g55
I7
sg56
I0
sg57
I5
ssI31
(dp366
g55
I6
sg56
I0
sg57
I2
ssI32
(dp367
g55
I6
sg56
I0
sg57
I10
ssI33
(dp368
g55
I5
sg56
I0
sg57
I0
ssI34
(dp369
g55
I5
sg56
I0
sg57
I10
ssI35
(dp370
g55
I6
sg56
I0
sg57
I1
ssI36
(dp371
g55
I8
sg56
I0
sg57
I4
ssI37
(dp372
g55
I7
sg56
I0
sg57
I6
ssI38
(dp373
g55
I6
sg56
I0
sg57
I5
ssI39
(dp374
g55
I8
sg56
I0
sg57
I4
ssI40
(dp375
g55
I6
sg56
I0
sg57
I3
sssI9
(dp376
I1
(dp377
g55
I5
sg56
I0
sg57
I10
ssI2
(dp378
g55
I8
sg56
I0
sg57
I0
ssI3
(dp379
g55
I8
sg56
I0
sg57
I5
ssI4
(dp380
g55
I5
sg56
I0
sg57
I1
ssI5
(dp381
g55
I5
sg56
I0
sg57
I10
ssI6
(dp382
g55
I5
sg56
I0
sg57
I10
ssI7
(dp383
g55
I7
sg56
I0
sg57
I10
ssI8
(dp384
g55
I7
sg56
I0
sg57
I1
ssI10
(dp385
g55
I5
sg56
I0
sg57
I4
ssI11
(dp386
g55
I7
sg56
I0
sg57
I6
ssI12
(dp387
g55
I6
sg56
I0
sg57
I4
ssI13
(dp388
g55
I8
sg56
I0
sg57
I6
ssI14
(dp389
g55
I5
sg56
I0
sg57
I4
ssI15
(dp390
g55
I6
sg56
I0
sg57
I5
ssI16
(dp391
g55
I6
sg56
I0
sg57
I4
ssI17
(dp392
g55
I7
sg56
I0
sg57
I8
ssI18
(dp393
g55
I8
sg56
I0
sg57
I4
ssI19
(dp394
g55
I6
sg56
I0
sg57
I7
ssI20
(dp395
g55
I8
sg56
I0
sg57
I6
ssI21
(dp396
g55
I7
sg56
I0
sg57
I5
ssI22
(dp397
g55
I7
sg56
I0
sg57
I9
ssI23
(dp398
g55
I8
sg56
I0
sg57
I2
ssI24
(dp399
g55
I8
sg56
I0
sg57
I1
ssI25
(dp400
g55
I8
sg56
I0
sg57
I9
ssI26
(dp401
g55
I8
sg56
I0
sg57
I10
ssI27
(dp402
g55
I6
sg56
I0
sg57
I4
ssI28
(dp403
g55
I5
sg56
I0
sg57
I9
ssI29
(dp404
g55
I7
sg56
I0
sg57
I8
ssI30
(dp405
g55
I5
sg56
I0
sg57
I3
ssI31
(dp406
g55
I7
sg56
I0
sg57
I0
ssI32
(dp407
g55
I5
sg56
I0
sg57
I8
ssI33
(dp408
g55
I6
sg56
I0
sg57
I8
ssI34
(dp409
g55
I6
sg56
I0
sg57
I10
ssI35
(dp410
g55
I8
sg56
I0
sg57
I9
ssI36
(dp411
g55
I7
sg56
I0
sg57
I9
ssI37
(dp412
g55
I8
sg56
I0
sg57
I9
ssI38
(dp413
g55
I5
sg56
I0
sg57
I0
ssI39
(dp414
g55
I8
sg56
I0
sg57
I4
ssI40
(dp415
g55
I6
sg56
I0
sg57
I3
sssI10
(dp416
I1
(dp417
g55
I6
sg56
I0
sg57
I8
ssI2
(dp418
g55
I5
sg56
I0
sg57
I4
ssI3
(dp419
g55
I7
sg56
I0
sg57
I9
ssI4
(dp420
g55
I8
sg56
I0
sg57
I0
ssI5
(dp421
g55
I8
sg56
I0
sg57
I0
ssI6
(dp422
g55
I7
sg56
I0
sg57
I10
ssI7
(dp423
g55
I8
sg56
I0
sg57
I4
ssI8
(dp424
g55
I8
sg56
I0
sg57
I4
ssI9
(dp425
g55
I5
sg56
I0
sg57
I6
ssI11
(dp426
g55
I6
sg56
I0
sg57
I2
ssI12
(dp427
g55
I5
sg56
I0
sg57
I7
ssI13
(dp428
g55
I5
sg56
I0
sg57
I4
ssI14
(dp429
g55
I6
sg56
I0
sg57
I6
ssI15
(dp430
g55
I5
sg56
I0
sg57
I0
ssI16
(dp431
g55
I5
sg56
I0
sg57
I6
ssI17
(dp432
g55
I5
sg56
I0
sg57
I4
ssI18
(dp433
g55
I6
sg56
I0
sg57
I2
ssI19
(dp434
g55
I5
sg56
I0
sg57
I2
ssI20
(dp435
g55
I5
sg56
I0
sg57
I10
ssI21
(dp436
g55
I5
sg56
I0
sg57
I8
ssI22
(dp437
g55
I5
sg56
I0
sg57
I5
ssI23
(dp438
g55
I8
sg56
I0
sg57
I3
ssI24
(dp439
g55
I6
sg56
I0
sg57
I6
ssI25
(dp440
g55
I7
sg56
I0
sg57
I0
ssI26
(dp441
g55
I7
sg56
I0
sg57
I5
ssI27
(dp442
g55
I8
sg56
I0
sg57
I4
ssI28
(dp443
g55
I8
sg56
I0
sg57
I9
ssI29
(dp444
g55
I7
sg56
I0
sg57
I5
ssI30
(dp445
g55
I5
sg56
I0
sg57
I2
ssI31
(dp446
g55
I5
sg56
I0
sg57
I9
ssI32
(dp447
g55
I5
sg56
I0
sg57
I10
ssI33
(dp448
g55
I6
sg56
I0
sg57
I0
ssI34
(dp449
g55
I7
sg56
I0
sg57
I10
ssI35
(dp450
g55
I5
sg56
I0
sg57
I10
ssI36
(dp451
g55
I8
sg56
I0
sg57
I0
ssI37
(dp452
g55
I7
sg56
I0
sg57
I7
ssI38
(dp453
g55
I6
sg56
I0
sg57
I7
ssI39
(dp454
g55
I7
sg56
I0
sg57
I3
ssI40
(dp455
g55
I8
sg56
I0
sg57
I0
sssI11
(dp456
I1
(dp457
g55
I7
sg56
I0
sg57
I1
ssI2
(dp458
g55
I8
sg56
I0
sg57
I6
ssI3
(dp459
g55
I6
sg56
I0
sg57
I2
ssI4
(dp460
g55
I6
sg56
I0
sg57
I2
ssI5
(dp461
g55
I6
sg56
I0
sg57
I3
ssI6
(dp462
g55
I7
sg56
I0
sg57
I3
ssI7
(dp463
g55
I8
sg56
I0
sg57
I0
ssI8
(dp464
g55
I8
sg56
I0
sg57
I1
ssI9
(dp465
g55
I7
sg56
I0
sg57
I1
ssI10
(dp466
g55
I8
sg56
I0
sg57
I8
ssI12
(dp467
g55
I6
sg56
I0
sg57
I6
ssI13
(dp468
g55
I6
sg56
I0
sg57
I0
ssI14
(dp469
g55
I6
sg56
I0
sg57
I2
ssI15
(dp470
g55
I8
sg56
I0
sg57
I1
ssI16
(dp471
g55
I7
sg56
I0
sg57
I10
ssI17
(dp472
g55
I7
sg56
I0
sg57
I2
ssI18
(dp473
g55
I8
sg56
I0
sg57
I7
ssI19
(dp474
g55
I7
sg56
I0
sg57
I6
ssI20
(dp475
g55
I6
sg56
I0
sg57
I7
ssI21
(dp476
g55
I8
sg56
I0
sg57
I0
ssI22
(dp477
g55
I6
sg56
I0
sg57
I4
ssI23
(dp478
g55
I8
sg56
I0
sg57
I5
ssI24
(dp479
g55
I8
sg56
I0
sg57
I2
ssI25
(dp480
g55
I8
sg56
I0
sg57
I2
ssI26
(dp481
g55
I5
sg56
I0
sg57
I10
ssI27
(dp482
g55
I8
sg56
I0
sg57
I8
ssI28
(dp483
g55
I7
sg56
I0
sg57
I2
ssI29
(dp484
g55
I5
sg56
I0
sg57
I10
ssI30
(dp485
g55
I7
sg56
I0
sg57
I8
ssI31
(dp486
g55
I5
sg56
I0
sg57
I0
ssI32
(dp487
g55
I6
sg56
I0
sg57
I2
ssI33
(dp488
g55
I6
sg56
I0
sg57
I2
ssI34
(dp489
g55
I7
sg56
I0
sg57
I4
ssI35
(dp490
g55
I8
sg56
I0
sg57
I8
ssI36
(dp491
g55
I7
sg56
I0
sg57
I0
ssI37
(dp492
g55
I6
sg56
I0
sg57
I10
ssI38
(dp493
g55
I7
sg56
I0
sg57
I9
ssI39
(dp494
g55
I5
sg56
I0
sg57
I5
ssI40
(dp495
g55
I7
sg56
I0
sg57
I6
sssI12
(dp496
I1
(dp497
g55
I6
sg56
I0
sg57
I0
ssI2
(dp498
g55
I8
sg56
I0
sg57
I4
ssI3
(dp499
g55
I7
sg56
I0
sg57
I5
ssI4
(dp500
g55
I5
sg56
I0
sg57
I9
ssI5
(dp501
g55
I8
sg56
I0
sg57
I9
ssI6
(dp502
g55
I6
sg56
I0
sg57
I10
ssI7
(dp503
g55
I8
sg56
I0
sg57
I4
ssI8
(dp504
g55
I8
sg56
I0
sg57
I1
ssI9
(dp505
g55
I7
sg56
I0
sg57
I5
ssI10
(dp506
g55
I8
sg56
I0
sg57
I0
ssI11
(dp507
g55
I5
sg56
I0
sg57
I6
ssI13
(dp508
g55
I6
sg56
I0
sg57
I8
ssI14
(dp509
g55
I8
sg56
I0
sg57
I2
ssI15
(dp510
g55
I5
sg56
I0
sg57
I7
ssI16
(dp511
g55
I7
sg56
I0
sg57
I3
ssI17
(dp512
g55
I6
sg56
I0
sg57
I7
ssI18
(dp513
g55
I5
sg56
I0
sg57
I6
ssI19
(dp514
g55
I6
sg56
I0
sg57
I5
ssI20
(dp515
g55
I6
sg56
I0
sg57
I9
ssI21
(dp516
g55
I8
sg56
I0
sg57
I0
ssI22
(dp517
g55
I7
sg56
I0
sg57
I9
ssI23
(dp518
g55
I8
sg56
I0
sg57
I2
ssI24
(dp519
g55
I5
sg56
I0
sg57
I9
ssI25
(dp520
g55
I8
sg56
I0
sg57
I10
ssI26
(dp521
g55
I5
sg56
I0
sg57
I5
ssI27
(dp522
g55
I5
sg56
I0
sg57
I9
ssI28
(dp523
g55
I7
sg56
I0
sg57
I4
ssI29
(dp524
g55
I7
sg56
I0
sg57
I9
ssI30
(dp525
g55
I6
sg56
I0
sg57
I9
ssI31
(dp526
g55
I6
sg56
I0
sg57
I4
ssI32
(dp527
g55
I6
sg56
I0
sg57
I4
ssI33
(dp528
g55
I7
sg56
I0
sg57
I9
ssI34
(dp529
g55
I7
sg56
I0
sg57
I5
ssI35
(dp530
g55
I8
sg56
I0
sg57
I3
ssI36
(dp531
g55
I5
sg56
I0
sg57
I0
ssI37
(dp532
g55
I8
sg56
I0
sg57
I4
ssI38
(dp533
g55
I7
sg56
I0
sg57
I0
ssI39
(dp534
g55
I7
sg56
I0
sg57
I7
ssI40
(dp535
g55
I6
sg56
I0
sg57
I8
sssI13
(dp536
I1
(dp537
g55
I5
sg56
I0
sg57
I5
ssI2
(dp538
g55
I6
sg56
I0
sg57
I9
ssI3
(dp539
g55
I8
sg56
I0
sg57
I2
ssI4
(dp540
g55
I6
sg56
I0
sg57
I2
ssI5
(dp541
g55
I8
sg56
I0
sg57
I9
ssI6
(dp542
g55
I6
sg56
I0
sg57
I6
ssI7
(dp543
g55
I7
sg56
I0
sg57
I7
ssI8
(dp544
g55
I7
sg56
I0
sg57
I6
ssI9
(dp545
g55
I6
sg56
I0
sg57
I2
ssI10
(dp546
g55
I5
sg56
I0
sg57
I9
ssI11
(dp547
g55
I7
sg56
I0
sg57
I10
ssI12
(dp548
g55
I7
sg56
I0
sg57
I1
ssI14
(dp549
g55
I8
sg56
I0
sg57
I6
ssI15
(dp550
g55
I5
sg56
I0
sg57
I7
ssI16
(dp551
g55
I7
sg56
I0
sg57
I3
ssI17
(dp552
g55
I8
sg56
I0
sg57
I0
ssI18
(dp553
g55
I8
sg56
I0
sg57
I5
ssI19
(dp554
g55
I6
sg56
I0
sg57
I5
ssI20
(dp555
g55
I7
sg56
I0
sg57
I0
ssI21
(dp556
g55
I8
sg56
I0
sg57
I0
ssI22
(dp557
g55
I8
sg56
I0
sg57
I8
ssI23
(dp558
g55
I8
sg56
I0
sg57
I2
ssI24
(dp559
g55
I8
sg56
I0
sg57
I10
ssI25
(dp560
g55
I8
sg56
I0
sg57
I2
ssI26
(dp561
g55
I6
sg56
I0
sg57
I4
ssI27
(dp562
g55
I7
sg56
I0
sg57
I8
ssI28
(dp563
g55
I6
sg56
I0
sg57
I3
ssI29
(dp564
g55
I7
sg56
I0
sg57
I10
ssI30
(dp565
g55
I8
sg56
I0
sg57
I8
ssI31
(dp566
g55
I6
sg56
I0
sg57
I3
ssI32
(dp567
g55
I6
sg56
I0
sg57
I2
ssI33
(dp568
g55
I8
sg56
I0
sg57
I0
ssI34
(dp569
g55
I8
sg56
I0
sg57
I1
ssI35
(dp570
g55
I6
sg56
I0
sg57
I7
ssI36
(dp571
g55
I6
sg56
I0
sg57
I4
ssI37
(dp572
g55
I7
sg56
I0
sg57
I7
ssI38
(dp573
g55
I8
sg56
I0
sg57
I9
ssI39
(dp574
g55
I6
sg56
I0
sg57
I8
ssI40
(dp575
g55
I7
sg56
I0
sg57
I0
sssI14
(dp576
I1
(dp577
g55
I6
sg56
I0
sg57
I5
ssI2
(dp578
g55
I7
sg56
I0
sg57
I7
ssI3
(dp579
g55
I7
sg56
I0
sg57
I3
ssI4
(dp580
g55
I5
sg56
I0
sg57
I4
ssI5
(dp581
g55
I8
sg56
I0
sg57
I6
ssI6
(dp582
g55
I7
sg56
I0
sg57
I5
ssI7
(dp583
g55
I7
sg56
I0
sg57
I1
ssI8
(dp584
g55
I5
sg56
I0
sg57
I7
ssI9
(dp585
g55
I7
sg56
I0
sg57
I9
ssI10
(dp586
g55
I5
sg56
I0
sg57
I4
ssI11
(dp587
g55
I6
sg56
I0
sg57
I5
ssI12
(dp588
g55
I6
sg56
I0
sg57
I10
ssI13
(dp589
g55
I8
sg56
I0
sg57
I1
ssI15
(dp590
g55
I7
sg56
I0
sg57
I6
ssI16
(dp591
g55
I8
sg56
I0
sg57
I2
ssI17
(dp592
g55
I8
sg56
I0
sg57
I0
ssI18
(dp593
g55
I6
sg56
I0
sg57
I9
ssI19
(dp594
g55
I5
sg56
I0
sg57
I5
ssI20
(dp595
g55
I8
sg56
I0
sg57
I0
ssI21
(dp596
g55
I7
sg56
I0
sg57
I1
ssI22
(dp597
g55
I6
sg56
I0
sg57
I3
ssI23
(dp598
g55
I6
sg56
I0
sg57
I10
ssI24
(dp599
g55
I8
sg56
I0
sg57
I2
ssI25
(dp600
g55
I7
sg56
I0
sg57
I3
ssI26
(dp601
g55
I7
sg56
I0
sg57
I4
ssI27
(dp602
g55
I8
sg56
I0
sg57
I3
ssI28
(dp603
g55
I8
sg56
I0
sg57
I4
ssI29
(dp604
g55
I8
sg56
I0
sg57
I10
ssI30
(dp605
g55
I6
sg56
I0
sg57
I2
ssI31
(dp606
g55
I8
sg56
I0
sg57
I6
ssI32
(dp607
g55
I7
sg56
I0
sg57
I10
ssI33
(dp608
g55
I7
sg56
I0
sg57
I5
ssI34
(dp609
g55
I5
sg56
I0
sg57
I2
ssI35
(dp610
g55
I5
sg56
I0
sg57
I1
ssI36
(dp611
g55
I5
sg56
I0
sg57
I8
ssI37
(dp612
g55
I7
sg56
I0
sg57
I6
ssI38
(dp613
g55
I8
sg56
I0
sg57
I0
ssI39
(dp614
g55
I8
sg56
I0
sg57
I5
ssI40
(dp615
g55
I5
sg56
I0
sg57
I9
sssI15
(dp616
I1
(dp617
g55
I7
sg56
I0
sg57
I10
ssI2
(dp618
g55
I5
sg56
I0
sg57
I3
ssI3
(dp619
g55
I5
sg56
I0
sg57
I3
ssI4
(dp620
g55
I5
sg56
I0
sg57
I8
ssI5
(dp621
g55
I5
sg56
I0
sg57
I4
ssI6
(dp622
g55
I6
sg56
I0
sg57
I5
ssI7
(dp623
g55
I6
sg56
I0
sg57
I10
ssI8
(dp624
g55
I7
sg56
I0
sg57
I5
ssI9
(dp625
g55
I6
sg56
I0
sg57
I7
ssI10
(dp626
g55
I6
sg56
I0
sg57
I10
ssI11
(dp627
g55
I5
sg56
I0
sg57
I8
ssI12
(dp628
g55
I7
sg56
I0
sg57
I0
ssI13
(dp629
g55
I5
sg56
I0
sg57
I10
ssI14
(dp630
g55
I6
sg56
I0
sg57
I1
ssI16
(dp631
g55
I5
sg56
I0
sg57
I7
ssI17
(dp632
g55
I8
sg56
I0
sg57
I6
ssI18
(dp633
g55
I5
sg56
I0
sg57
I6
ssI19
(dp634
g55
I7
sg56
I0
sg57
I0
ssI20
(dp635
g55
I8
sg56
I0
sg57
I8
ssI21
(dp636
g55
I7
sg56
I0
sg57
I3
ssI22
(dp637
g55
I5
sg56
I0
sg57
I3
ssI23
(dp638
g55
I7
sg56
I0
sg57
I0
ssI24
(dp639
g55
I5
sg56
I0
sg57
I7
ssI25
(dp640
g55
I7
sg56
I0
sg57
I6
ssI26
(dp641
g55
I8
sg56
I0
sg57
I5
ssI27
(dp642
g55
I6
sg56
I0
sg57
I0
ssI28
(dp643
g55
I8
sg56
I0
sg57
I10
ssI29
(dp644
g55
I7
sg56
I0
sg57
I6
ssI30
(dp645
g55
I5
sg56
I0
sg57
I4
ssI31
(dp646
g55
I8
sg56
I0
sg57
I3
ssI32
(dp647
g55
I6
sg56
I0
sg57
I8
ssI33
(dp648
g55
I7
sg56
I0
sg57
I8
ssI34
(dp649
g55
I5
sg56
I0
sg57
I8
ssI35
(dp650
g55
I8
sg56
I0
sg57
I7
ssI36
(dp651
g55
I5
sg56
I0
sg57
I1
ssI37
(dp652
g55
I5
sg56
I0
sg57
I1
ssI38
(dp653
g55
I8
sg56
I0
sg57
I10
ssI39
(dp654
g55
I6
sg56
I0
sg57
I6
ssI40
(dp655
g55
I8
sg56
I0
sg57
I7
sssI16
(dp656
I1
(dp657
g55
I6
sg56
I0
sg57
I7
ssI2
(dp658
g55
I7
sg56
I0
sg57
I0
ssI3
(dp659
g55
I6
sg56
I0
sg57
I4
ssI4
(dp660
g55
I5
sg56
I0
sg57
I5
ssI5
(dp661
g55
I6
sg56
I0
sg57
I1
ssI6
(dp662
g55
I8
sg56
I0
sg57
I2
ssI7
(dp663
g55
I6
sg56
I0
sg57
I5
ssI8
(dp664
g55
I5
sg56
I0
sg57
I2
ssI9
(dp665
g55
I5
sg56
I0
sg57
I6
ssI10
(dp666
g55
I8
sg56
I0
sg57
I1
ssI11
(dp667
g55
I7
sg56
I0
sg57
I8
ssI12
(dp668
g55
I8
sg56
I0
sg57
I9
ssI13
(dp669
g55
I6
sg56
I0
sg57
I6
ssI14
(dp670
g55
I8
sg56
I0
sg57
I2
ssI15
(dp671
g55
I6
sg56
I0
sg57
I6
ssI17
(dp672
g55
I8
sg56
I0
sg57
I9
ssI18
(dp673
g55
I5
sg56
I0
sg57
I0
ssI19
(dp674
g55
I7
sg56
I0
sg57
I1
ssI20
(dp675
g55
I6
sg56
I0
sg57
I4
ssI21
(dp676
g55
I6
sg56
I0
sg57
I6
ssI22
(dp677
g55
I7
sg56
I0
sg57
I9
ssI23
(dp678
g55
I8
sg56
I0
sg57
I2
ssI24
(dp679
g55
I7
sg56
I0
sg57
I8
ssI25
(dp680
g55
I6
sg56
I0
sg57
I0
ssI26
(dp681
g55
I5
sg56
I0
sg57
I8
ssI27
(dp682
g55
I8
sg56
I0
sg57
I7
ssI28
(dp683
g55
I8
sg56
I0
sg57
I0
ssI29
(dp684
g55
I7
sg56
I0
sg57
I9
ssI30
(dp685
g55
I5
sg56
I0
sg57
I10
ssI31
(dp686
g55
I6
sg56
I0
sg57
I9
ssI32
(dp687
g55
I8
sg56
I0
sg57
I1
ssI33
(dp688
g55
I8
sg56
I0
sg57
I9
ssI34
(dp689
g55
I7
sg56
I0
sg57
I2
ssI35
(dp690
g55
I5
sg56
I0
sg57
I6
ssI36
(dp691
g55
I6
sg56
I0
sg57
I4
ssI37
(dp692
g55
I5
sg56
I0
sg57
I2
ssI38
(dp693
g55
I7
sg56
I0
sg57
I6
ssI39
(dp694
g55
I7
sg56
I0
sg57
I5
ssI40
(dp695
g55
I6
sg56
I0
sg57
I3
sssI17
(dp696
I1
(dp697
g55
I5
sg56
I0
sg57
I2
ssI2
(dp698
g55
I8
sg56
I0
sg57
I6
ssI3
(dp699
g55
I5
sg56
I0
sg57
I7
ssI4
(dp700
g55
I6
sg56
I0
sg57
I10
ssI5
(dp701
g55
I7
sg56
I0
sg57
I1
ssI6
(dp702
g55
I7
sg56
I0
sg57
I10
ssI7
(dp703
g55
I5
sg56
I0
sg57
I10
ssI8
(dp704
g55
I7
sg56
I0
sg57
I6
ssI9
(dp705
g55
I5
sg56
I0
sg57
I8
ssI10
(dp706
g55
I7
sg56
I0
sg57
I7
ssI11
(dp707
g55
I6
sg56
I0
sg57
I7
ssI12
(dp708
g55
I6
sg56
I0
sg57
I3
ssI13
(dp709
g55
I5
sg56
I0
sg57
I10
ssI14
(dp710
g55
I6
sg56
I0
sg57
I8
ssI15
(dp711
g55
I5
sg56
I0
sg57
I8
ssI16
(dp712
g55
I6
sg56
I0
sg57
I5
ssI18
(dp713
g55
I5
sg56
I0
sg57
I3
ssI19
(dp714
g55
I5
sg56
I0
sg57
I4
ssI20
(dp715
g55
I7
sg56
I0
sg57
I8
ssI21
(dp716
g55
I7
sg56
I0
sg57
I6
ssI22
(dp717
g55
I8
sg56
I0
sg57
I1
ssI23
(dp718
g55
I8
sg56
I0
sg57
I8
ssI24
(dp719
g55
I8
sg56
I0
sg57
I5
ssI25
(dp720
g55
I7
sg56
I0
sg57
I1
ssI26
(dp721
g55
I5
sg56
I0
sg57
I1
ssI27
(dp722
g55
I6
sg56
I0
sg57
I2
ssI28
(dp723
g55
I7
sg56
I0
sg57
I7
ssI29
(dp724
g55
I6
sg56
I0
sg57
I5
ssI30
(dp725
g55
I7
sg56
I0
sg57
I1
ssI31
(dp726
g55
I7
sg56
I0
sg57
I7
ssI32
(dp727
g55
I8
sg56
I0
sg57
I10
ssI33
(dp728
g55
I6
sg56
I0
sg57
I10
ssI34
(dp729
g55
I8
sg56
I0
sg57
I8
ssI35
(dp730
g55
I7
sg56
I0
sg57
I0
ssI36
(dp731
g55
I5
sg56
I0
sg57
I3
ssI37
(dp732
g55
I8
sg56
I0
sg57
I7
ssI38
(dp733
g55
I7
sg56
I0
sg57
I1
ssI39
(dp734
g55
I7
sg56
I0
sg57
I9
ssI40
(dp735
g55
I7
sg56
I0
sg57
I2
sssI18
(dp736
I1
(dp737
g55
I8
sg56
I0
sg57
I1
ssI2
(dp738
g55
I6
sg56
I0
sg57
I10
ssI3
(dp739
g55
I7
sg56
I0
sg57
I9
ssI4
(dp740
g55
I8
sg56
I0
sg57
I5
ssI5
(dp741
g55
I6
sg56
I0
sg57
I6
ssI6
(dp742
g55
I5
sg56
I0
sg57
I10
ssI7
(dp743
g55
I8
sg56
I0
sg57
I9
ssI8
(dp744
g55
I6
sg56
I0
sg57
I7
ssI9
(dp745
g55
I6
sg56
I0
sg57
I2
ssI10
(dp746
g55
I8
sg56
I0
sg57
I2
ssI11
(dp747
g55
I5
sg56
I0
sg57
I1
ssI12
(dp748
g55
I6
sg56
I0
sg57
I7
ssI13
(dp749
g55
I5
sg56
I0
sg57
I10
ssI14
(dp750
g55
I8
sg56
I0
sg57
I1
ssI15
(dp751
g55
I8
sg56
I0
sg57
I1
ssI16
(dp752
g55
I5
sg56
I0
sg57
I7
ssI17
(dp753
g55
I7
sg56
I0
sg57
I4
ssI19
(dp754
g55
I6
sg56
I0
sg57
I7
ssI20
(dp755
g55
I8
sg56
I0
sg57
I0
ssI21
(dp756
g55
I7
sg56
I0
sg57
I7
ssI22
(dp757
g55
I8
sg56
I0
sg57
I9
ssI23
(dp758
g55
I5
sg56
I0
sg57
I6
ssI24
(dp759
g55
I7
sg56
I0
sg57
I9
ssI25
(dp760
g55
I6
sg56
I0
sg57
I5
ssI26
(dp761
g55
I5
sg56
I0
sg57
I5
ssI27
(dp762
g55
I8
sg56
I0
sg57
I3
ssI28
(dp763
g55
I7
sg56
I0
sg57
I3
ssI29
(dp764
g55
I7
sg56
I0
sg57
I0
ssI30
(dp765
g55
I5
sg56
I0
sg57
I3
ssI31
(dp766
g55
I6
sg56
I0
sg57
I10
ssI32
(dp767
g55
I6
sg56
I0
sg57
I4
ssI33
(dp768
g55
I8
sg56
I0
sg57
I7
ssI34
(dp769
g55
I5
sg56
I0
sg57
I3
ssI35
(dp770
g55
I5
sg56
I0
sg57
I7
ssI36
(dp771
g55
I5
sg56
I0
sg57
I6
ssI37
(dp772
g55
I5
sg56
I0
sg57
I0
ssI38
(dp773
g55
I5
sg56
I0
sg57
I4
ssI39
(dp774
g55
I6
sg56
I0
sg57
I10
ssI40
(dp775
g55
I8
sg56
I0
sg57
I8
sssI19
(dp776
I1
(dp777
g55
I6
sg56
I0
sg57
I10
ssI2
(dp778
g55
I5
sg56
I0
sg57
I6
ssI3
(dp779
g55
I7
sg56
I0
sg57
I1
ssI4
(dp780
g55
I8
sg56
I0
sg57
I7
ssI5
(dp781
g55
I8
sg56
I0
sg57
I0
ssI6
(dp782
g55
I7
sg56
I0
sg57
I0
ssI7
(dp783
g55
I8
sg56
I0
sg57
I7
ssI8
(dp784
g55
I5
sg56
I0
sg57
I5
ssI9
(dp785
g55
I6
sg56
I0
sg57
I10
ssI10
(dp786
g55
I5
sg56
I0
sg57
I0
ssI11
(dp787
g55
I5
sg56
I0
sg57
I1
ssI12
(dp788
g55
I6
sg56
I0
sg57
I3
ssI13
(dp789
g55
I5
sg56
I0
sg57
I8
ssI14
(dp790
g55
I7
sg56
I0
sg57
I8
ssI15
(dp791
g55
I6
sg56
I0
sg57
I7
ssI16
(dp792
g55
I8
sg56
I0
sg57
I9
ssI17
(dp793
g55
I8
sg56
I0
sg57
I6
ssI18
(dp794
g55
I6
sg56
I0
sg57
I6
ssI20
(dp795
g55
I6
sg56
I0
sg57
I6
ssI21
(dp796
g55
I6
sg56
I0
sg57
I10
ssI22
(dp797
g55
I5
sg56
I0
sg57
I5
ssI23
(dp798
g55
I7
sg56
I0
sg57
I9
ssI24
(dp799
g55
I8
sg56
I0
sg57
I4
ssI25
(dp800
g55
I6
sg56
I0
sg57
I6
ssI26
(dp801
g55
I7
sg56
I0
sg57
I4
ssI27
(dp802
g55
I8
sg56
I0
sg57
I7
ssI28
(dp803
g55
I8
sg56
I0
sg57
I5
ssI29
(dp804
g55
I8
sg56
I0
sg57
I3
ssI30
(dp805
g55
I6
sg56
I0
sg57
I4
ssI31
(dp806
g55
I8
sg56
I0
sg57
I7
ssI32
(dp807
g55
I5
sg56
I0
sg57
I4
ssI33
(dp808
g55
I8
sg56
I0
sg57
I7
ssI34
(dp809
g55
I6
sg56
I0
sg57
I1
ssI35
(dp810
g55
I5
sg56
I0
sg57
I7
ssI36
(dp811
g55
I6
sg56
I0
sg57
I8
ssI37
(dp812
g55
I6
sg56
I0
sg57
I0
ssI38
(dp813
g55
I7
sg56
I0
sg57
I5
ssI39
(dp814
g55
I6
sg56
I0
sg57
I5
ssI40
(dp815
g55
I5
sg56
I0
sg57
I5
sssI20
(dp816
I1
(dp817
g55
I8
sg56
I0
sg57
I2
ssI2
(dp818
g55
I8
sg56
I0
sg57
I3
ssI3
(dp819
g55
I6
sg56
I0
sg57
I10
ssI4
(dp820
g55
I8
sg56
I0
sg57
I3
ssI5
(dp821
g55
I5
sg56
I0
sg57
I3
ssI6
(dp822
g55
I6
sg56
I0
sg57
I3
ssI7
(dp823
g55
I6
sg56
I0
sg57
I6
ssI8
(dp824
g55
I6
sg56
I0
sg57
I5
ssI9
(dp825
g55
I5
sg56
I0
sg57
I9
ssI10
(dp826
g55
I6
sg56
I0
sg57
I4
ssI11
(dp827
g55
I6
sg56
I0
sg57
I0
ssI12
(dp828
g55
I7
sg56
I0
sg57
I2
ssI13
(dp829
g55
I5
sg56
I0
sg57
I3
ssI14
(dp830
g55
I5
sg56
I0
sg57
I1
ssI15
(dp831
g55
I7
sg56
I0
sg57
I2
ssI16
(dp832
g55
I5
sg56
I0
sg57
I5
ssI17
(dp833
g55
I8
sg56
I0
sg57
I9
ssI18
(dp834
g55
I6
sg56
I0
sg57
I7
ssI19
(dp835
g55
I5
sg56
I0
sg57
I3
ssI21
(dp836
g55
I7
sg56
I0
sg57
I0
ssI22
(dp837
g55
I5
sg56
I0
sg57
I5
ssI23
(dp838
g55
I6
sg56
I0
sg57
I0
ssI24
(dp839
g55
I7
sg56
I0
sg57
I1
ssI25
(dp840
g55
I8
sg56
I0
sg57
I10
ssI26
(dp841
g55
I5
sg56
I0
sg57
I8
ssI27
(dp842
g55
I5
sg56
I0
sg57
I10
ssI28
(dp843
g55
I6
sg56
I0
sg57
I3
ssI29
(dp844
g55
I8
sg56
I0
sg57
I10
ssI30
(dp845
g55
I5
sg56
I0
sg57
I0
ssI31
(dp846
g55
I7
sg56
I0
sg57
I10
ssI32
(dp847
g55
I6
sg56
I0
sg57
I1
ssI33
(dp848
g55
I6
sg56
I0
sg57
I9
ssI34
(dp849
g55
I8
sg56
I0
sg57
I4
ssI35
(dp850
g55
I7
sg56
I0
sg57
I2
ssI36
(dp851
g55
I8
sg56
I0
sg57
I5
ssI37
(dp852
g55
I6
sg56
I0
sg57
I0
ssI38
(dp853
g55
I8
sg56
I0
sg57
I3
ssI39
(dp854
g55
I5
sg56
I0
sg57
I9
ssI40
(dp855
g55
I8
sg56
I0
sg57
I4
sssI21
(dp856
I1
(dp857
g55
I7
sg56
I0
sg57
I10
ssI2
(dp858
g55
I6
sg56
I0
sg57
I3
ssI3
(dp859
g55
I8
sg56
I0
sg57
I1
ssI4
(dp860
g55
I5
sg56
I0
sg57
I0
ssI5
(dp861
g55
I7
sg56
I0
sg57
I5
ssI6
(dp862
g55
I5
sg56
I0
sg57
I4
ssI7
(dp863
g55
I5
sg56
I0
sg57
I3
ssI8
(dp864
g55
I6
sg56
I0
sg57
I8
ssI9
(dp865
g55
I5
sg56
I0
sg57
I1
ssI10
(dp866
g55
I7
sg56
I0
sg57
I6
ssI11
(dp867
g55
I5
sg56
I0
sg57
I0
ssI12
(dp868
g55
I7
sg56
I0
sg57
I8
ssI13
(dp869
g55
I7
sg56
I0
sg57
I4
ssI14
(dp870
g55
I7
sg56
I0
sg57
I1
ssI15
(dp871
g55
I8
sg56
I0
sg57
I10
ssI16
(dp872
g55
I8
sg56
I0
sg57
I6
ssI17
(dp873
g55
I6
sg56
I0
sg57
I1
ssI18
(dp874
g55
I5
sg56
I0
sg57
I5
ssI19
(dp875
g55
I6
sg56
I0
sg57
I4
ssI20
(dp876
g55
I5
sg56
I0
sg57
I5
ssI22
(dp877
g55
I6
sg56
I0
sg57
I9
ssI23
(dp878
g55
I5
sg56
I0
sg57
I3
ssI24
(dp879
g55
I6
sg56
I0
sg57
I6
ssI25
(dp880
g55
I6
sg56
I0
sg57
I5
ssI26
(dp881
g55
I8
sg56
I0
sg57
I1
ssI27
(dp882
g55
I7
sg56
I0
sg57
I6
ssI28
(dp883
g55
I8
sg56
I0
sg57
I9
ssI29
(dp884
g55
I7
sg56
I0
sg57
I5
ssI30
(dp885
g55
I8
sg56
I0
sg57
I4
ssI31
(dp886
g55
I7
sg56
I0
sg57
I0
ssI32
(dp887
g55
I8
sg56
I0
sg57
I8
ssI33
(dp888
g55
I5
sg56
I0
sg57
I10
ssI34
(dp889
g55
I8
sg56
I0
sg57
I8
ssI35
(dp890
g55
I8
sg56
I0
sg57
I0
ssI36
(dp891
g55
I5
sg56
I0
sg57
I3
ssI37
(dp892
g55
I5
sg56
I0
sg57
I3
ssI38
(dp893
g55
I7
sg56
I0
sg57
I1
ssI39
(dp894
g55
I8
sg56
I0
sg57
I10
ssI40
(dp895
g55
I6
sg56
I0
sg57
I3
sssI22
(dp896
I1
(dp897
g55
I8
sg56
I0
sg57
I2
ssI2
(dp898
g55
I7
sg56
I0
sg57
I5
ssI3
(dp899
g55
I5
sg56
I0
sg57
I0
ssI4
(dp900
g55
I8
sg56
I0
sg57
I2
ssI5
(dp901
g55
I6
sg56
I0
sg57
I6
ssI6
(dp902
g55
I5
sg56
I0
sg57
I10
ssI7
(dp903
g55
I7
sg56
I0
sg57
I0
ssI8
(dp904
g55
I5
sg56
I0
sg57
I10
ssI9
(dp905
g55
I5
sg56
I0
sg57
I9
ssI10
(dp906
g55
I7
sg56
I0
sg57
I1
ssI11
(dp907
g55
I7
sg56
I0
sg57
I3
ssI12
(dp908
g55
I8
sg56
I0
sg57
I0
ssI13
(dp909
g55
I6
sg56
I0
sg57
I5
ssI14
(dp910
g55
I5
sg56
I0
sg57
I8
ssI15
(dp911
g55
I8
sg56
I0
sg57
I10
ssI16
(dp912
g55
I8
sg56
I0
sg57
I9
ssI17
(dp913
g55
I5
sg56
I0
sg57
I2
ssI18
(dp914
g55
I7
sg56
I0
sg57
I1
ssI19
(dp915
g55
I5
sg56
I0
sg57
I9
ssI20
(dp916
g55
I7
sg56
I0
sg57
I3
ssI21
(dp917
g55
I7
sg56
I0
sg57
I7
ssI23
(dp918
g55
I8
sg56
I0
sg57
I10
ssI24
(dp919
g55
I8
sg56
I0
sg57
I6
ssI25
(dp920
g55
I7
sg56
I0
sg57
I4
ssI26
(dp921
g55
I8
sg56
I0
sg57
I6
ssI27
(dp922
g55
I8
sg56
I0
sg57
I5
ssI28
(dp923
g55
I8
sg56
I0
sg57
I10
ssI29
(dp924
g55
I7
sg56
I0
sg57
I7
ssI30
(dp925
g55
I8
sg56
I0
sg57
I0
ssI31
(dp926
g55
I5
sg56
I0
sg57
I10
ssI32
(dp927
g55
I8
sg56
I0
sg57
I8
ssI33
(dp928
g55
I8
sg56
I0
sg57
I9
ssI34
(dp929
g55
I5
sg56
I0
sg57
I0
ssI35
(dp930
g55
I5
sg56
I0
sg57
I8
ssI36
(dp931
g55
I7
sg56
I0
sg57
I9
ssI37
(dp932
g55
I8
sg56
I0
sg57
I0
ssI38
(dp933
g55
I8
sg56
I0
sg57
I3
ssI39
(dp934
g55
I7
sg56
I0
sg57
I8
ssI40
(dp935
g55
I6
sg56
I0
sg57
I2
sssI23
(dp936
I1
(dp937
g55
I7
sg56
I0
sg57
I6
ssI2
(dp938
g55
I6
sg56
I0
sg57
I5
ssI3
(dp939
g55
I7
sg56
I0
sg57
I4
ssI4
(dp940
g55
I7
sg56
I0
sg57
I5
ssI5
(dp941
g55
I7
sg56
I0
sg57
I5
ssI6
(dp942
g55
I5
sg56
I0
sg57
I6
ssI7
(dp943
g55
I5
sg56
I0
sg57
I5
ssI8
(dp944
g55
I5
sg56
I0
sg57
I4
ssI9
(dp945
g55
I7
sg56
I0
sg57
I7
ssI10
(dp946
g55
I8
sg56
I0
sg57
I9
ssI11
(dp947
g55
I7
sg56
I0
sg57
I1
ssI12
(dp948
g55
I6
sg56
I0
sg57
I7
ssI13
(dp949
g55
I5
sg56
I0
sg57
I1
ssI14
(dp950
g55
I5
sg56
I0
sg57
I0
ssI15
(dp951
g55
I7
sg56
I0
sg57
I0
ssI16
(dp952
g55
I6
sg56
I0
sg57
I10
ssI17
(dp953
g55
I8
sg56
I0
sg57
I0
ssI18
(dp954
g55
I8
sg56
I0
sg57
I7
ssI19
(dp955
g55
I7
sg56
I0
sg57
I3
ssI20
(dp956
g55
I8
sg56
I0
sg57
I0
ssI21
(dp957
g55
I5
sg56
I0
sg57
I10
ssI22
(dp958
g55
I6
sg56
I0
sg57
I3
ssI24
(dp959
g55
I8
sg56
I0
sg57
I2
ssI25
(dp960
g55
I8
sg56
I0
sg57
I2
ssI26
(dp961
g55
I5
sg56
I0
sg57
I5
ssI27
(dp962
g55
I6
sg56
I0
sg57
I1
ssI28
(dp963
g55
I7
sg56
I0
sg57
I7
ssI29
(dp964
g55
I7
sg56
I0
sg57
I4
ssI30
(dp965
g55
I8
sg56
I0
sg57
I2
ssI31
(dp966
g55
I7
sg56
I0
sg57
I9
ssI32
(dp967
g55
I8
sg56
I0
sg57
I2
ssI33
(dp968
g55
I7
sg56
I0
sg57
I5
ssI34
(dp969
g55
I5
sg56
I0
sg57
I9
ssI35
(dp970
g55
I5
sg56
I0
sg57
I0
ssI36
(dp971
g55
I5
sg56
I0
sg57
I10
ssI37
(dp972
g55
I7
sg56
I0
sg57
I4
ssI38
(dp973
g55
I7
sg56
I0
sg57
I1
ssI39
(dp974
g55
I6
sg56
I0
sg57
I5
ssI40
(dp975
g55
I7
sg56
I0
sg57
I5
sssI24
(dp976
I1
(dp977
g55
I8
sg56
I0
sg57
I9
ssI2
(dp978
g55
I7
sg56
I0
sg57
I10
ssI3
(dp979
g55
I5
sg56
I0
sg57
I6
ssI4
(dp980
g55
I5
sg56
I0
sg57
I8
ssI5
(dp981
g55
I8
sg56
I0
sg57
I4
ssI6
(dp982
g55
I6
sg56
I0
sg57
I3
ssI7
(dp983
g55
I6
sg56
I0
sg57
I6
ssI8
(dp984
g55
I6
sg56
I0
sg57
I9
ssI9
(dp985
g55
I5
sg56
I0
sg57
I8
ssI10
(dp986
g55
I6
sg56
I0
sg57
I2
ssI11
(dp987
g55
I7
sg56
I0
sg57
I3
ssI12
(dp988
g55
I6
sg56
I0
sg57
I3
ssI13
(dp989
g55
I8
sg56
I0
sg57
I3
ssI14
(dp990
g55
I5
sg56
I0
sg57
I7
ssI15
(dp991
g55
I6
sg56
I0
sg57
I7
ssI16
(dp992
g55
I5
sg56
I0
sg57
I6
ssI17
(dp993
g55
I7
sg56
I0
sg57
I4
ssI18
(dp994
g55
I7
sg56
I0
sg57
I2
ssI19
(dp995
g55
I8
sg56
I0
sg57
I5
ssI20
(dp996
g55
I7
sg56
I0
sg57
I8
ssI21
(dp997
g55
I8
sg56
I0
sg57
I8
ssI22
(dp998
g55
I8
sg56
I0
sg57
I7
ssI23
(dp999
g55
I5
sg56
I0
sg57
I6
ssI25
(dp1000
g55
I5
sg56
I0
sg57
I1
ssI26
(dp1001
g55
I5
sg56
I0
sg57
I9
ssI27
(dp1002
g55
I7
sg56
I0
sg57
I4
ssI28
(dp1003
g55
I5
sg56
I0
sg57
I3
ssI29
(dp1004
g55
I5
sg56
I0
sg57
I5
ssI30
(dp1005
g55
I8
sg56
I0
sg57
I5
ssI31
(dp1006
g55
I8
sg56
I0
sg57
I9
ssI32
(dp1007
g55
I6
sg56
I0
sg57
I7
ssI33
(dp1008
g55
I7
sg56
I0
sg57
I0
ssI34
(dp1009
g55
I8
sg56
I0
sg57
I6
ssI35
(dp1010
g55
I7
sg56
I0
sg57
I8
ssI36
(dp1011
g55
I5
sg56
I0
sg57
I10
ssI37
(dp1012
g55
I5
sg56
I0
sg57
I4
ssI38
(dp1013
g55
I8
sg56
I0
sg57
I4
ssI39
(dp1014
g55
I8
sg56
I0
sg57
I8
ssI40
(dp1015
g55
I5
sg56
I0
sg57
I4
sssI25
(dp1016
I1
(dp1017
g55
I6
sg56
I0
sg57
I5
ssI2
(dp1018
g55
I5
sg56
I0
sg57
I7
ssI3
(dp1019
g55
I8
sg56
I0
sg57
I2
ssI4
(dp1020
g55
I8
sg56
I0
sg57
I10
ssI5
(dp1021
g55
I7
sg56
I0
sg57
I5
ssI6
(dp1022
g55
I6
sg56
I0
sg57
I0
ssI7
(dp1023
g55
I8
sg56
I0
sg57
I2
ssI8
(dp1024
g55
I6
sg56
I0
sg57
I6
ssI9
(dp1025
g55
I5
sg56
I0
sg57
I10
ssI10
(dp1026
g55
I6
sg56
I0
sg57
I7
ssI11
(dp1027
g55
I7
sg56
I0
sg57
I10
ssI12
(dp1028
g55
I7
sg56
I0
sg57
I4
ssI13
(dp1029
g55
I7
sg56
I0
sg57
I6
ssI14
(dp1030
g55
I7
sg56
I0
sg57
I5
ssI15
(dp1031
g55
I8
sg56
I0
sg57
I2
ssI16
(dp1032
g55
I7
sg56
I0
sg57
I10
ssI17
(dp1033
g55
I5
sg56
I0
sg57
I0
ssI18
(dp1034
g55
I8
sg56
I0
sg57
I10
ssI19
(dp1035
g55
I5
sg56
I0
sg57
I9
ssI20
(dp1036
g55
I5
sg56
I0
sg57
I4
ssI21
(dp1037
g55
I6
sg56
I0
sg57
I9
ssI22
(dp1038
g55
I6
sg56
I0
sg57
I2
ssI23
(dp1039
g55
I7
sg56
I0
sg57
I5
ssI24
(dp1040
g55
I8
sg56
I0
sg57
I3
ssI26
(dp1041
g55
I6
sg56
I0
sg57
I1
ssI27
(dp1042
g55
I6
sg56
I0
sg57
I3
ssI28
(dp1043
g55
I8
sg56
I0
sg57
I10
ssI29
(dp1044
g55
I7
sg56
I0
sg57
I6
ssI30
(dp1045
g55
I8
sg56
I0
sg57
I6
ssI31
(dp1046
g55
I6
sg56
I0
sg57
I1
ssI32
(dp1047
g55
I7
sg56
I0
sg57
I1
ssI33
(dp1048
g55
I5
sg56
I0
sg57
I5
ssI34
(dp1049
g55
I7
sg56
I0
sg57
I4
ssI35
(dp1050
g55
I5
sg56
I0
sg57
I7
ssI36
(dp1051
g55
I6
sg56
I0
sg57
I9
ssI37
(dp1052
g55
I7
sg56
I0
sg57
I5
ssI38
(dp1053
g55
I8
sg56
I0
sg57
I0
ssI39
(dp1054
g55
I8
sg56
I0
sg57
I9
ssI40
(dp1055
g55
I7
sg56
I0
sg57
I4
sssI26
(dp1056
I1
(dp1057
g55
I8
sg56
I0
sg57
I4
ssI2
(dp1058
g55
I7
sg56
I0
sg57
I10
ssI3
(dp1059
g55
I6
sg56
I0
sg57
I2
ssI4
(dp1060
g55
I7
sg56
I0
sg57
I8
ssI5
(dp1061
g55
I8
sg56
I0
sg57
I5
ssI6
(dp1062
g55
I6
sg56
I0
sg57
I3
ssI7
(dp1063
g55
I8
sg56
I0
sg57
I1
ssI8
(dp1064
g55
I7
sg56
I0
sg57
I2
ssI9
(dp1065
g55
I8
sg56
I0
sg57
I9
ssI10
(dp1066
g55
I7
sg56
I0
sg57
I4
ssI11
(dp1067
g55
I7
sg56
I0
sg57
I2
ssI12
(dp1068
g55
I6
sg56
I0
sg57
I1
ssI13
(dp1069
g55
I5
sg56
I0
sg57
I10
ssI14
(dp1070
g55
I6
sg56
I0
sg57
I2
ssI15
(dp1071
g55
I7
sg56
I0
sg57
I7
ssI16
(dp1072
g55
I5
sg56
I0
sg57
I1
ssI17
(dp1073
g55
I7
sg56
I0
sg57
I0
ssI18
(dp1074
g55
I7
sg56
I0
sg57
I3
ssI19
(dp1075
g55
I8
sg56
I0
sg57
I5
ssI20
(dp1076
g55
I7
sg56
I0
sg57
I9
ssI21
(dp1077
g55
I6
sg56
I0
sg57
I6
ssI22
(dp1078
g55
I7
sg56
I0
sg57
I3
ssI23
(dp1079
g55
I8
sg56
I0
sg57
I4
ssI24
(dp1080
g55
I5
sg56
I0
sg57
I7
ssI25
(dp1081
g55
I7
sg56
I0
sg57
I7
ssI27
(dp1082
g55
I8
sg56
I0
sg57
I9
ssI28
(dp1083
g55
I8
sg56
I0
sg57
I0
ssI29
(dp1084
g55
I5
sg56
I0
sg57
I5
ssI30
(dp1085
g55
I7
sg56
I0
sg57
I10
ssI31
(dp1086
g55
I6
sg56
I0
sg57
I7
ssI32
(dp1087
g55
I6
sg56
I0
sg57
I9
ssI33
(dp1088
g55
I5
sg56
I0
sg57
I9
ssI34
(dp1089
g55
I6
sg56
I0
sg57
I3
ssI35
(dp1090
g55
I6
sg56
I0
sg57
I7
ssI36
(dp1091
g55
I7
sg56
I0
sg57
I4
ssI37
(dp1092
g55
I7
sg56
I0
sg57
I2
ssI38
(dp1093
g55
I6
sg56
I0
sg57
I2
ssI39
(dp1094
g55
I6
sg56
I0
sg57
I10
ssI40
(dp1095
g55
I5
sg56
I0
sg57
I3
sssI27
(dp1096
I1
(dp1097
g55
I5
sg56
I0
sg57
I2
ssI2
(dp1098
g55
I7
sg56
I0
sg57
I1
ssI3
(dp1099
g55
I8
sg56
I0
sg57
I0
ssI4
(dp1100
g55
I7
sg56
I0
sg57
I9
ssI5
(dp1101
g55
I6
sg56
I0
sg57
I5
ssI6
(dp1102
g55
I6
sg56
I0
sg57
I0
ssI7
(dp1103
g55
I5
sg56
I0
sg57
I8
ssI8
(dp1104
g55
I5
sg56
I0
sg57
I7
ssI9
(dp1105
g55
I5
sg56
I0
sg57
I0
ssI10
(dp1106
g55
I7
sg56
I0
sg57
I10
ssI11
(dp1107
g55
I7
sg56
I0
sg57
I9
ssI12
(dp1108
g55
I6
sg56
I0
sg57
I7
ssI13
(dp1109
g55
I7
sg56
I0
sg57
I6
ssI14
(dp1110
g55
I6
sg56
I0
sg57
I10
ssI15
(dp1111
g55
I8
sg56
I0
sg57
I1
ssI16
(dp1112
g55
I8
sg56
I0
sg57
I10
ssI17
(dp1113
g55
I6
sg56
I0
sg57
I6
ssI18
(dp1114
g55
I6
sg56
I0
sg57
I7
ssI19
(dp1115
g55
I8
sg56
I0
sg57
I7
ssI20
(dp1116
g55
I7
sg56
I0
sg57
I3
ssI21
(dp1117
g55
I7
sg56
I0
sg57
I8
ssI22
(dp1118
g55
I6
sg56
I0
sg57
I4
ssI23
(dp1119
g55
I5
sg56
I0
sg57
I6
ssI24
(dp1120
g55
I6
sg56
I0
sg57
I4
ssI25
(dp1121
g55
I5
sg56
I0
sg57
I1
ssI26
(dp1122
g55
I6
sg56
I0
sg57
I5
ssI28
(dp1123
g55
I5
sg56
I0
sg57
I0
ssI29
(dp1124
g55
I7
sg56
I0
sg57
I4
ssI30
(dp1125
g55
I7
sg56
I0
sg57
I6
ssI31
(dp1126
g55
I8
sg56
I0
sg57
I3
ssI32
(dp1127
g55
I5
sg56
I0
sg57
I1
ssI33
(dp1128
g55
I7
sg56
I0
sg57
I0
ssI34
(dp1129
g55
I5
sg56
I0
sg57
I5
ssI35
(dp1130
g55
I6
sg56
I0
sg57
I10
ssI36
(dp1131
g55
I6
sg56
I0
sg57
I2
ssI37
(dp1132
g55
I5
sg56
I0
sg57
I1
ssI38
(dp1133
g55
I8
sg56
I0
sg57
I7
ssI39
(dp1134
g55
I5
sg56
I0
sg57
I5
ssI40
(dp1135
g55
I5
sg56
I0
sg57
I7
sssI28
(dp1136
I1
(dp1137
g55
I7
sg56
I0
sg57
I0
ssI2
(dp1138
g55
I6
sg56
I0
sg57
I10
ssI3
(dp1139
g55
I7
sg56
I0
sg57
I10
ssI4
(dp1140
g55
I7
sg56
I0
sg57
I8
ssI5
(dp1141
g55
I8
sg56
I0
sg57
I9
ssI6
(dp1142
g55
I5
sg56
I0
sg57
I3
ssI7
(dp1143
g55
I5
sg56
I0
sg57
I0
ssI8
(dp1144
g55
I7
sg56
I0
sg57
I8
ssI9
(dp1145
g55
I6
sg56
I0
sg57
I7
ssI10
(dp1146
g55
I7
sg56
I0
sg57
I5
ssI11
(dp1147
g55
I8
sg56
I0
sg57
I7
ssI12
(dp1148
g55
I5
sg56
I0
sg57
I10
ssI13
(dp1149
g55
I7
sg56
I0
sg57
I7
ssI14
(dp1150
g55
I8
sg56
I0
sg57
I7
ssI15
(dp1151
g55
I7
sg56
I0
sg57
I6
ssI16
(dp1152
g55
I7
sg56
I0
sg57
I4
ssI17
(dp1153
g55
I6
sg56
I0
sg57
I5
ssI18
(dp1154
g55
I7
sg56
I0
sg57
I8
ssI19
(dp1155
g55
I5
sg56
I0
sg57
I0
ssI20
(dp1156
g55
I6
sg56
I0
sg57
I10
ssI21
(dp1157
g55
I7
sg56
I0
sg57
I10
ssI22
(dp1158
g55
I6
sg56
I0
sg57
I8
ssI23
(dp1159
g55
I7
sg56
I0
sg57
I7
ssI24
(dp1160
g55
I8
sg56
I0
sg57
I5
ssI25
(dp1161
g55
I8
sg56
I0
sg57
I2
ssI26
(dp1162
g55
I7
sg56
I0
sg57
I4
ssI27
(dp1163
g55
I6
sg56
I0
sg57
I4
ssI29
(dp1164
g55
I6
sg56
I0
sg57
I0
ssI30
(dp1165
g55
I6
sg56
I0
sg57
I10
ssI31
(dp1166
g55
I5
sg56
I0
sg57
I2
ssI32
(dp1167
g55
I7
sg56
I0
sg57
I7
ssI33
(dp1168
g55
I5
sg56
I0
sg57
I3
ssI34
(dp1169
g55
I7
sg56
I0
sg57
I3
ssI35
(dp1170
g55
I6
sg56
I0
sg57
I3
ssI36
(dp1171
g55
I8
sg56
I0
sg57
I4
ssI37
(dp1172
g55
I6
sg56
I0
sg57
I6
ssI38
(dp1173
g55
I5
sg56
I0
sg57
I1
ssI39
(dp1174
g55
I7
sg56
I0
sg57
I3
ssI40
(dp1175
g55
I7
sg56
I0
sg57
I6
sssI29
(dp1176
I1
(dp1177
g55
I5
sg56
I0
sg57
I7
ssI2
(dp1178
g55
I8
sg56
I0
sg57
I4
ssI3
(dp1179
g55
I6
sg56
I0
sg57
I6
ssI4
(dp1180
g55
I6
sg56
I0
sg57
I5
ssI5
(dp1181
g55
I8
sg56
I0
sg57
I1
ssI6
(dp1182
g55
I8
sg56
I0
sg57
I7
ssI7
(dp1183
g55
I5
sg56
I0
sg57
I6
ssI8
(dp1184
g55
I5
sg56
I0
sg57
I4
ssI9
(dp1185
g55
I8
sg56
I0
sg57
I3
ssI10
(dp1186
g55
I8
sg56
I0
sg57
I3
ssI11
(dp1187
g55
I7
sg56
I0
sg57
I1
ssI12
(dp1188
g55
I5
sg56
I0
sg57
I2
ssI13
(dp1189
g55
I8
sg56
I0
sg57
I2
ssI14
(dp1190
g55
I6
sg56
I0
sg57
I2
ssI15
(dp1191
g55
I6
sg56
I0
sg57
I4
ssI16
(dp1192
g55
I5
sg56
I0
sg57
I9
ssI17
(dp1193
g55
I7
sg56
I0
sg57
I7
ssI18
(dp1194
g55
I6
sg56
I0
sg57
I4
ssI19
(dp1195
g55
I7
sg56
I0
sg57
I10
ssI20
(dp1196
g55
I8
sg56
I0
sg57
I5
ssI21
(dp1197
g55
I7
sg56
I0
sg57
I0
ssI22
(dp1198
g55
I6
sg56
I0
sg57
I7
ssI23
(dp1199
g55
I8
sg56
I0
sg57
I4
ssI24
(dp1200
g55
I5
sg56
I0
sg57
I3
ssI25
(dp1201
g55
I6
sg56
I0
sg57
I7
ssI26
(dp1202
g55
I6
sg56
I0
sg57
I0
ssI27
(dp1203
g55
I8
sg56
I0
sg57
I1
ssI28
(dp1204
g55
I6
sg56
I0
sg57
I1
ssI30
(dp1205
g55
I8
sg56
I0
sg57
I0
ssI31
(dp1206
g55
I6
sg56
I0
sg57
I10
ssI32
(dp1207
g55
I6
sg56
I0
sg57
I8
ssI33
(dp1208
g55
I7
sg56
I0
sg57
I7
ssI34
(dp1209
g55
I7
sg56
I0
sg57
I2
ssI35
(dp1210
g55
I6
sg56
I0
sg57
I1
ssI36
(dp1211
g55
I6
sg56
I0
sg57
I2
ssI37
(dp1212
g55
I7
sg56
I0
sg57
I3
ssI38
(dp1213
g55
I6
sg56
I0
sg57
I7
ssI39
(dp1214
g55
I6
sg56
I0
sg57
I9
ssI40
(dp1215
g55
I5
sg56
I0
sg57
I6
sssI30
(dp1216
I1
(dp1217
g55
I8
sg56
I0
sg57
I2
ssI2
(dp1218
g55
I8
sg56
I0
sg57
I3
ssI3
(dp1219
g55
I8
sg56
I0
sg57
I10
ssI4
(dp1220
g55
I6
sg56
I0
sg57
I8
ssI5
(dp1221
g55
I8
sg56
I0
sg57
I1
ssI6
(dp1222
g55
I5
sg56
I0
sg57
I8
ssI7
(dp1223
g55
I5
sg56
I0
sg57
I10
ssI8
(dp1224
g55
I7
sg56
I0
sg57
I9
ssI9
(dp1225
g55
I6
sg56
I0
sg57
I4
ssI10
(dp1226
g55
I5
sg56
I0
sg57
I4
ssI11
(dp1227
g55
I8
sg56
I0
sg57
I9
ssI12
(dp1228
g55
I5
sg56
I0
sg57
I10
ssI13
(dp1229
g55
I7
sg56
I0
sg57
I3
ssI14
(dp1230
g55
I5
sg56
I0
sg57
I7
ssI15
(dp1231
g55
I7
sg56
I0
sg57
I9
ssI16
(dp1232
g55
I5
sg56
I0
sg57
I10
ssI17
(dp1233
g55
I7
sg56
I0
sg57
I2
ssI18
(dp1234
g55
I5
sg56
I0
sg57
I8
ssI19
(dp1235
g55
I5
sg56
I0
sg57
I1
ssI20
(dp1236
g55
I5
sg56
I0
sg57
I2
ssI21
(dp1237
g55
I7
sg56
I0
sg57
I3
ssI22
(dp1238
g55
I5
sg56
I0
sg57
I3
ssI23
(dp1239
g55
I6
sg56
I0
sg57
I5
ssI24
(dp1240
g55
I7
sg56
I0
sg57
I2
ssI25
(dp1241
g55
I7
sg56
I0
sg57
I0
ssI26
(dp1242
g55
I6
sg56
I0
sg57
I9
ssI27
(dp1243
g55
I8
sg56
I0
sg57
I10
ssI28
(dp1244
g55
I6
sg56
I0
sg57
I9
ssI29
(dp1245
g55
I8
sg56
I0
sg57
I0
ssI31
(dp1246
g55
I8
sg56
I0
sg57
I7
ssI32
(dp1247
g55
I6
sg56
I0
sg57
I3
ssI33
(dp1248
g55
I5
sg56
I0
sg57
I8
ssI34
(dp1249
g55
I8
sg56
I0
sg57
I8
ssI35
(dp1250
g55
I6
sg56
I0
sg57
I1
ssI36
(dp1251
g55
I8
sg56
I0
sg57
I0
ssI37
(dp1252
g55
I8
sg56
I0
sg57
I2
ssI38
(dp1253
g55
I8
sg56
I0
sg57
I0
ssI39
(dp1254
g55
I8
sg56
I0
sg57
I8
ssI40
(dp1255
g55
I7
sg56
I0
sg57
I7
sssI31
(dp1256
I1
(dp1257
g55
I5
sg56
I0
sg57
I8
ssI2
(dp1258
g55
I8
sg56
I0
sg57
I4
ssI3
(dp1259
g55
I6
sg56
I0
sg57
I0
ssI4
(dp1260
g55
I6
sg56
I0
sg57
I9
ssI5
(dp1261
g55
I6
sg56
I0
sg57
I10
ssI6
(dp1262
g55
I5
sg56
I0
sg57
I6
ssI7
(dp1263
g55
I7
sg56
I0
sg57
I4
ssI8
(dp1264
g55
I5
sg56
I0
sg57
I7
ssI9
(dp1265
g55
I6
sg56
I0
sg57
I5
ssI10
(dp1266
g55
I5
sg56
I0
sg57
I9
ssI11
(dp1267
g55
I7
sg56
I0
sg57
I8
ssI12
(dp1268
g55
I6
sg56
I0
sg57
I1
ssI13
(dp1269
g55
I5
sg56
I0
sg57
I6
ssI14
(dp1270
g55
I7
sg56
I0
sg57
I1
ssI15
(dp1271
g55
I5
sg56
I0
sg57
I1
ssI16
(dp1272
g55
I7
sg56
I0
sg57
I4
ssI17
(dp1273
g55
I7
sg56
I0
sg57
I3
ssI18
(dp1274
g55
I7
sg56
I0
sg57
I0
ssI19
(dp1275
g55
I6
sg56
I0
sg57
I7
ssI20
(dp1276
g55
I8
sg56
I0
sg57
I7
ssI21
(dp1277
g55
I5
sg56
I0
sg57
I10
ssI22
(dp1278
g55
I8
sg56
I0
sg57
I1
ssI23
(dp1279
g55
I7
sg56
I0
sg57
I2
ssI24
(dp1280
g55
I7
sg56
I0
sg57
I10
ssI25
(dp1281
g55
I7
sg56
I0
sg57
I8
ssI26
(dp1282
g55
I5
sg56
I0
sg57
I1
ssI27
(dp1283
g55
I5
sg56
I0
sg57
I0
ssI28
(dp1284
g55
I5
sg56
I0
sg57
I5
ssI29
(dp1285
g55
I6
sg56
I0
sg57
I4
ssI30
(dp1286
g55
I7
sg56
I0
sg57
I2
ssI32
(dp1287
g55
I8
sg56
I0
sg57
I8
ssI33
(dp1288
g55
I5
sg56
I0
sg57
I1
ssI34
(dp1289
g55
I8
sg56
I0
sg57
I5
ssI35
(dp1290
g55
I6
sg56
I0
sg57
I3
ssI36
(dp1291
g55
I5
sg56
I0
sg57
I5
ssI37
(dp1292
g55
I6
sg56
I0
sg57
I10
ssI38
(dp1293
g55
I7
sg56
I0
sg57
I9
ssI39
(dp1294
g55
I6
sg56
I0
sg57
I9
ssI40
(dp1295
g55
I7
sg56
I0
sg57
I7
sssI32
(dp1296
I1
(dp1297
g55
I6
sg56
I0
sg57
I7
ssI2
(dp1298
g55
I5
sg56
I0
sg57
I7
ssI3
(dp1299
g55
I5
sg56
I0
sg57
I8
ssI4
(dp1300
g55
I7
sg56
I0
sg57
I6
ssI5
(dp1301
g55
I8
sg56
I0
sg57
I0
ssI6
(dp1302
g55
I8
sg56
I0
sg57
I10
ssI7
(dp1303
g55
I7
sg56
I0
sg57
I1
ssI8
(dp1304
g55
I6
sg56
I0
sg57
I7
ssI9
(dp1305
g55
I8
sg56
I0
sg57
I7
ssI10
(dp1306
g55
I7
sg56
I0
sg57
I5
ssI11
(dp1307
g55
I8
sg56
I0
sg57
I5
ssI12
(dp1308
g55
I7
sg56
I0
sg57
I2
ssI13
(dp1309
g55
I5
sg56
I0
sg57
I10
ssI14
(dp1310
g55
I5
sg56
I0
sg57
I4
ssI15
(dp1311
g55
I7
sg56
I0
sg57
I3
ssI16
(dp1312
g55
I8
sg56
I0
sg57
I9
ssI17
(dp1313
g55
I7
sg56
I0
sg57
I6
ssI18
(dp1314
g55
I7
sg56
I0
sg57
I2
ssI19
(dp1315
g55
I5
sg56
I0
sg57
I2
ssI20
(dp1316
g55
I7
sg56
I0
sg57
I4
ssI21
(dp1317
g55
I8
sg56
I0
sg57
I4
ssI22
(dp1318
g55
I6
sg56
I0
sg57
I9
ssI23
(dp1319
g55
I5
sg56
I0
sg57
I9
ssI24
(dp1320
g55
I6
sg56
I0
sg57
I2
ssI25
(dp1321
g55
I7
sg56
I0
sg57
I6
ssI26
(dp1322
g55
I7
sg56
I0
sg57
I7
ssI27
(dp1323
g55
I5
sg56
I0
sg57
I6
ssI28
(dp1324
g55
I6
sg56
I0
sg57
I7
ssI29
(dp1325
g55
I7
sg56
I0
sg57
I7
ssI30
(dp1326
g55
I7
sg56
I0
sg57
I6
ssI31
(dp1327
g55
I7
sg56
I0
sg57
I3
ssI33
(dp1328
g55
I5
sg56
I0
sg57
I8
ssI34
(dp1329
g55
I8
sg56
I0
sg57
I3
ssI35
(dp1330
g55
I6
sg56
I0
sg57
I6
ssI36
(dp1331
g55
I6
sg56
I0
sg57
I5
ssI37
(dp1332
g55
I5
sg56
I0
sg57
I4
ssI38
(dp1333
g55
I5
sg56
I0
sg57
I4
ssI39
(dp1334
g55
I5
sg56
I0
sg57
I7
ssI40
(dp1335
g55
I8
sg56
I0
sg57
I2
sssI33
(dp1336
I1
(dp1337
g55
I8
sg56
I0
sg57
I4
ssI2
(dp1338
g55
I6
sg56
I0
sg57
I2
ssI3
(dp1339
g55
I5
sg56
I0
sg57
I8
ssI4
(dp1340
g55
I7
sg56
I0
sg57
I5
ssI5
(dp1341
g55
I7
sg56
I0
sg57
I1
ssI6
(dp1342
g55
I8
sg56
I0
sg57
I8
ssI7
(dp1343
g55
I6
sg56
I0
sg57
I9
ssI8
(dp1344
g55
I6
sg56
I0
sg57
I10
ssI9
(dp1345
g55
I5
sg56
I0
sg57
I3
ssI10
(dp1346
g55
I6
sg56
I0
sg57
I6
ssI11
(dp1347
g55
I8
sg56
I0
sg57
I5
ssI12
(dp1348
g55
I7
sg56
I0
sg57
I6
ssI13
(dp1349
g55
I5
sg56
I0
sg57
I0
ssI14
(dp1350
g55
I8
sg56
I0
sg57
I0
ssI15
(dp1351
g55
I6
sg56
I0
sg57
I9
ssI16
(dp1352
g55
I8
sg56
I0
sg57
I6
ssI17
(dp1353
g55
I8
sg56
I0
sg57
I8
ssI18
(dp1354
g55
I5
sg56
I0
sg57
I7
ssI19
(dp1355
g55
I5
sg56
I0
sg57
I5
ssI20
(dp1356
g55
I5
sg56
I0
sg57
I2
ssI21
(dp1357
g55
I7
sg56
I0
sg57
I1
ssI22
(dp1358
g55
I6
sg56
I0
sg57
I6
ssI23
(dp1359
g55
I7
sg56
I0
sg57
I0
ssI24
(dp1360
g55
I8
sg56
I0
sg57
I7
ssI25
(dp1361
g55
I8
sg56
I0
sg57
I1
ssI26
(dp1362
g55
I6
sg56
I0
sg57
I10
ssI27
(dp1363
g55
I5
sg56
I0
sg57
I9
ssI28
(dp1364
g55
I8
sg56
I0
sg57
I2
ssI29
(dp1365
g55
I7
sg56
I0
sg57
I6
ssI30
(dp1366
g55
I6
sg56
I0
sg57
I0
ssI31
(dp1367
g55
I8
sg56
I0
sg57
I4
ssI32
(dp1368
g55
I8
sg56
I0
sg57
I3
ssI34
(dp1369
g55
I6
sg56
I0
sg57
I1
ssI35
(dp1370
g55
I7
sg56
I0
sg57
I9
ssI36
(dp1371
g55
I5
sg56
I0
sg57
I6
ssI37
(dp1372
g55
I6
sg56
I0
sg57
I4
ssI38
(dp1373
g55
I5
sg56
I0
sg57
I1
ssI39
(dp1374
g55
I7
sg56
I0
sg57
I6
ssI40
(dp1375
g55
I8
sg56
I0
sg57
I8
sssI34
(dp1376
I1
(dp1377
g55
I6
sg56
I0
sg57
I1
ssI2
(dp1378
g55
I5
sg56
I0
sg57
I2
ssI3
(dp1379
g55
I6
sg56
I0
sg57
I10
ssI4
(dp1380
g55
I6
sg56
I0
sg57
I10
ssI5
(dp1381
g55
I5
sg56
I0
sg57
I10
ssI6
(dp1382
g55
I8
sg56
I0
sg57
I1
ssI7
(dp1383
g55
I5
sg56
I0
sg57
I0
ssI8
(dp1384
g55
I5
sg56
I0
sg57
I1
ssI9
(dp1385
g55
I6
sg56
I0
sg57
I6
ssI10
(dp1386
g55
I5
sg56
I0
sg57
I6
ssI11
(dp1387
g55
I5
sg56
I0
sg57
I9
ssI12
(dp1388
g55
I5
sg56
I0
sg57
I6
ssI13
(dp1389
g55
I5
sg56
I0
sg57
I0
ssI14
(dp1390
g55
I8
sg56
I0
sg57
I4
ssI15
(dp1391
g55
I6
sg56
I0
sg57
I8
ssI16
(dp1392
g55
I5
sg56
I0
sg57
I6
ssI17
(dp1393
g55
I5
sg56
I0
sg57
I5
ssI18
(dp1394
g55
I6
sg56
I0
sg57
I8
ssI19
(dp1395
g55
I8
sg56
I0
sg57
I4
ssI20
(dp1396
g55
I7
sg56
I0
sg57
I8
ssI21
(dp1397
g55
I5
sg56
I0
sg57
I1
ssI22
(dp1398
g55
I8
sg56
I0
sg57
I10
ssI23
(dp1399
g55
I7
sg56
I0
sg57
I3
ssI24
(dp1400
g55
I6
sg56
I0
sg57
I8
ssI25
(dp1401
g55
I6
sg56
I0
sg57
I6
ssI26
(dp1402
g55
I7
sg56
I0
sg57
I6
ssI27
(dp1403
g55
I7
sg56
I0
sg57
I7
ssI28
(dp1404
g55
I6
sg56
I0
sg57
I7
ssI29
(dp1405
g55
I8
sg56
I0
sg57
I8
ssI30
(dp1406
g55
I6
sg56
I0
sg57
I0
ssI31
(dp1407
g55
I5
sg56
I0
sg57
I1
ssI32
(dp1408
g55
I6
sg56
I0
sg57
I9
ssI33
(dp1409
g55
I5
sg56
I0
sg57
I10
ssI35
(dp1410
g55
I8
sg56
I0
sg57
I0
ssI36
(dp1411
g55
I6
sg56
I0
sg57
I1
ssI37
(dp1412
g55
I8
sg56
I0
sg57
I3
ssI38
(dp1413
g55
I6
sg56
I0
sg57
I7
ssI39
(dp1414
g55
I8
sg56
I0
sg57
I9
ssI40
(dp1415
g55
I5
sg56
I0
sg57
I7
sssI35
(dp1416
I1
(dp1417
g55
I8
sg56
I0
sg57
I4
ssI2
(dp1418
g55
I6
sg56
I0
sg57
I1
ssI3
(dp1419
g55
I6
sg56
I0
sg57
I8
ssI4
(dp1420
g55
I6
sg56
I0
sg57
I7
ssI5
(dp1421
g55
I5
sg56
I0
sg57
I6
ssI6
(dp1422
g55
I8
sg56
I0
sg57
I2
ssI7
(dp1423
g55
I8
sg56
I0
sg57
I7
ssI8
(dp1424
g55
I5
sg56
I0
sg57
I8
ssI9
(dp1425
g55
I6
sg56
I0
sg57
I6
ssI10
(dp1426
g55
I7
sg56
I0
sg57
I4
ssI11
(dp1427
g55
I8
sg56
I0
sg57
I9
ssI12
(dp1428
g55
I8
sg56
I0
sg57
I7
ssI13
(dp1429
g55
I7
sg56
I0
sg57
I6
ssI14
(dp1430
g55
I7
sg56
I0
sg57
I4
ssI15
(dp1431
g55
I6
sg56
I0
sg57
I6
ssI16
(dp1432
g55
I8
sg56
I0
sg57
I7
ssI17
(dp1433
g55
I7
sg56
I0
sg57
I4
ssI18
(dp1434
g55
I7
sg56
I0
sg57
I2
ssI19
(dp1435
g55
I8
sg56
I0
sg57
I0
ssI20
(dp1436
g55
I7
sg56
I0
sg57
I8
ssI21
(dp1437
g55
I6
sg56
I0
sg57
I3
ssI22
(dp1438
g55
I7
sg56
I0
sg57
I10
ssI23
(dp1439
g55
I6
sg56
I0
sg57
I5
ssI24
(dp1440
g55
I6
sg56
I0
sg57
I10
ssI25
(dp1441
g55
I8
sg56
I0
sg57
I9
ssI26
(dp1442
g55
I5
sg56
I0
sg57
I7
ssI27
(dp1443
g55
I7
sg56
I0
sg57
I2
ssI28
(dp1444
g55
I7
sg56
I0
sg57
I9
ssI29
(dp1445
g55
I7
sg56
I0
sg57
I5
ssI30
(dp1446
g55
I6
sg56
I0
sg57
I4
ssI31
(dp1447
g55
I6
sg56
I0
sg57
I7
ssI32
(dp1448
g55
I5
sg56
I0
sg57
I7
ssI33
(dp1449
g55
I7
sg56
I0
sg57
I6
ssI34
(dp1450
g55
I8
sg56
I0
sg57
I10
ssI36
(dp1451
g55
I7
sg56
I0
sg57
I7
ssI37
(dp1452
g55
I7
sg56
I0
sg57
I3
ssI38
(dp1453
g55
I6
sg56
I0
sg57
I6
ssI39
(dp1454
g55
I7
sg56
I0
sg57
I6
ssI40
(dp1455
g55
I8
sg56
I0
sg57
I10
sssI36
(dp1456
I1
(dp1457
g55
I5
sg56
I0
sg57
I6
ssI2
(dp1458
g55
I8
sg56
I0
sg57
I2
ssI3
(dp1459
g55
I8
sg56
I0
sg57
I0
ssI4
(dp1460
g55
I6
sg56
I0
sg57
I8
ssI5
(dp1461
g55
I5
sg56
I0
sg57
I4
ssI6
(dp1462
g55
I7
sg56
I0
sg57
I10
ssI7
(dp1463
g55
I6
sg56
I0
sg57
I2
ssI8
(dp1464
g55
I8
sg56
I0
sg57
I5
ssI9
(dp1465
g55
I7
sg56
I0
sg57
I5
ssI10
(dp1466
g55
I5
sg56
I0
sg57
I4
ssI11
(dp1467
g55
I5
sg56
I0
sg57
I8
ssI12
(dp1468
g55
I6
sg56
I0
sg57
I3
ssI13
(dp1469
g55
I8
sg56
I0
sg57
I1
ssI14
(dp1470
g55
I5
sg56
I0
sg57
I5
ssI15
(dp1471
g55
I7
sg56
I0
sg57
I0
ssI16
(dp1472
g55
I7
sg56
I0
sg57
I5
ssI17
(dp1473
g55
I6
sg56
I0
sg57
I9
ssI18
(dp1474
g55
I6
sg56
I0
sg57
I6
ssI19
(dp1475
g55
I5
sg56
I0
sg57
I4
ssI20
(dp1476
g55
I6
sg56
I0
sg57
I5
ssI21
(dp1477
g55
I8
sg56
I0
sg57
I8
ssI22
(dp1478
g55
I7
sg56
I0
sg57
I6
ssI23
(dp1479
g55
I5
sg56
I0
sg57
I9
ssI24
(dp1480
g55
I8
sg56
I0
sg57
I9
ssI25
(dp1481
g55
I6
sg56
I0
sg57
I6
ssI26
(dp1482
g55
I8
sg56
I0
sg57
I9
ssI27
(dp1483
g55
I7
sg56
I0
sg57
I2
ssI28
(dp1484
g55
I8
sg56
I0
sg57
I7
ssI29
(dp1485
g55
I8
sg56
I0
sg57
I5
ssI30
(dp1486
g55
I7
sg56
I0
sg57
I2
ssI31
(dp1487
g55
I5
sg56
I0
sg57
I5
ssI32
(dp1488
g55
I6
sg56
I0
sg57
I0
ssI33
(dp1489
g55
I5
sg56
I0
sg57
I8
ssI34
(dp1490
g55
I8
sg56
I0
sg57
I8
ssI35
(dp1491
g55
I6
sg56
I0
sg57
I4
ssI37
(dp1492
g55
I5
sg56
I0
sg57
I0
ssI38
(dp1493
g55
I7
sg56
I0
sg57
I5
ssI39
(dp1494
g55
I6
sg56
I0
sg57
I5
ssI40
(dp1495
g55
I5
sg56
I0
sg57
I3
sssI37
(dp1496
I1
(dp1497
g55
I7
sg56
I0
sg57
I4
ssI2
(dp1498
g55
I8
sg56
I0
sg57
I9
ssI3
(dp1499
g55
I8
sg56
I0
sg57
I0
ssI4
(dp1500
g55
I6
sg56
I0
sg57
I5
ssI5
(dp1501
g55
I7
sg56
I0
sg57
I0
ssI6
(dp1502
g55
I8
sg56
I0
sg57
I10
ssI7
(dp1503
g55
I5
sg56
I0
sg57
I10
ssI8
(dp1504
g55
I7
sg56
I0
sg57
I2
ssI9
(dp1505
g55
I6
sg56
I0
sg57
I0
ssI10
(dp1506
g55
I8
sg56
I0
sg57
I7
ssI11
(dp1507
g55
I8
sg56
I0
sg57
I6
ssI12
(dp1508
g55
I6
sg56
I0
sg57
I4
ssI13
(dp1509
g55
I7
sg56
I0
sg57
I10
ssI14
(dp1510
g55
I8
sg56
I0
sg57
I8
ssI15
(dp1511
g55
I5
sg56
I0
sg57
I5
ssI16
(dp1512
g55
I5
sg56
I0
sg57
I4
ssI17
(dp1513
g55
I5
sg56
I0
sg57
I9
ssI18
(dp1514
g55
I8
sg56
I0
sg57
I4
ssI19
(dp1515
g55
I8
sg56
I0
sg57
I2
ssI20
(dp1516
g55
I6
sg56
I0
sg57
I6
ssI21
(dp1517
g55
I7
sg56
I0
sg57
I8
ssI22
(dp1518
g55
I5
sg56
I0
sg57
I4
ssI23
(dp1519
g55
I8
sg56
I0
sg57
I9
ssI24
(dp1520
g55
I8
sg56
I0
sg57
I4
ssI25
(dp1521
g55
I6
sg56
I0
sg57
I8
ssI26
(dp1522
g55
I7
sg56
I0
sg57
I6
ssI27
(dp1523
g55
I5
sg56
I0
sg57
I2
ssI28
(dp1524
g55
I5
sg56
I0
sg57
I3
ssI29
(dp1525
g55
I8
sg56
I0
sg57
I6
ssI30
(dp1526
g55
I8
sg56
I0
sg57
I5
ssI31
(dp1527
g55
I5
sg56
I0
sg57
I6
ssI32
(dp1528
g55
I7
sg56
I0
sg57
I9
ssI33
(dp1529
g55
I7
sg56
I0
sg57
I6
ssI34
(dp1530
g55
I7
sg56
I0
sg57
I5
ssI35
(dp1531
g55
I6
sg56
I0
sg57
I3
ssI36
(dp1532
g55
I7
sg56
I0
sg57
I1
ssI38
(dp1533
g55
I8
sg56
I0
sg57
I6
ssI39
(dp1534
g55
I6
sg56
I0
sg57
I1
ssI40
(dp1535
g55
I5
sg56
I0
sg57
I4
sssI38
(dp1536
I1
(dp1537
g55
I6
sg56
I0
sg57
I0
ssI2
(dp1538
g55
I7
sg56
I0
sg57
I6
ssI3
(dp1539
g55
I5
sg56
I0
sg57
I9
ssI4
(dp1540
g55
I7
sg56
I0
sg57
I8
ssI5
(dp1541
g55
I5
sg56
I0
sg57
I1
ssI6
(dp1542
g55
I8
sg56
I0
sg57
I6
ssI7
(dp1543
g55
I5
sg56
I0
sg57
I7
ssI8
(dp1544
g55
I7
sg56
I0
sg57
I4
ssI9
(dp1545
g55
I5
sg56
I0
sg57
I10
ssI10
(dp1546
g55
I5
sg56
I0
sg57
I4
ssI11
(dp1547
g55
I6
sg56
I0
sg57
I5
ssI12
(dp1548
g55
I8
sg56
I0
sg57
I8
ssI13
(dp1549
g55
I8
sg56
I0
sg57
I3
ssI14
(dp1550
g55
I7
sg56
I0
sg57
I2
ssI15
(dp1551
g55
I5
sg56
I0
sg57
I4
ssI16
(dp1552
g55
I7
sg56
I0
sg57
I8
ssI17
(dp1553
g55
I8
sg56
I0
sg57
I9
ssI18
(dp1554
g55
I5
sg56
I0
sg57
I0
ssI19
(dp1555
g55
I8
sg56
I0
sg57
I6
ssI20
(dp1556
g55
I8
sg56
I0
sg57
I3
ssI21
(dp1557
g55
I8
sg56
I0
sg57
I2
ssI22
(dp1558
g55
I8
sg56
I0
sg57
I4
ssI23
(dp1559
g55
I5
sg56
I0
sg57
I4
ssI24
(dp1560
g55
I8
sg56
I0
sg57
I7
ssI25
(dp1561
g55
I6
sg56
I0
sg57
I7
ssI26
(dp1562
g55
I8
sg56
I0
sg57
I1
ssI27
(dp1563
g55
I7
sg56
I0
sg57
I3
ssI28
(dp1564
g55
I7
sg56
I0
sg57
I2
ssI29
(dp1565
g55
I5
sg56
I0
sg57
I8
ssI30
(dp1566
g55
I7
sg56
I0
sg57
I8
ssI31
(dp1567
g55
I8
sg56
I0
sg57
I6
ssI32
(dp1568
g55
I5
sg56
I0
sg57
I3
ssI33
(dp1569
g55
I6
sg56
I0
sg57
I1
ssI34
(dp1570
g55
I5
sg56
I0
sg57
I5
ssI35
(dp1571
g55
I6
sg56
I0
sg57
I9
ssI36
(dp1572
g55
I6
sg56
I0
sg57
I10
ssI37
(dp1573
g55
I7
sg56
I0
sg57
I8
ssI39
(dp1574
g55
I7
sg56
I0
sg57
I10
ssI40
(dp1575
g55
I7
sg56
I0
sg57
I7
sssI39
(dp1576
I1
(dp1577
g55
I7
sg56
I0
sg57
I3
ssI2
(dp1578
g55
I6
sg56
I0
sg57
I3
ssI3
(dp1579
g55
I8
sg56
I0
sg57
I10
ssI4
(dp1580
g55
I6
sg56
I0
sg57
I3
ssI5
(dp1581
g55
I5
sg56
I0
sg57
I10
ssI6
(dp1582
g55
I7
sg56
I0
sg57
I2
ssI7
(dp1583
g55
I5
sg56
I0
sg57
I0
ssI8
(dp1584
g55
I6
sg56
I0
sg57
I1
ssI9
(dp1585
g55
I8
sg56
I0
sg57
I0
ssI10
(dp1586
g55
I6
sg56
I0
sg57
I1
ssI11
(dp1587
g55
I5
sg56
I0
sg57
I10
ssI12
(dp1588
g55
I6
sg56
I0
sg57
I7
ssI13
(dp1589
g55
I6
sg56
I0
sg57
I2
ssI14
(dp1590
g55
I7
sg56
I0
sg57
I4
ssI15
(dp1591
g55
I7
sg56
I0
sg57
I9
ssI16
(dp1592
g55
I7
sg56
I0
sg57
I3
ssI17
(dp1593
g55
I7
sg56
I0
sg57
I3
ssI18
(dp1594
g55
I5
sg56
I0
sg57
I10
ssI19
(dp1595
g55
I7
sg56
I0
sg57
I7
ssI20
(dp1596
g55
I5
sg56
I0
sg57
I3
ssI21
(dp1597
g55
I6
sg56
I0
sg57
I7
ssI22
(dp1598
g55
I6
sg56
I0
sg57
I6
ssI23
(dp1599
g55
I6
sg56
I0
sg57
I6
ssI24
(dp1600
g55
I8
sg56
I0
sg57
I3
ssI25
(dp1601
g55
I5
sg56
I0
sg57
I7
ssI26
(dp1602
g55
I8
sg56
I0
sg57
I4
ssI27
(dp1603
g55
I7
sg56
I0
sg57
I3
ssI28
(dp1604
g55
I6
sg56
I0
sg57
I8
ssI29
(dp1605
g55
I6
sg56
I0
sg57
I6
ssI30
(dp1606
g55
I8
sg56
I0
sg57
I8
ssI31
(dp1607
g55
I5
sg56
I0
sg57
I10
ssI32
(dp1608
g55
I8
sg56
I0
sg57
I5
ssI33
(dp1609
g55
I6
sg56
I0
sg57
I7
ssI34
(dp1610
g55
I5
sg56
I0
sg57
I0
ssI35
(dp1611
g55
I7
sg56
I0
sg57
I0
ssI36
(dp1612
g55
I5
sg56
I0
sg57
I1
ssI37
(dp1613
g55
I8
sg56
I0
sg57
I8
ssI38
(dp1614
g55
I5
sg56
I0
sg57
I8
ssI40
(dp1615
g55
I6
sg56
I0
sg57
I9
sssI40
(dp1616
I1
(dp1617
g55
I5
sg56
I0
sg57
I9
ssI2
(dp1618
g55
I7
sg56
I0
sg57
I9
ssI3
(dp1619
g55
I8
sg56
I0
sg57
I6
ssI4
(dp1620
g55
I5
sg56
I0
sg57
I10
ssI5
(dp1621
g55
I8
sg56
I0
sg57
I7
ssI6
(dp1622
g55
I8
sg56
I0
sg57
I2
ssI7
(dp1623
g55
I6
sg56
I0
sg57
I4
ssI8
(dp1624
g55
I7
sg56
I0
sg57
I6
ssI9
(dp1625
g55
I6
sg56
I0
sg57
I1
ssI10
(dp1626
g55
I5
sg56
I0
sg57
I6
ssI11
(dp1627
g55
I5
sg56
I0
sg57
I2
ssI12
(dp1628
g55
I7
sg56
I0
sg57
I10
ssI13
(dp1629
g55
I7
sg56
I0
sg57
I5
ssI14
(dp1630
g55
I6
sg56
I0
sg57
I4
ssI15
(dp1631
g55
I6
sg56
I0
sg57
I2
ssI16
(dp1632
g55
I7
sg56
I0
sg57
I2
ssI17
(dp1633
g55
I7
sg56
I0
sg57
I1
ssI18
(dp1634
g55
I6
sg56
I0
sg57
I10
ssI19
(dp1635
g55
I7
sg56
I0
sg57
I1
ssI20
(dp1636
g55
I7
sg56
I0
sg57
I10
ssI21
(dp1637
g55
I7
sg56
I0
sg57
I4
ssI22
(dp1638
g55
I5
sg56
I0
sg57
I9
ssI23
(dp1639
g55
I5
sg56
I0
sg57
I9
ssI24
(dp1640
g55
I5
sg56
I0
sg57
I0
ssI25
(dp1641
g55
I7
sg56
I0
sg57
I7
ssI26
(dp1642
g55
I6
sg56
I0
sg57
I4
ssI27
(dp1643
g55
I8
sg56
I0
sg57
I6
ssI28
(dp1644
g55
I8
sg56
I0
sg57
I4
ssI29
(dp1645
g55
I7
sg56
I0
sg57
I6
ssI30
(dp1646
g55
I6
sg56
I0
sg57
I9
ssI31
(dp1647
g55
I6
sg56
I0
sg57
I9
ssI32
(dp1648
g55
I6
sg56
I0
sg57
I7
ssI33
(dp1649
g55
I7
sg56
I0
sg57
I10
ssI34
(dp1650
g55
I8
sg56
I0
sg57
I4
ssI35
(dp1651
g55
I5
sg56
I0
sg57
I4
ssI36
(dp1652
g55
I8
sg56
I0
sg57
I4
ssI37
(dp1653
g55
I6
sg56
I0
sg57
I8
ssI38
(dp1654
g55
I8
sg56
I0
sg57
I9
ssI39
(dp1655
g55
I5
sg56
I0
sg57
I8
ssssS'edge'
p1656
g52
sS'pred'
p1657
(dp1658
I1
(dp1659
I2
g97
sI3
g137
sI4
g177
sI5
g217
sI6
g257
sI7
g297
sI8
g337
sI9
g377
sI10
g417
sI11
g457
sI12
g497
sI13
g537
sI14
g577
sI15
g617
sI16
g657
sI17
g697
sI18
g737
sI19
g777
sI20
g817
sI21
g857
sI22
g897
sI23
g937
sI24
g977
sI25
g1017
sI26
g1057
sI27
g1097
sI28
g1137
sI29
g1177
sI30
g1217
sI31
g1257
sI32
g1297
sI33
g1337
sI34
g1377
sI35
g1417
sI36
g1457
sI37
g1497
sI38
g1537
sI39
g1577
sI40
g1617
ssI2
(dp1660
I1
g54
sI3
g138
sI4
g178
sI5
g218
sI6
g258
sI7
g298
sI8
g338
sI9
g378
sI10
g418
sI11
g458
sI12
g498
sI13
g538
sI14
g578
sI15
g618
sI16
g658
sI17
g698
sI18
g738
sI19
g778
sI20
g818
sI21
g858
sI22
g898
sI23
g938
sI24
g978
sI25
g1018
sI26
g1058
sI27
g1098
sI28
g1138
sI29
g1178
sI30
g1218
sI31
g1258
sI32
g1298
sI33
g1338
sI34
g1378
sI35
g1418
sI36
g1458
sI37
g1498
sI38
g1538
sI39
g1578
sI40
g1618
ssI3
(dp1661
I1
g58
sI2
g98
sI4
g179
sI5
g219
sI6
g259
sI7
g299
sI8
g339
sI9
g379
sI10
g419
sI11
g459
sI12
g499
sI13
g539
sI14
g579
sI15
g619
sI16
g659
sI17
g699
sI18
g739
sI19
g779
sI20
g819
sI21
g859
sI22
g899
sI23
g939
sI24
g979
sI25
g1019
sI26
g1059
sI27
g1099
sI28
g1139
sI29
g1179
sI30
g1219
sI31
g1259
sI32
g1299
sI33
g1339
sI34
g1379
sI35
g1419
sI36
g1459
sI37
g1499
sI38
g1539
sI39
g1579
sI40
g1619
ssI4
(dp1662
I1
g59
sI2
g99
sI3
g139
sI5
g220
sI6
g260
sI7
g300
sI8
g340
sI9
g380
sI10
g420
sI11
g460
sI12
g500
sI13
g540
sI14
g580
sI15
g620
sI16
g660
sI17
g700
sI18
g740
sI19
g780
sI20
g820
sI21
g860
sI22
g900
sI23
g940
sI24
g980
sI25
g1020
sI26
g1060
sI27
g1100
sI28
g1140
sI29
g1180
sI30
g1220
sI31
g1260
sI32
g1300
sI33
g1340
sI34
g1380
sI35
g1420
sI36
g1460
sI37
g1500
sI38
g1540
sI39
g1580
sI40
g1620
ssI5
(dp1663
I1
g60
sI2
g100
sI3
g140
sI4
g180
sI6
g261
sI7
g301
sI8
g341
sI9
g381
sI10
g421
sI11
g461
sI12
g501
sI13
g541
sI14
g581
sI15
g621
sI16
g661
sI17
g701
sI18
g741
sI19
g781
sI20
g821
sI21
g861
sI22
g901
sI23
g941
sI24
g981
sI25
g1021
sI26
g1061
sI27
g1101
sI28
g1141
sI29
g1181
sI30
g1221
sI31
g1261
sI32
g1301
sI33
g1341
sI34
g1381
sI35
g1421
sI36
g1461
sI37
g1501
sI38
g1541
sI39
g1581
sI40
g1621
ssI6
(dp1664
I1
g61
sI2
g101
sI3
g141
sI4
g181
sI5
g221
sI7
g302
sI8
g342
sI9
g382
sI10
g422
sI11
g462
sI12
g502
sI13
g542
sI14
g582
sI15
g622
sI16
g662
sI17
g702
sI18
g742
sI19
g782
sI20
g822
sI21
g862
sI22
g902
sI23
g942
sI24
g982
sI25
g1022
sI26
g1062
sI27
g1102
sI28
g1142
sI29
g1182
sI30
g1222
sI31
g1262
sI32
g1302
sI33
g1342
sI34
g1382
sI35
g1422
sI36
g1462
sI37
g1502
sI38
g1542
sI39
g1582
sI40
g1622
ssI7
(dp1665
I1
g62
sI2
g102
sI3
g142
sI4
g182
sI5
g222
sI6
g262
sI8
g343
sI9
g383
sI10
g423
sI11
g463
sI12
g503
sI13
g543
sI14
g583
sI15
g623
sI16
g663
sI17
g703
sI18
g743
sI19
g783
sI20
g823
sI21
g863
sI22
g903
sI23
g943
sI24
g983
sI25
g1023
sI26
g1063
sI27
g1103
sI28
g1143
sI29
g1183
sI30
g1223
sI31
g1263
sI32
g1303
sI33
g1343
sI34
g1383
sI35
g1423
sI36
g1463
sI37
g1503
sI38
g1543
sI39
g1583
sI40
g1623
ssI8
(dp1666
I1
g63
sI2
g103
sI3
g143
sI4
g183
sI5
g223
sI6
g263
sI7
g303
sI9
g384
sI10
g424
sI11
g464
sI12
g504
sI13
g544
sI14
g584
sI15
g624
sI16
g664
sI17
g704
sI18
g744
sI19
g784
sI20
g824
sI21
g864
sI22
g904
sI23
g944
sI24
g984
sI25
g1024
sI26
g1064
sI27
g1104
sI28
g1144
sI29
g1184
sI30
g1224
sI31
g1264
sI32
g1304
sI33
g1344
sI34
g1384
sI35
g1424
sI36
g1464
sI37
g1504
sI38
g1544
sI39
g1584
sI40
g1624
ssI9
(dp1667
I1
g64
sI2
g104
sI3
g144
sI4
g184
sI5
g224
sI6
g264
sI7
g304
sI8
g344
sI10
g425
sI11
g465
sI12
g505
sI13
g545
sI14
g585
sI15
g625
sI16
g665
sI17
g705
sI18
g745
sI19
g785
sI20
g825
sI21
g865
sI22
g905
sI23
g945
sI24
g985
sI25
g1025
sI26
g1065
sI27
g1105
sI28
g1145
sI29
g1185
sI30
g1225
sI31
g1265
sI32
g1305
sI33
g1345
sI34
g1385
sI35
g1425
sI36
g1465
sI37
g1505
sI38
g1545
sI39
g1585
sI40
g1625
ssI10
(dp1668
I1
g65
sI2
g105
sI3
g145
sI4
g185
sI5
g225
sI6
g265
sI7
g305
sI8
g345
sI9
g385
sI11
g466
sI12
g506
sI13
g546
sI14
g586
sI15
g626
sI16
g666
sI17
g706
sI18
g746
sI19
g786
sI20
g826
sI21
g866
sI22
g906
sI23
g946
sI24
g986
sI25
g1026
sI26
g1066
sI27
g1106
sI28
g1146
sI29
g1186
sI30
g1226
sI31
g1266
sI32
g1306
sI33
g1346
sI34
g1386
sI35
g1426
sI36
g1466
sI37
g1506
sI38
g1546
sI39
g1586
sI40
g1626
ssI11
(dp1669
I1
g66
sI2
g106
sI3
g146
sI4
g186
sI5
g226
sI6
g266
sI7
g306
sI8
g346
sI9
g386
sI10
g426
sI12
g507
sI13
g547
sI14
g587
sI15
g627
sI16
g667
sI17
g707
sI18
g747
sI19
g787
sI20
g827
sI21
g867
sI22
g907
sI23
g947
sI24
g987
sI25
g1027
sI26
g1067
sI27
g1107
sI28
g1147
sI29
g1187
sI30
g1227
sI31
g1267
sI32
g1307
sI33
g1347
sI34
g1387
sI35
g1427
sI36
g1467
sI37
g1507
sI38
g1547
sI39
g1587
sI40
g1627
ssI12
(dp1670
I1
g67
sI2
g107
sI3
g147
sI4
g187
sI5
g227
sI6
g267
sI7
g307
sI8
g347
sI9
g387
sI10
g427
sI11
g467
sI13
g548
sI14
g588
sI15
g628
sI16
g668
sI17
g708
sI18
g748
sI19
g788
sI20
g828
sI21
g868
sI22
g908
sI23
g948
sI24
g988
sI25
g1028
sI26
g1068
sI27
g1108
sI28
g1148
sI29
g1188
sI30
g1228
sI31
g1268
sI32
g1308
sI33
g1348
sI34
g1388
sI35
g1428
sI36
g1468
sI37
g1508
sI38
g1548
sI39
g1588
sI40
g1628
ssI13
(dp1671
I1
g68
sI2
g108
sI3
g148
sI4
g188
sI5
g228
sI6
g268
sI7
g308
sI8
g348
sI9
g388
sI10
g428
sI11
g468
sI12
g508
sI14
g589
sI15
g629
sI16
g669
sI17
g709
sI18
g749
sI19
g789
sI20
g829
sI21
g869
sI22
g909
sI23
g949
sI24
g989
sI25
g1029
sI26
g1069
sI27
g1109
sI28
g1149
sI29
g1189
sI30
g1229
sI31
g1269
sI32
g1309
sI33
g1349
sI34
g1389
sI35
g1429
sI36
g1469
sI37
g1509
sI38
g1549
sI39
g1589
sI40
g1629
ssI14
(dp1672
I1
g69
sI2
g109
sI3
g149
sI4
g189
sI5
g229
sI6
g269
sI7
g309
sI8
g349
sI9
g389
sI10
g429
sI11
g469
sI12
g509
sI13
g549
sI15
g630
sI16
g670
sI17
g710
sI18
g750
sI19
g790
sI20
g830
sI21
g870
sI22
g910
sI23
g950
sI24
g990
sI25
g1030
sI26
g1070
sI27
g1110
sI28
g1150
sI29
g1190
sI30
g1230
sI31
g1270
sI32
g1310
sI33
g1350
sI34
g1390
sI35
g1430
sI36
g1470
sI37
g1510
sI38
g1550
sI39
g1590
sI40
g1630
ssI15
(dp1673
I1
g70
sI2
g110
sI3
g150
sI4
g190
sI5
g230
sI6
g270
sI7
g310
sI8
g350
sI9
g390
sI10
g430
sI11
g470
sI12
g510
sI13
g550
sI14
g590
sI16
g671
sI17
g711
sI18
g751
sI19
g791
sI20
g831
sI21
g871
sI22
g911
sI23
g951
sI24
g991
sI25
g1031
sI26
g1071
sI27
g1111
sI28
g1151
sI29
g1191
sI30
g1231
sI31
g1271
sI32
g1311
sI33
g1351
sI34
g1391
sI35
g1431
sI36
g1471
sI37
g1511
sI38
g1551
sI39
g1591
sI40
g1631
ssI16
(dp1674
I1
g71
sI2
g111
sI3
g151
sI4
g191
sI5
g231
sI6
g271
sI7
g311
sI8
g351
sI9
g391
sI10
g431
sI11
g471
sI12
g511
sI13
g551
sI14
g591
sI15
g631
sI17
g712
sI18
g752
sI19
g792
sI20
g832
sI21
g872
sI22
g912
sI23
g952
sI24
g992
sI25
g1032
sI26
g1072
sI27
g1112
sI28
g1152
sI29
g1192
sI30
g1232
sI31
g1272
sI32
g1312
sI33
g1352
sI34
g1392
sI35
g1432
sI36
g1472
sI37
g1512
sI38
g1552
sI39
g1592
sI40
g1632
ssI17
(dp1675
I1
g72
sI2
g112
sI3
g152
sI4
g192
sI5
g232
sI6
g272
sI7
g312
sI8
g352
sI9
g392
sI10
g432
sI11
g472
sI12
g512
sI13
g552
sI14
g592
sI15
g632
sI16
g672
sI18
g753
sI19
g793
sI20
g833
sI21
g873
sI22
g913
sI23
g953
sI24
g993
sI25
g1033
sI26
g1073
sI27
g1113
sI28
g1153
sI29
g1193
sI30
g1233
sI31
g1273
sI32
g1313
sI33
g1353
sI34
g1393
sI35
g1433
sI36
g1473
sI37
g1513
sI38
g1553
sI39
g1593
sI40
g1633
ssI18
(dp1676
I1
g73
sI2
g113
sI3
g153
sI4
g193
sI5
g233
sI6
g273
sI7
g313
sI8
g353
sI9
g393
sI10
g433
sI11
g473
sI12
g513
sI13
g553
sI14
g593
sI15
g633
sI16
g673
sI17
g713
sI19
g794
sI20
g834
sI21
g874
sI22
g914
sI23
g954
sI24
g994
sI25
g1034
sI26
g1074
sI27
g1114
sI28
g1154
sI29
g1194
sI30
g1234
sI31
g1274
sI32
g1314
sI33
g1354
sI34
g1394
sI35
g1434
sI36
g1474
sI37
g1514
sI38
g1554
sI39
g1594
sI40
g1634
ssI19
(dp1677
I1
g74
sI2
g114
sI3
g154
sI4
g194
sI5
g234
sI6
g274
sI7
g314
sI8
g354
sI9
g394
sI10
g434
sI11
g474
sI12
g514
sI13
g554
sI14
g594
sI15
g634
sI16
g674
sI17
g714
sI18
g754
sI20
g835
sI21
g875
sI22
g915
sI23
g955
sI24
g995
sI25
g1035
sI26
g1075
sI27
g1115
sI28
g1155
sI29
g1195
sI30
g1235
sI31
g1275
sI32
g1315
sI33
g1355
sI34
g1395
sI35
g1435
sI36
g1475
sI37
g1515
sI38
g1555
sI39
g1595
sI40
g1635
ssI20
(dp1678
I1
g75
sI2
g115
sI3
g155
sI4
g195
sI5
g235
sI6
g275
sI7
g315
sI8
g355
sI9
g395
sI10
g435
sI11
g475
sI12
g515
sI13
g555
sI14
g595
sI15
g635
sI16
g675
sI17
g715
sI18
g755
sI19
g795
sI21
g876
sI22
g916
sI23
g956
sI24
g996
sI25
g1036
sI26
g1076
sI27
g1116
sI28
g1156
sI29
g1196
sI30
g1236
sI31
g1276
sI32
g1316
sI33
g1356
sI34
g1396
sI35
g1436
sI36
g1476
sI37
g1516
sI38
g1556
sI39
g1596
sI40
g1636
ssI21
(dp1679
I1
g76
sI2
g116
sI3
g156
sI4
g196
sI5
g236
sI6
g276
sI7
g316
sI8
g356
sI9
g396
sI10
g436
sI11
g476
sI12
g516
sI13
g556
sI14
g596
sI15
g636
sI16
g676
sI17
g716
sI18
g756
sI19
g796
sI20
g836
sI22
g917
sI23
g957
sI24
g997
sI25
g1037
sI26
g1077
sI27
g1117
sI28
g1157
sI29
g1197
sI30
g1237
sI31
g1277
sI32
g1317
sI33
g1357
sI34
g1397
sI35
g1437
sI36
g1477
sI37
g1517
sI38
g1557
sI39
g1597
sI40
g1637
ssI22
(dp1680
I1
g77
sI2
g117
sI3
g157
sI4
g197
sI5
g237
sI6
g277
sI7
g317
sI8
g357
sI9
g397
sI10
g437
sI11
g477
sI12
g517
sI13
g557
sI14
g597
sI15
g637
sI16
g677
sI17
g717
sI18
g757
sI19
g797
sI20
g837
sI21
g877
sI23
g958
sI24
g998
sI25
g1038
sI26
g1078
sI27
g1118
sI28
g1158
sI29
g1198
sI30
g1238
sI31
g1278
sI32
g1318
sI33
g1358
sI34
g1398
sI35
g1438
sI36
g1478
sI37
g1518
sI38
g1558
sI39
g1598
sI40
g1638
ssI23
(dp1681
I1
g78
sI2
g118
sI3
g158
sI4
g198
sI5
g238
sI6
g278
sI7
g318
sI8
g358
sI9
g398
sI10
g438
sI11
g478
sI12
g518
sI13
g558
sI14
g598
sI15
g638
sI16
g678
sI17
g718
sI18
g758
sI19
g798
sI20
g838
sI21
g878
sI22
g918
sI24
g999
sI25
g1039
sI26
g1079
sI27
g1119
sI28
g1159
sI29
g1199
sI30
g1239
sI31
g1279
sI32
g1319
sI33
g1359
sI34
g1399
sI35
g1439
sI36
g1479
sI37
g1519
sI38
g1559
sI39
g1599
sI40
g1639
ssI24
(dp1682
I1
g79
sI2
g119
sI3
g159
sI4
g199
sI5
g239
sI6
g279
sI7
g319
sI8
g359
sI9
g399
sI10
g439
sI11
g479
sI12
g519
sI13
g559
sI14
g599
sI15
g639
sI16
g679
sI17
g719
sI18
g759
sI19
g799
sI20
g839
sI21
g879
sI22
g919
sI23
g959
sI25
g1040
sI26
g1080
sI27
g1120
sI28
g1160
sI29
g1200
sI30
g1240
sI31
g1280
sI32
g1320
sI33
g1360
sI34
g1400
sI35
g1440
sI36
g1480
sI37
g1520
sI38
g1560
sI39
g1600
sI40
g1640
ssI25
(dp1683
I1
g80
sI2
g120
sI3
g160
sI4
g200
sI5
g240
sI6
g280
sI7
g320
sI8
g360
sI9
g400
sI10
g440
sI11
g480
sI12
g520
sI13
g560
sI14
g600
sI15
g640
sI16
g680
sI17
g720
sI18
g760
sI19
g800
sI20
g840
sI21
g880
sI22
g920
sI23
g960
sI24
g1000
sI26
g1081
sI27
g1121
sI28
g1161
sI29
g1201
sI30
g1241
sI31
g1281
sI32
g1321
sI33
g1361
sI34
g1401
sI35
g1441
sI36
g1481
sI37
g1521
sI38
g1561
sI39
g1601
sI40
g1641
ssI26
(dp1684
I1
g81
sI2
g121
sI3
g161
sI4
g201
sI5
g241
sI6
g281
sI7
g321
sI8
g361
sI9
g401
sI10
g441
sI11
g481
sI12
g521
sI13
g561
sI14
g601
sI15
g641
sI16
g681
sI17
g721
sI18
g761
sI19
g801
sI20
g841
sI21
g881
sI22
g921
sI23
g961
sI24
g1001
sI25
g1041
sI27
g1122
sI28
g1162
sI29
g1202
sI30
g1242
sI31
g1282
sI32
g1322
sI33
g1362
sI34
g1402
sI35
g1442
sI36
g1482
sI37
g1522
sI38
g1562
sI39
g1602
sI40
g1642
ssI27
(dp1685
I1
g82
sI2
g122
sI3
g162
sI4
g202
sI5
g242
sI6
g282
sI7
g322
sI8
g362
sI9
g402
sI10
g442
sI11
g482
sI12
g522
sI13
g562
sI14
g602
sI15
g642
sI16
g682
sI17
g722
sI18
g762
sI19
g802
sI20
g842
sI21
g882
sI22
g922
sI23
g962
sI24
g1002
sI25
g1042
sI26
g1082
sI28
g1163
sI29
g1203
sI30
g1243
sI31
g1283
sI32
g1323
sI33
g1363
sI34
g1403
sI35
g1443
sI36
g1483
sI37
g1523
sI38
g1563
sI39
g1603
sI40
g1643
ssI28
(dp1686
I1
g83
sI2
g123
sI3
g163
sI4
g203
sI5
g243
sI6
g283
sI7
g323
sI8
g363
sI9
g403
sI10
g443
sI11
g483
sI12
g523
sI13
g563
sI14
g603
sI15
g643
sI16
g683
sI17
g723
sI18
g763
sI19
g803
sI20
g843
sI21
g883
sI22
g923
sI23
g963
sI24
g1003
sI25
g1043
sI26
g1083
sI27
g1123
sI29
g1204
sI30
g1244
sI31
g1284
sI32
g1324
sI33
g1364
sI34
g1404
sI35
g1444
sI36
g1484
sI37
g1524
sI38
g1564
sI39
g1604
sI40
g1644
ssI29
(dp1687
I1
g84
sI2
g124
sI3
g164
sI4
g204
sI5
g244
sI6
g284
sI7
g324
sI8
g364
sI9
g404
sI10
g444
sI11
g484
sI12
g524
sI13
g564
sI14
g604
sI15
g644
sI16
g684
sI17
g724
sI18
g764
sI19
g804
sI20
g844
sI21
g884
sI22
g924
sI23
g964
sI24
g1004
sI25
g1044
sI26
g1084
sI27
g1124
sI28
g1164
sI30
g1245
sI31
g1285
sI32
g1325
sI33
g1365
sI34
g1405
sI35
g1445
sI36
g1485
sI37
g1525
sI38
g1565
sI39
g1605
sI40
g1645
ssI30
(dp1688
I1
g85
sI2
g125
sI3
g165
sI4
g205
sI5
g245
sI6
g285
sI7
g325
sI8
g365
sI9
g405
sI10
g445
sI11
g485
sI12
g525
sI13
g565
sI14
g605
sI15
g645
sI16
g685
sI17
g725
sI18
g765
sI19
g805
sI20
g845
sI21
g885
sI22
g925
sI23
g965
sI24
g1005
sI25
g1045
sI26
g1085
sI27
g1125
sI28
g1165
sI29
g1205
sI31
g1286
sI32
g1326
sI33
g1366
sI34
g1406
sI35
g1446
sI36
g1486
sI37
g1526
sI38
g1566
sI39
g1606
sI40
g1646
ssI31
(dp1689
I1
g86
sI2
g126
sI3
g166
sI4
g206
sI5
g246
sI6
g286
sI7
g326
sI8
g366
sI9
g406
sI10
g446
sI11
g486
sI12
g526
sI13
g566
sI14
g606
sI15
g646
sI16
g686
sI17
g726
sI18
g766
sI19
g806
sI20
g846
sI21
g886
sI22
g926
sI23
g966
sI24
g1006
sI25
g1046
sI26
g1086
sI27
g1126
sI28
g1166
sI29
g1206
sI30
g1246
sI32
g1327
sI33
g1367
sI34
g1407
sI35
g1447
sI36
g1487
sI37
g1527
sI38
g1567
sI39
g1607
sI40
g1647
ssI32
(dp1690
I1
g87
sI2
g127
sI3
g167
sI4
g207
sI5
g247
sI6
g287
sI7
g327
sI8
g367
sI9
g407
sI10
g447
sI11
g487
sI12
g527
sI13
g567
sI14
g607
sI15
g647
sI16
g687
sI17
g727
sI18
g767
sI19
g807
sI20
g847
sI21
g887
sI22
g927
sI23
g967
sI24
g1007
sI25
g1047
sI26
g1087
sI27
g1127
sI28
g1167
sI29
g1207
sI30
g1247
sI31
g1287
sI33
g1368
sI34
g1408
sI35
g1448
sI36
g1488
sI37
g1528
sI38
g1568
sI39
g1608
sI40
g1648
ssI33
(dp1691
I1
g88
sI2
g128
sI3
g168
sI4
g208
sI5
g248
sI6
g288
sI7
g328
sI8
g368
sI9
g408
sI10
g448
sI11
g488
sI12
g528
sI13
g568
sI14
g608
sI15
g648
sI16
g688
sI17
g728
sI18
g768
sI19
g808
sI20
g848
sI21
g888
sI22
g928
sI23
g968
sI24
g1008
sI25
g1048
sI26
g1088
sI27
g1128
sI28
g1168
sI29
g1208
sI30
g1248
sI31
g1288
sI32
g1328
sI34
g1409
sI35
g1449
sI36
g1489
sI37
g1529
sI38
g1569
sI39
g1609
sI40
g1649
ssI34
(dp1692
I1
g89
sI2
g129
sI3
g169
sI4
g209
sI5
g249
sI6
g289
sI7
g329
sI8
g369
sI9
g409
sI10
g449
sI11
g489
sI12
g529
sI13
g569
sI14
g609
sI15
g649
sI16
g689
sI17
g729
sI18
g769
sI19
g809
sI20
g849
sI21
g889
sI22
g929
sI23
g969
sI24
g1009
sI25
g1049
sI26
g1089
sI27
g1129
sI28
g1169
sI29
g1209
sI30
g1249
sI31
g1289
sI32
g1329
sI33
g1369
sI35
g1450
sI36
g1490
sI37
g1530
sI38
g1570
sI39
g1610
sI40
g1650
ssI35
(dp1693
I1
g90
sI2
g130
sI3
g170
sI4
g210
sI5
g250
sI6
g290
sI7
g330
sI8
g370
sI9
g410
sI10
g450
sI11
g490
sI12
g530
sI13
g570
sI14
g610
sI15
g650
sI16
g690
sI17
g730
sI18
g770
sI19
g810
sI20
g850
sI21
g890
sI22
g930
sI23
g970
sI24
g1010
sI25
g1050
sI26
g1090
sI27
g1130
sI28
g1170
sI29
g1210
sI30
g1250
sI31
g1290
sI32
g1330
sI33
g1370
sI34
g1410
sI36
g1491
sI37
g1531
sI38
g1571
sI39
g1611
sI40
g1651
ssI36
(dp1694
I1
g91
sI2
g131
sI3
g171
sI4
g211
sI5
g251
sI6
g291
sI7
g331
sI8
g371
sI9
g411
sI10
g451
sI11
g491
sI12
g531
sI13
g571
sI14
g611
sI15
g651
sI16
g691
sI17
g731
sI18
g771
sI19
g811
sI20
g851
sI21
g891
sI22
g931
sI23
g971
sI24
g1011
sI25
g1051
sI26
g1091
sI27
g1131
sI28
g1171
sI29
g1211
sI30
g1251
sI31
g1291
sI32
g1331
sI33
g1371
sI34
g1411
sI35
g1451
sI37
g1532
sI38
g1572
sI39
g1612
sI40
g1652
ssI37
(dp1695
I1
g92
sI2
g132
sI3
g172
sI4
g212
sI5
g252
sI6
g292
sI7
g332
sI8
g372
sI9
g412
sI10
g452
sI11
g492
sI12
g532
sI13
g572
sI14
g612
sI15
g652
sI16
g692
sI17
g732
sI18
g772
sI19
g812
sI20
g852
sI21
g892
sI22
g932
sI23
g972
sI24
g1012
sI25
g1052
sI26
g1092
sI27
g1132
sI28
g1172
sI29
g1212
sI30
g1252
sI31
g1292
sI32
g1332
sI33
g1372
sI34
g1412
sI35
g1452
sI36
g1492
sI38
g1573
sI39
g1613
sI40
g1653
ssI38
(dp1696
I1
g93
sI2
g133
sI3
g173
sI4
g213
sI5
g253
sI6
g293
sI7
g333
sI8
g373
sI9
g413
sI10
g453
sI11
g493
sI12
g533
sI13
g573
sI14
g613
sI15
g653
sI16
g693
sI17
g733
sI18
g773
sI19
g813
sI20
g853
sI21
g893
sI22
g933
sI23
g973
sI24
g1013
sI25
g1053
sI26
g1093
sI27
g1133
sI28
g1173
sI29
g1213
sI30
g1253
sI31
g1293
sI32
g1333
sI33
g1373
sI34
g1413
sI35
g1453
sI36
g1493
sI37
g1533
sI39
g1614
sI40
g1654
ssI39
(dp1697
I1
g94
sI2
g134
sI3
g174
sI4
g214
sI5
g254
sI6
g294
sI7
g334
sI8
g374
sI9
g414
sI10
g454
sI11
g494
sI12
g534
sI13
g574
sI14
g614
sI15
g654
sI16
g694
sI17
g734
sI18
g774
sI19
g814
sI20
g854
sI21
g894
sI22
g934
sI23
g974
sI24
g1014
sI25
g1054
sI26
g1094
sI27
g1134
sI28
g1174
sI29
g1214
sI30
g1254
sI31
g1294
sI32
g1334
sI33
g1374
sI34
g1414
sI35
g1454
sI36
g1494
sI37
g1534
sI38
g1574
sI40
g1655
ssI40
(dp1698
I1
g95
sI2
g135
sI3
g175
sI4
g215
sI5
g255
sI6
g295
sI7
g335
sI8
g375
sI9
g415
sI10
g455
sI11
g495
sI12
g535
sI13
g575
sI14
g615
sI15
g655
sI16
g695
sI17
g735
sI18
g775
sI19
g815
sI20
g855
sI21
g895
sI22
g935
sI23
g975
sI24
g1015
sI25
g1055
sI26
g1095
sI27
g1135
sI28
g1175
sI29
g1215
sI30
g1255
sI31
g1295
sI32
g1335
sI33
g1375
sI34
g1415
sI35
g1455
sI36
g1495
sI37
g1535
sI38
g1575
sI39
g1615
sssS'adj'
p1699
g52
sb.