ccopy_reg
_reconstructor
p1
(cnetworkx.classes.digraph
DiGraph
p2
c__builtin__
object
p3
NtRp4
(dp5
S'node'
p6
(dp7
I1
(dp8
S'demand'
p9
I5
ssI2
(dp10
g9
I3
ssI3
(dp11
g9
I10
ssI4
(dp12
g9
I4
ssI5
(dp13
g9
I5
ssI6
(dp14
g9
I6
ssI7
(dp15
g9
I10
ssI8
(dp16
g9
I5
ssI9
(dp17
g9
I5
ssI10
(dp18
g9
I7
ssI11
(dp19
g9
I2
ssI12
(dp20
g9
I4
ssI13
(dp21
g9
I7
ssI14
(dp22
g9
I2
ssI15
(dp23
g9
I8
ssI16
(dp24
g9
I9
ssI17
(dp25
g9
I9
ssI18
(dp26
g9
I3
ssI19
(dp27
g9
I8
ssI20
(dp28
g9
I3
ssI21
(dp29
g9
I4
ssI22
(dp30
g9
I10
ssI23
(dp31
g9
I5
ssI24
(dp32
g9
I2
ssI25
(dp33
g9
I3
ssI26
(dp34
g9
I0
ssI27
(dp35
g9
I0
ssI28
(dp36
g9
I0
ssI29
(dp37
g9
I0
ssI30
(dp38
g9
I0
ssI31
(dp39
g9
I0
ssI32
(dp40
g9
I0
ssI33
(dp41
g9
I0
ssI34
(dp42
g9
I0
ssI35
(dp43
g9
I0
ssI36
(dp44
g9
I0
ssI37
(dp45
g9
I0
ssI38
(dp46
g9
I0
ssI39
(dp47
g9
I0
ssI40
(dp48
g9
I0
ssI41
(dp49
g9
I0
ssI42
(dp50
g9
I0
ssI43
(dp51
g9
I0
ssI44
(dp52
g9
I0
ssI45
(dp53
g9
I0
ssI46
(dp54
g9
I0
ssI47
(dp55
g9
I0
ssI48
(dp56
g9
I0
ssI49
(dp57
g9
I0
ssI50
(dp58
g9
I-139
sssS'graph'
p59
(dp60
sS'succ'
p61
(dp62
I1
(dp63
I2
(dp64
S'capacity'
p65
I5
sS'fluxo'
p66
I0
sS'weight'
p67
I3
ssI35
(dp68
g65
I6
sg66
I0
sg67
I9
ssI4
(dp69
g65
I7
sg66
I0
sg67
I2
ssI5
(dp70
g65
I7
sg66
I0
sg67
I10
ssI7
(dp71
g65
I8
sg66
I0
sg67
I6
ssI40
(dp72
g65
I5
sg66
I0
sg67
I8
ssI41
(dp73
g65
I7
sg66
I0
sg67
I4
ssI10
(dp74
g65
I8
sg66
I0
sg67
I7
ssI12
(dp75
g65
I7
sg66
I0
sg67
I10
ssI14
(dp76
g65
I6
sg66
I0
sg67
I6
ssI47
(dp77
g65
I5
sg66
I0
sg67
I2
ssI49
(dp78
g65
I6
sg66
I0
sg67
I5
ssI18
(dp79
g65
I5
sg66
I0
sg67
I8
ssI19
(dp80
g65
I7
sg66
I0
sg67
I2
ssI20
(dp81
g65
I7
sg66
I0
sg67
I10
ssI22
(dp82
g65
I5
sg66
I0
sg67
I6
ssI9
(dp83
g65
I6
sg66
I0
sg67
I1
ssI26
(dp84
g65
I5
sg66
I0
sg67
I9
ssI28
(dp85
g65
I7
sg66
I0
sg67
I4
ssI42
(dp86
g65
I7
sg66
I0
sg67
I9
sssI2
(dp87
I1
(dp88
g65
I8
sg66
I0
sg67
I0
ssI4
(dp89
g65
I7
sg66
I0
sg67
I6
ssI5
(dp90
g65
I5
sg66
I0
sg67
I5
ssI7
(dp91
g65
I6
sg66
I0
sg67
I2
ssI8
(dp92
g65
I8
sg66
I0
sg67
I9
ssI14
(dp93
g65
I8
sg66
I0
sg67
I2
ssI15
(dp94
g65
I5
sg66
I0
sg67
I7
ssI17
(dp95
g65
I6
sg66
I0
sg67
I2
ssI18
(dp96
g65
I8
sg66
I0
sg67
I0
ssI23
(dp97
g65
I6
sg66
I0
sg67
I6
ssI25
(dp98
g65
I5
sg66
I0
sg67
I7
ssI27
(dp99
g65
I7
sg66
I0
sg67
I10
ssI28
(dp100
g65
I8
sg66
I0
sg67
I8
ssI36
(dp101
g65
I7
sg66
I0
sg67
I7
ssI37
(dp102
g65
I8
sg66
I0
sg67
I2
ssI38
(dp103
g65
I7
sg66
I0
sg67
I0
ssI40
(dp104
g65
I7
sg66
I0
sg67
I9
ssI41
(dp105
g65
I5
sg66
I0
sg67
I8
ssI44
(dp106
g65
I8
sg66
I0
sg67
I4
ssI45
(dp107
g65
I6
sg66
I0
sg67
I7
ssI46
(dp108
g65
I5
sg66
I0
sg67
I1
ssI47
(dp109
g65
I5
sg66
I0
sg67
I8
sssI3
(dp110
I7
(dp111
g65
I6
sg66
I0
sg67
I0
ssI9
(dp112
g65
I7
sg66
I0
sg67
I1
ssI10
(dp113
g65
I8
sg66
I0
sg67
I4
ssI11
(dp114
g65
I7
sg66
I0
sg67
I4
ssI13
(dp115
g65
I8
sg66
I0
sg67
I10
ssI16
(dp116
g65
I5
sg66
I0
sg67
I3
ssI17
(dp117
g65
I8
sg66
I0
sg67
I7
ssI18
(dp118
g65
I6
sg66
I0
sg67
I8
ssI19
(dp119
g65
I7
sg66
I0
sg67
I1
ssI21
(dp120
g65
I6
sg66
I0
sg67
I5
ssI22
(dp121
g65
I7
sg66
I0
sg67
I9
ssI23
(dp122
g65
I8
sg66
I0
sg67
I6
ssI26
(dp123
g65
I6
sg66
I0
sg67
I2
ssI27
(dp124
g65
I8
sg66
I0
sg67
I1
ssI28
(dp125
g65
I5
sg66
I0
sg67
I8
ssI29
(dp126
g65
I7
sg66
I0
sg67
I7
ssI30
(dp127
g65
I5
sg66
I0
sg67
I5
ssI32
(dp128
g65
I8
sg66
I0
sg67
I2
ssI34
(dp129
g65
I6
sg66
I0
sg67
I10
ssI35
(dp130
g65
I5
sg66
I0
sg67
I3
ssI37
(dp131
g65
I7
sg66
I0
sg67
I10
ssI39
(dp132
g65
I6
sg66
I0
sg67
I8
ssI40
(dp133
g65
I7
sg66
I0
sg67
I4
ssI41
(dp134
g65
I5
sg66
I0
sg67
I5
ssI44
(dp135
g65
I6
sg66
I0
sg67
I10
ssI45
(dp136
g65
I8
sg66
I0
sg67
I3
ssI49
(dp137
g65
I6
sg66
I0
sg67
I3
sssI4
(dp138
I5
(dp139
g65
I7
sg66
I0
sg67
I7
ssI6
(dp140
g65
I5
sg66
I0
sg67
I7
ssI11
(dp141
g65
I5
sg66
I0
sg67
I5
ssI12
(dp142
g65
I6
sg66
I0
sg67
I4
ssI13
(dp143
g65
I8
sg66
I0
sg67
I3
ssI17
(dp144
g65
I7
sg66
I0
sg67
I9
ssI19
(dp145
g65
I7
sg66
I0
sg67
I5
ssI21
(dp146
g65
I5
sg66
I0
sg67
I1
ssI22
(dp147
g65
I6
sg66
I0
sg67
I6
ssI23
(dp148
g65
I8
sg66
I0
sg67
I1
ssI28
(dp149
g65
I5
sg66
I0
sg67
I3
ssI29
(dp150
g65
I8
sg66
I0
sg67
I2
ssI30
(dp151
g65
I5
sg66
I0
sg67
I0
ssI31
(dp152
g65
I5
sg66
I0
sg67
I2
ssI34
(dp153
g65
I6
sg66
I0
sg67
I10
ssI36
(dp154
g65
I6
sg66
I0
sg67
I0
ssI37
(dp155
g65
I7
sg66
I0
sg67
I0
ssI38
(dp156
g65
I6
sg66
I0
sg67
I9
ssI39
(dp157
g65
I6
sg66
I0
sg67
I9
ssI44
(dp158
g65
I7
sg66
I0
sg67
I1
ssI46
(dp159
g65
I8
sg66
I0
sg67
I5
ssI50
(dp160
g65
I7
sg66
I0
sg67
I8
sssI5
(dp161
I34
(dp162
g65
I7
sg66
I0
sg67
I5
ssI50
(dp163
g65
I5
sg66
I0
sg67
I7
ssI36
(dp164
g65
I5
sg66
I0
sg67
I2
ssI7
(dp165
g65
I7
sg66
I0
sg67
I10
ssI40
(dp166
g65
I8
sg66
I0
sg67
I4
ssI41
(dp167
g65
I7
sg66
I0
sg67
I1
ssI10
(dp168
g65
I8
sg66
I0
sg67
I8
ssI43
(dp169
g65
I8
sg66
I0
sg67
I4
ssI29
(dp170
g65
I7
sg66
I0
sg67
I8
ssI13
(dp171
g65
I8
sg66
I0
sg67
I4
ssI46
(dp172
g65
I5
sg66
I0
sg67
I2
ssI15
(dp173
g65
I6
sg66
I0
sg67
I4
ssI18
(dp174
g65
I5
sg66
I0
sg67
I5
ssI19
(dp175
g65
I7
sg66
I0
sg67
I0
ssI20
(dp176
g65
I7
sg66
I0
sg67
I1
ssI26
(dp177
g65
I7
sg66
I0
sg67
I1
ssI47
(dp178
g65
I6
sg66
I0
sg67
I5
ssI28
(dp179
g65
I8
sg66
I0
sg67
I4
ssI42
(dp180
g65
I6
sg66
I0
sg67
I9
ssI30
(dp181
g65
I6
sg66
I0
sg67
I8
sssI6
(dp182
I32
(dp183
g65
I5
sg66
I0
sg67
I5
ssI2
(dp184
g65
I8
sg66
I0
sg67
I6
ssI5
(dp185
g65
I8
sg66
I0
sg67
I9
ssI38
(dp186
g65
I7
sg66
I0
sg67
I10
ssI39
(dp187
g65
I7
sg66
I0
sg67
I6
ssI9
(dp188
g65
I6
sg66
I0
sg67
I1
ssI42
(dp189
g65
I5
sg66
I0
sg67
I2
ssI7
(dp190
g65
I5
sg66
I0
sg67
I8
ssI12
(dp191
g65
I5
sg66
I0
sg67
I10
ssI46
(dp192
g65
I5
sg66
I0
sg67
I5
ssI47
(dp193
g65
I8
sg66
I0
sg67
I0
ssI48
(dp194
g65
I7
sg66
I0
sg67
I0
ssI17
(dp195
g65
I6
sg66
I0
sg67
I1
ssI14
(dp196
g65
I8
sg66
I0
sg67
I6
ssI22
(dp197
g65
I8
sg66
I0
sg67
I1
ssI23
(dp198
g65
I5
sg66
I0
sg67
I10
ssI25
(dp199
g65
I6
sg66
I0
sg67
I1
ssI26
(dp200
g65
I5
sg66
I0
sg67
I1
ssI44
(dp201
g65
I8
sg66
I0
sg67
I4
ssI30
(dp202
g65
I5
sg66
I0
sg67
I3
sssI7
(dp203
I1
(dp204
g65
I8
sg66
I0
sg67
I10
ssI2
(dp205
g65
I6
sg66
I0
sg67
I4
ssI4
(dp206
g65
I8
sg66
I0
sg67
I6
ssI5
(dp207
g65
I6
sg66
I0
sg67
I9
ssI6
(dp208
g65
I6
sg66
I0
sg67
I10
ssI8
(dp209
g65
I7
sg66
I0
sg67
I7
ssI10
(dp210
g65
I8
sg66
I0
sg67
I6
ssI12
(dp211
g65
I6
sg66
I0
sg67
I5
ssI13
(dp212
g65
I5
sg66
I0
sg67
I1
ssI14
(dp213
g65
I8
sg66
I0
sg67
I2
ssI21
(dp214
g65
I8
sg66
I0
sg67
I1
ssI23
(dp215
g65
I7
sg66
I0
sg67
I7
ssI25
(dp216
g65
I6
sg66
I0
sg67
I9
ssI28
(dp217
g65
I8
sg66
I0
sg67
I9
ssI31
(dp218
g65
I7
sg66
I0
sg67
I7
ssI32
(dp219
g65
I5
sg66
I0
sg67
I5
ssI35
(dp220
g65
I6
sg66
I0
sg67
I6
ssI36
(dp221
g65
I6
sg66
I0
sg67
I5
ssI38
(dp222
g65
I8
sg66
I0
sg67
I4
ssI39
(dp223
g65
I8
sg66
I0
sg67
I1
ssI42
(dp224
g65
I5
sg66
I0
sg67
I3
ssI43
(dp225
g65
I8
sg66
I0
sg67
I2
ssI44
(dp226
g65
I7
sg66
I0
sg67
I5
ssI45
(dp227
g65
I6
sg66
I0
sg67
I10
ssI47
(dp228
g65
I8
sg66
I0
sg67
I1
ssI49
(dp229
g65
I6
sg66
I0
sg67
I7
sssI8
(dp230
I1
(dp231
g65
I7
sg66
I0
sg67
I5
ssI2
(dp232
g65
I6
sg66
I0
sg67
I9
ssI4
(dp233
g65
I8
sg66
I0
sg67
I8
ssI10
(dp234
g65
I7
sg66
I0
sg67
I7
ssI11
(dp235
g65
I8
sg66
I0
sg67
I3
ssI15
(dp236
g65
I6
sg66
I0
sg67
I5
ssI17
(dp237
g65
I8
sg66
I0
sg67
I3
ssI18
(dp238
g65
I5
sg66
I0
sg67
I8
ssI20
(dp239
g65
I7
sg66
I0
sg67
I1
ssI22
(dp240
g65
I6
sg66
I0
sg67
I4
ssI23
(dp241
g65
I5
sg66
I0
sg67
I1
ssI24
(dp242
g65
I8
sg66
I0
sg67
I8
ssI26
(dp243
g65
I8
sg66
I0
sg67
I8
ssI27
(dp244
g65
I8
sg66
I0
sg67
I3
ssI28
(dp245
g65
I5
sg66
I0
sg67
I2
ssI29
(dp246
g65
I7
sg66
I0
sg67
I10
ssI30
(dp247
g65
I6
sg66
I0
sg67
I0
ssI33
(dp248
g65
I7
sg66
I0
sg67
I4
ssI34
(dp249
g65
I5
sg66
I0
sg67
I3
ssI40
(dp250
g65
I7
sg66
I0
sg67
I9
ssI41
(dp251
g65
I5
sg66
I0
sg67
I7
ssI42
(dp252
g65
I5
sg66
I0
sg67
I2
ssI43
(dp253
g65
I5
sg66
I0
sg67
I5
ssI44
(dp254
g65
I6
sg66
I0
sg67
I0
ssI45
(dp255
g65
I7
sg66
I0
sg67
I1
ssI47
(dp256
g65
I8
sg66
I0
sg67
I4
ssI48
(dp257
g65
I8
sg66
I0
sg67
I8
ssI49
(dp258
g65
I7
sg66
I0
sg67
I6
ssI50
(dp259
g65
I7
sg66
I0
sg67
I8
sssI9
(dp260
I1
(dp261
g65
I7
sg66
I0
sg67
I9
ssI3
(dp262
g65
I8
sg66
I0
sg67
I2
ssI4
(dp263
g65
I8
sg66
I0
sg67
I7
ssI6
(dp264
g65
I5
sg66
I0
sg67
I2
ssI10
(dp265
g65
I7
sg66
I0
sg67
I5
ssI11
(dp266
g65
I6
sg66
I0
sg67
I8
ssI12
(dp267
g65
I5
sg66
I0
sg67
I7
ssI14
(dp268
g65
I6
sg66
I0
sg67
I9
ssI17
(dp269
g65
I7
sg66
I0
sg67
I2
ssI18
(dp270
g65
I7
sg66
I0
sg67
I5
ssI20
(dp271
g65
I7
sg66
I0
sg67
I5
ssI22
(dp272
g65
I5
sg66
I0
sg67
I7
ssI24
(dp273
g65
I8
sg66
I0
sg67
I0
ssI27
(dp274
g65
I8
sg66
I0
sg67
I5
ssI28
(dp275
g65
I8
sg66
I0
sg67
I7
ssI29
(dp276
g65
I7
sg66
I0
sg67
I0
ssI30
(dp277
g65
I5
sg66
I0
sg67
I8
ssI33
(dp278
g65
I7
sg66
I0
sg67
I6
ssI35
(dp279
g65
I6
sg66
I0
sg67
I2
ssI38
(dp280
g65
I7
sg66
I0
sg67
I9
ssI39
(dp281
g65
I8
sg66
I0
sg67
I6
ssI41
(dp282
g65
I6
sg66
I0
sg67
I2
ssI43
(dp283
g65
I6
sg66
I0
sg67
I5
ssI46
(dp284
g65
I6
sg66
I0
sg67
I0
ssI48
(dp285
g65
I6
sg66
I0
sg67
I3
ssI50
(dp286
g65
I8
sg66
I0
sg67
I10
sssI10
(dp287
I3
(dp288
g65
I7
sg66
I0
sg67
I10
ssI5
(dp289
g65
I6
sg66
I0
sg67
I0
ssI8
(dp290
g65
I5
sg66
I0
sg67
I8
ssI9
(dp291
g65
I5
sg66
I0
sg67
I8
ssI11
(dp292
g65
I5
sg66
I0
sg67
I8
ssI13
(dp293
g65
I7
sg66
I0
sg67
I5
ssI15
(dp294
g65
I5
sg66
I0
sg67
I7
ssI16
(dp295
g65
I7
sg66
I0
sg67
I3
ssI18
(dp296
g65
I7
sg66
I0
sg67
I3
ssI20
(dp297
g65
I8
sg66
I0
sg67
I8
ssI22
(dp298
g65
I7
sg66
I0
sg67
I4
ssI26
(dp299
g65
I8
sg66
I0
sg67
I2
ssI28
(dp300
g65
I7
sg66
I0
sg67
I5
ssI32
(dp301
g65
I7
sg66
I0
sg67
I10
ssI34
(dp302
g65
I7
sg66
I0
sg67
I8
ssI36
(dp303
g65
I6
sg66
I0
sg67
I1
ssI37
(dp304
g65
I6
sg66
I0
sg67
I1
ssI38
(dp305
g65
I6
sg66
I0
sg67
I9
ssI39
(dp306
g65
I6
sg66
I0
sg67
I0
ssI40
(dp307
g65
I7
sg66
I0
sg67
I2
ssI43
(dp308
g65
I6
sg66
I0
sg67
I8
ssI44
(dp309
g65
I8
sg66
I0
sg67
I9
ssI48
(dp310
g65
I6
sg66
I0
sg67
I4
sssI11
(dp311
I2
(dp312
g65
I8
sg66
I0
sg67
I2
ssI3
(dp313
g65
I7
sg66
I0
sg67
I7
ssI4
(dp314
g65
I7
sg66
I0
sg67
I0
ssI5
(dp315
g65
I6
sg66
I0
sg67
I3
ssI6
(dp316
g65
I5
sg66
I0
sg67
I5
ssI9
(dp317
g65
I6
sg66
I0
sg67
I0
ssI12
(dp318
g65
I8
sg66
I0
sg67
I6
ssI13
(dp319
g65
I8
sg66
I0
sg67
I2
ssI14
(dp320
g65
I8
sg66
I0
sg67
I8
ssI17
(dp321
g65
I5
sg66
I0
sg67
I5
ssI19
(dp322
g65
I5
sg66
I0
sg67
I2
ssI20
(dp323
g65
I8
sg66
I0
sg67
I8
ssI21
(dp324
g65
I8
sg66
I0
sg67
I3
ssI23
(dp325
g65
I7
sg66
I0
sg67
I9
ssI24
(dp326
g65
I8
sg66
I0
sg67
I8
ssI28
(dp327
g65
I6
sg66
I0
sg67
I3
ssI29
(dp328
g65
I7
sg66
I0
sg67
I4
ssI37
(dp329
g65
I8
sg66
I0
sg67
I1
ssI38
(dp330
g65
I6
sg66
I0
sg67
I6
ssI39
(dp331
g65
I5
sg66
I0
sg67
I0
ssI43
(dp332
g65
I6
sg66
I0
sg67
I8
ssI45
(dp333
g65
I8
sg66
I0
sg67
I9
ssI49
(dp334
g65
I8
sg66
I0
sg67
I4
ssI50
(dp335
g65
I6
sg66
I0
sg67
I6
sssI12
(dp336
I1
(dp337
g65
I8
sg66
I0
sg67
I8
ssI2
(dp338
g65
I5
sg66
I0
sg67
I10
ssI3
(dp339
g65
I8
sg66
I0
sg67
I8
ssI5
(dp340
g65
I8
sg66
I0
sg67
I5
ssI6
(dp341
g65
I7
sg66
I0
sg67
I9
ssI9
(dp342
g65
I8
sg66
I0
sg67
I9
ssI11
(dp343
g65
I7
sg66
I0
sg67
I8
ssI13
(dp344
g65
I8
sg66
I0
sg67
I0
ssI14
(dp345
g65
I5
sg66
I0
sg67
I3
ssI15
(dp346
g65
I8
sg66
I0
sg67
I8
ssI19
(dp347
g65
I7
sg66
I0
sg67
I8
ssI21
(dp348
g65
I7
sg66
I0
sg67
I1
ssI23
(dp349
g65
I5
sg66
I0
sg67
I3
ssI24
(dp350
g65
I7
sg66
I0
sg67
I9
ssI27
(dp351
g65
I5
sg66
I0
sg67
I8
ssI28
(dp352
g65
I7
sg66
I0
sg67
I1
ssI29
(dp353
g65
I7
sg66
I0
sg67
I0
ssI31
(dp354
g65
I7
sg66
I0
sg67
I0
ssI35
(dp355
g65
I8
sg66
I0
sg67
I9
ssI36
(dp356
g65
I6
sg66
I0
sg67
I8
ssI39
(dp357
g65
I7
sg66
I0
sg67
I0
ssI41
(dp358
g65
I6
sg66
I0
sg67
I7
ssI44
(dp359
g65
I6
sg66
I0
sg67
I3
ssI45
(dp360
g65
I8
sg66
I0
sg67
I8
ssI46
(dp361
g65
I8
sg66
I0
sg67
I1
ssI47
(dp362
g65
I5
sg66
I0
sg67
I8
ssI48
(dp363
g65
I8
sg66
I0
sg67
I4
ssI50
(dp364
g65
I8
sg66
I0
sg67
I2
sssI13
(dp365
I1
(dp366
g65
I8
sg66
I0
sg67
I7
ssI2
(dp367
g65
I7
sg66
I0
sg67
I3
ssI3
(dp368
g65
I5
sg66
I0
sg67
I6
ssI4
(dp369
g65
I7
sg66
I0
sg67
I7
ssI6
(dp370
g65
I5
sg66
I0
sg67
I8
ssI7
(dp371
g65
I6
sg66
I0
sg67
I1
ssI8
(dp372
g65
I5
sg66
I0
sg67
I8
ssI9
(dp373
g65
I8
sg66
I0
sg67
I7
ssI10
(dp374
g65
I6
sg66
I0
sg67
I3
ssI16
(dp375
g65
I5
sg66
I0
sg67
I6
ssI17
(dp376
g65
I7
sg66
I0
sg67
I4
ssI19
(dp377
g65
I5
sg66
I0
sg67
I8
ssI21
(dp378
g65
I6
sg66
I0
sg67
I8
ssI22
(dp379
g65
I5
sg66
I0
sg67
I10
ssI23
(dp380
g65
I5
sg66
I0
sg67
I4
ssI25
(dp381
g65
I8
sg66
I0
sg67
I7
ssI32
(dp382
g65
I7
sg66
I0
sg67
I3
ssI34
(dp383
g65
I7
sg66
I0
sg67
I8
ssI40
(dp384
g65
I7
sg66
I0
sg67
I0
ssI41
(dp385
g65
I6
sg66
I0
sg67
I5
ssI45
(dp386
g65
I5
sg66
I0
sg67
I4
ssI48
(dp387
g65
I5
sg66
I0
sg67
I10
ssI50
(dp388
g65
I5
sg66
I0
sg67
I1
sssI14
(dp389
I1
(dp390
g65
I6
sg66
I0
sg67
I4
ssI2
(dp391
g65
I7
sg66
I0
sg67
I3
ssI3
(dp392
g65
I8
sg66
I0
sg67
I4
ssI4
(dp393
g65
I8
sg66
I0
sg67
I0
ssI5
(dp394
g65
I5
sg66
I0
sg67
I8
ssI7
(dp395
g65
I6
sg66
I0
sg67
I6
ssI9
(dp396
g65
I6
sg66
I0
sg67
I4
ssI12
(dp397
g65
I6
sg66
I0
sg67
I10
ssI13
(dp398
g65
I6
sg66
I0
sg67
I10
ssI17
(dp399
g65
I7
sg66
I0
sg67
I4
ssI18
(dp400
g65
I8
sg66
I0
sg67
I3
ssI19
(dp401
g65
I6
sg66
I0
sg67
I9
ssI20
(dp402
g65
I7
sg66
I0
sg67
I6
ssI21
(dp403
g65
I7
sg66
I0
sg67
I2
ssI22
(dp404
g65
I8
sg66
I0
sg67
I9
ssI23
(dp405
g65
I6
sg66
I0
sg67
I9
ssI24
(dp406
g65
I8
sg66
I0
sg67
I8
ssI25
(dp407
g65
I6
sg66
I0
sg67
I5
ssI27
(dp408
g65
I7
sg66
I0
sg67
I2
ssI30
(dp409
g65
I5
sg66
I0
sg67
I7
ssI32
(dp410
g65
I5
sg66
I0
sg67
I10
ssI33
(dp411
g65
I7
sg66
I0
sg67
I1
ssI37
(dp412
g65
I8
sg66
I0
sg67
I2
ssI39
(dp413
g65
I8
sg66
I0
sg67
I9
ssI45
(dp414
g65
I6
sg66
I0
sg67
I5
ssI46
(dp415
g65
I6
sg66
I0
sg67
I7
ssI48
(dp416
g65
I8
sg66
I0
sg67
I2
ssI50
(dp417
g65
I6
sg66
I0
sg67
I4
sssI15
(dp418
I7
(dp419
g65
I6
sg66
I0
sg67
I7
ssI8
(dp420
g65
I7
sg66
I0
sg67
I9
ssI10
(dp421
g65
I8
sg66
I0
sg67
I0
ssI18
(dp422
g65
I6
sg66
I0
sg67
I7
ssI22
(dp423
g65
I7
sg66
I0
sg67
I5
ssI23
(dp424
g65
I7
sg66
I0
sg67
I10
ssI24
(dp425
g65
I7
sg66
I0
sg67
I8
ssI25
(dp426
g65
I7
sg66
I0
sg67
I6
ssI27
(dp427
g65
I7
sg66
I0
sg67
I6
ssI28
(dp428
g65
I8
sg66
I0
sg67
I8
ssI30
(dp429
g65
I5
sg66
I0
sg67
I10
ssI31
(dp430
g65
I7
sg66
I0
sg67
I8
ssI33
(dp431
g65
I8
sg66
I0
sg67
I1
ssI35
(dp432
g65
I8
sg66
I0
sg67
I3
ssI36
(dp433
g65
I6
sg66
I0
sg67
I7
ssI38
(dp434
g65
I8
sg66
I0
sg67
I10
ssI39
(dp435
g65
I5
sg66
I0
sg67
I2
ssI40
(dp436
g65
I7
sg66
I0
sg67
I2
ssI41
(dp437
g65
I8
sg66
I0
sg67
I2
ssI44
(dp438
g65
I7
sg66
I0
sg67
I2
ssI45
(dp439
g65
I7
sg66
I0
sg67
I2
ssI46
(dp440
g65
I7
sg66
I0
sg67
I0
ssI48
(dp441
g65
I8
sg66
I0
sg67
I6
ssI49
(dp442
g65
I7
sg66
I0
sg67
I7
ssI50
(dp443
g65
I6
sg66
I0
sg67
I6
sssI16
(dp444
I5
(dp445
g65
I5
sg66
I0
sg67
I7
ssI7
(dp446
g65
I7
sg66
I0
sg67
I0
ssI9
(dp447
g65
I7
sg66
I0
sg67
I6
ssI12
(dp448
g65
I6
sg66
I0
sg67
I9
ssI14
(dp449
g65
I6
sg66
I0
sg67
I4
ssI15
(dp450
g65
I8
sg66
I0
sg67
I9
ssI18
(dp451
g65
I7
sg66
I0
sg67
I2
ssI24
(dp452
g65
I5
sg66
I0
sg67
I10
ssI26
(dp453
g65
I8
sg66
I0
sg67
I6
ssI27
(dp454
g65
I7
sg66
I0
sg67
I5
ssI28
(dp455
g65
I5
sg66
I0
sg67
I6
ssI29
(dp456
g65
I8
sg66
I0
sg67
I6
ssI32
(dp457
g65
I8
sg66
I0
sg67
I4
ssI33
(dp458
g65
I7
sg66
I0
sg67
I8
ssI35
(dp459
g65
I7
sg66
I0
sg67
I4
ssI36
(dp460
g65
I7
sg66
I0
sg67
I7
ssI40
(dp461
g65
I5
sg66
I0
sg67
I6
ssI42
(dp462
g65
I8
sg66
I0
sg67
I9
ssI43
(dp463
g65
I6
sg66
I0
sg67
I4
ssI44
(dp464
g65
I6
sg66
I0
sg67
I0
ssI45
(dp465
g65
I5
sg66
I0
sg67
I1
ssI46
(dp466
g65
I5
sg66
I0
sg67
I7
ssI49
(dp467
g65
I5
sg66
I0
sg67
I0
ssI50
(dp468
g65
I8
sg66
I0
sg67
I5
sssI17
(dp469
I2
(dp470
g65
I5
sg66
I0
sg67
I7
ssI3
(dp471
g65
I6
sg66
I0
sg67
I0
ssI5
(dp472
g65
I6
sg66
I0
sg67
I4
ssI9
(dp473
g65
I6
sg66
I0
sg67
I4
ssI12
(dp474
g65
I5
sg66
I0
sg67
I9
ssI14
(dp475
g65
I8
sg66
I0
sg67
I0
ssI15
(dp476
g65
I5
sg66
I0
sg67
I9
ssI18
(dp477
g65
I8
sg66
I0
sg67
I4
ssI19
(dp478
g65
I7
sg66
I0
sg67
I7
ssI22
(dp479
g65
I6
sg66
I0
sg67
I0
ssI23
(dp480
g65
I8
sg66
I0
sg67
I2
ssI25
(dp481
g65
I8
sg66
I0
sg67
I9
ssI27
(dp482
g65
I6
sg66
I0
sg67
I1
ssI29
(dp483
g65
I8
sg66
I0
sg67
I2
ssI30
(dp484
g65
I8
sg66
I0
sg67
I4
ssI32
(dp485
g65
I7
sg66
I0
sg67
I8
ssI33
(dp486
g65
I7
sg66
I0
sg67
I0
ssI34
(dp487
g65
I6
sg66
I0
sg67
I2
ssI35
(dp488
g65
I8
sg66
I0
sg67
I10
ssI36
(dp489
g65
I5
sg66
I0
sg67
I3
ssI37
(dp490
g65
I6
sg66
I0
sg67
I9
ssI39
(dp491
g65
I8
sg66
I0
sg67
I5
ssI40
(dp492
g65
I5
sg66
I0
sg67
I0
ssI43
(dp493
g65
I6
sg66
I0
sg67
I4
ssI47
(dp494
g65
I6
sg66
I0
sg67
I8
ssI48
(dp495
g65
I8
sg66
I0
sg67
I0
ssI49
(dp496
g65
I7
sg66
I0
sg67
I6
sssI18
(dp497
I1
(dp498
g65
I8
sg66
I0
sg67
I9
ssI4
(dp499
g65
I8
sg66
I0
sg67
I2
ssI8
(dp500
g65
I6
sg66
I0
sg67
I7
ssI9
(dp501
g65
I5
sg66
I0
sg67
I6
ssI10
(dp502
g65
I8
sg66
I0
sg67
I7
ssI12
(dp503
g65
I8
sg66
I0
sg67
I1
ssI13
(dp504
g65
I6
sg66
I0
sg67
I1
ssI16
(dp505
g65
I7
sg66
I0
sg67
I3
ssI19
(dp506
g65
I8
sg66
I0
sg67
I3
ssI21
(dp507
g65
I6
sg66
I0
sg67
I8
ssI24
(dp508
g65
I5
sg66
I0
sg67
I4
ssI25
(dp509
g65
I7
sg66
I0
sg67
I3
ssI26
(dp510
g65
I8
sg66
I0
sg67
I0
ssI27
(dp511
g65
I5
sg66
I0
sg67
I9
ssI28
(dp512
g65
I8
sg66
I0
sg67
I5
ssI30
(dp513
g65
I7
sg66
I0
sg67
I0
ssI31
(dp514
g65
I7
sg66
I0
sg67
I6
ssI32
(dp515
g65
I7
sg66
I0
sg67
I3
ssI35
(dp516
g65
I8
sg66
I0
sg67
I6
ssI39
(dp517
g65
I6
sg66
I0
sg67
I10
ssI41
(dp518
g65
I5
sg66
I0
sg67
I10
ssI43
(dp519
g65
I7
sg66
I0
sg67
I4
ssI44
(dp520
g65
I7
sg66
I0
sg67
I5
ssI50
(dp521
g65
I6
sg66
I0
sg67
I7
sssI19
(dp522
I1
(dp523
g65
I8
sg66
I0
sg67
I8
ssI2
(dp524
g65
I8
sg66
I0
sg67
I8
ssI3
(dp525
g65
I6
sg66
I0
sg67
I2
ssI4
(dp526
g65
I5
sg66
I0
sg67
I9
ssI7
(dp527
g65
I8
sg66
I0
sg67
I4
ssI8
(dp528
g65
I6
sg66
I0
sg67
I7
ssI9
(dp529
g65
I5
sg66
I0
sg67
I5
ssI10
(dp530
g65
I6
sg66
I0
sg67
I3
ssI11
(dp531
g65
I5
sg66
I0
sg67
I1
ssI12
(dp532
g65
I7
sg66
I0
sg67
I4
ssI16
(dp533
g65
I7
sg66
I0
sg67
I8
ssI18
(dp534
g65
I7
sg66
I0
sg67
I10
ssI20
(dp535
g65
I7
sg66
I0
sg67
I6
ssI21
(dp536
g65
I5
sg66
I0
sg67
I3
ssI24
(dp537
g65
I6
sg66
I0
sg67
I6
ssI27
(dp538
g65
I7
sg66
I0
sg67
I7
ssI29
(dp539
g65
I6
sg66
I0
sg67
I4
ssI31
(dp540
g65
I8
sg66
I0
sg67
I9
ssI34
(dp541
g65
I5
sg66
I0
sg67
I1
ssI36
(dp542
g65
I7
sg66
I0
sg67
I0
ssI38
(dp543
g65
I8
sg66
I0
sg67
I4
ssI41
(dp544
g65
I6
sg66
I0
sg67
I0
ssI44
(dp545
g65
I6
sg66
I0
sg67
I9
ssI46
(dp546
g65
I6
sg66
I0
sg67
I9
ssI48
(dp547
g65
I8
sg66
I0
sg67
I3
sssI20
(dp548
I2
(dp549
g65
I6
sg66
I0
sg67
I8
ssI3
(dp550
g65
I7
sg66
I0
sg67
I9
ssI5
(dp551
g65
I7
sg66
I0
sg67
I3
ssI7
(dp552
g65
I5
sg66
I0
sg67
I7
ssI8
(dp553
g65
I6
sg66
I0
sg67
I5
ssI13
(dp554
g65
I6
sg66
I0
sg67
I9
ssI14
(dp555
g65
I7
sg66
I0
sg67
I2
ssI17
(dp556
g65
I5
sg66
I0
sg67
I8
ssI24
(dp557
g65
I8
sg66
I0
sg67
I2
ssI25
(dp558
g65
I5
sg66
I0
sg67
I3
ssI26
(dp559
g65
I8
sg66
I0
sg67
I10
ssI28
(dp560
g65
I5
sg66
I0
sg67
I8
ssI31
(dp561
g65
I7
sg66
I0
sg67
I3
ssI32
(dp562
g65
I5
sg66
I0
sg67
I9
ssI33
(dp563
g65
I7
sg66
I0
sg67
I9
ssI34
(dp564
g65
I7
sg66
I0
sg67
I6
ssI35
(dp565
g65
I7
sg66
I0
sg67
I9
ssI37
(dp566
g65
I8
sg66
I0
sg67
I7
ssI38
(dp567
g65
I7
sg66
I0
sg67
I2
ssI41
(dp568
g65
I6
sg66
I0
sg67
I3
ssI44
(dp569
g65
I6
sg66
I0
sg67
I0
ssI45
(dp570
g65
I5
sg66
I0
sg67
I9
ssI48
(dp571
g65
I8
sg66
I0
sg67
I5
ssI50
(dp572
g65
I8
sg66
I0
sg67
I3
sssI21
(dp573
I1
(dp574
g65
I8
sg66
I0
sg67
I1
ssI2
(dp575
g65
I8
sg66
I0
sg67
I8
ssI6
(dp576
g65
I6
sg66
I0
sg67
I7
ssI11
(dp577
g65
I7
sg66
I0
sg67
I6
ssI13
(dp578
g65
I6
sg66
I0
sg67
I1
ssI14
(dp579
g65
I8
sg66
I0
sg67
I10
ssI15
(dp580
g65
I8
sg66
I0
sg67
I3
ssI17
(dp581
g65
I8
sg66
I0
sg67
I1
ssI19
(dp582
g65
I7
sg66
I0
sg67
I10
ssI23
(dp583
g65
I6
sg66
I0
sg67
I3
ssI24
(dp584
g65
I7
sg66
I0
sg67
I6
ssI25
(dp585
g65
I6
sg66
I0
sg67
I5
ssI31
(dp586
g65
I7
sg66
I0
sg67
I7
ssI32
(dp587
g65
I5
sg66
I0
sg67
I0
ssI34
(dp588
g65
I8
sg66
I0
sg67
I10
ssI36
(dp589
g65
I8
sg66
I0
sg67
I7
ssI39
(dp590
g65
I7
sg66
I0
sg67
I1
ssI42
(dp591
g65
I7
sg66
I0
sg67
I3
ssI43
(dp592
g65
I8
sg66
I0
sg67
I6
ssI44
(dp593
g65
I5
sg66
I0
sg67
I8
ssI45
(dp594
g65
I6
sg66
I0
sg67
I1
ssI46
(dp595
g65
I6
sg66
I0
sg67
I3
ssI47
(dp596
g65
I5
sg66
I0
sg67
I1
ssI48
(dp597
g65
I8
sg66
I0
sg67
I1
ssI49
(dp598
g65
I7
sg66
I0
sg67
I10
sssI22
(dp599
I4
(dp600
g65
I5
sg66
I0
sg67
I8
ssI5
(dp601
g65
I8
sg66
I0
sg67
I1
ssI6
(dp602
g65
I7
sg66
I0
sg67
I8
ssI11
(dp603
g65
I8
sg66
I0
sg67
I8
ssI12
(dp604
g65
I6
sg66
I0
sg67
I10
ssI13
(dp605
g65
I5
sg66
I0
sg67
I5
ssI14
(dp606
g65
I6
sg66
I0
sg67
I5
ssI15
(dp607
g65
I7
sg66
I0
sg67
I6
ssI18
(dp608
g65
I6
sg66
I0
sg67
I0
ssI21
(dp609
g65
I7
sg66
I0
sg67
I0
ssI23
(dp610
g65
I5
sg66
I0
sg67
I9
ssI25
(dp611
g65
I5
sg66
I0
sg67
I2
ssI26
(dp612
g65
I7
sg66
I0
sg67
I5
ssI27
(dp613
g65
I8
sg66
I0
sg67
I2
ssI28
(dp614
g65
I7
sg66
I0
sg67
I5
ssI31
(dp615
g65
I5
sg66
I0
sg67
I1
ssI32
(dp616
g65
I7
sg66
I0
sg67
I5
ssI33
(dp617
g65
I7
sg66
I0
sg67
I5
ssI35
(dp618
g65
I5
sg66
I0
sg67
I1
ssI36
(dp619
g65
I7
sg66
I0
sg67
I0
ssI38
(dp620
g65
I6
sg66
I0
sg67
I6
ssI39
(dp621
g65
I6
sg66
I0
sg67
I2
ssI40
(dp622
g65
I6
sg66
I0
sg67
I10
ssI41
(dp623
g65
I7
sg66
I0
sg67
I7
ssI44
(dp624
g65
I6
sg66
I0
sg67
I4
ssI45
(dp625
g65
I7
sg66
I0
sg67
I5
ssI46
(dp626
g65
I8
sg66
I0
sg67
I8
ssI47
(dp627
g65
I8
sg66
I0
sg67
I7
ssI49
(dp628
g65
I5
sg66
I0
sg67
I3
sssI23
(dp629
I2
(dp630
g65
I6
sg66
I0
sg67
I0
ssI6
(dp631
g65
I5
sg66
I0
sg67
I0
ssI8
(dp632
g65
I6
sg66
I0
sg67
I1
ssI9
(dp633
g65
I6
sg66
I0
sg67
I4
ssI10
(dp634
g65
I6
sg66
I0
sg67
I1
ssI15
(dp635
g65
I5
sg66
I0
sg67
I9
ssI16
(dp636
g65
I7
sg66
I0
sg67
I9
ssI17
(dp637
g65
I6
sg66
I0
sg67
I5
ssI18
(dp638
g65
I5
sg66
I0
sg67
I3
ssI20
(dp639
g65
I7
sg66
I0
sg67
I8
ssI22
(dp640
g65
I5
sg66
I0
sg67
I1
ssI25
(dp641
g65
I5
sg66
I0
sg67
I8
ssI26
(dp642
g65
I7
sg66
I0
sg67
I0
ssI28
(dp643
g65
I8
sg66
I0
sg67
I1
ssI29
(dp644
g65
I7
sg66
I0
sg67
I10
ssI30
(dp645
g65
I5
sg66
I0
sg67
I1
ssI31
(dp646
g65
I6
sg66
I0
sg67
I7
ssI32
(dp647
g65
I7
sg66
I0
sg67
I8
ssI37
(dp648
g65
I7
sg66
I0
sg67
I1
ssI40
(dp649
g65
I5
sg66
I0
sg67
I2
ssI41
(dp650
g65
I6
sg66
I0
sg67
I9
ssI42
(dp651
g65
I7
sg66
I0
sg67
I1
ssI43
(dp652
g65
I7
sg66
I0
sg67
I6
ssI44
(dp653
g65
I8
sg66
I0
sg67
I0
ssI46
(dp654
g65
I5
sg66
I0
sg67
I6
ssI48
(dp655
g65
I8
sg66
I0
sg67
I9
ssI49
(dp656
g65
I8
sg66
I0
sg67
I9
sssI24
(dp657
I3
(dp658
g65
I6
sg66
I0
sg67
I1
ssI4
(dp659
g65
I7
sg66
I0
sg67
I0
ssI7
(dp660
g65
I5
sg66
I0
sg67
I3
ssI8
(dp661
g65
I6
sg66
I0
sg67
I1
ssI14
(dp662
g65
I6
sg66
I0
sg67
I0
ssI16
(dp663
g65
I8
sg66
I0
sg67
I3
ssI17
(dp664
g65
I5
sg66
I0
sg67
I4
ssI19
(dp665
g65
I7
sg66
I0
sg67
I3
ssI20
(dp666
g65
I7
sg66
I0
sg67
I5
ssI25
(dp667
g65
I6
sg66
I0
sg67
I7
ssI26
(dp668
g65
I6
sg66
I0
sg67
I10
ssI27
(dp669
g65
I6
sg66
I0
sg67
I10
ssI29
(dp670
g65
I7
sg66
I0
sg67
I7
ssI31
(dp671
g65
I6
sg66
I0
sg67
I6
ssI35
(dp672
g65
I8
sg66
I0
sg67
I0
ssI36
(dp673
g65
I6
sg66
I0
sg67
I0
ssI39
(dp674
g65
I7
sg66
I0
sg67
I2
ssI40
(dp675
g65
I8
sg66
I0
sg67
I2
ssI42
(dp676
g65
I8
sg66
I0
sg67
I7
ssI43
(dp677
g65
I7
sg66
I0
sg67
I6
ssI44
(dp678
g65
I5
sg66
I0
sg67
I4
ssI45
(dp679
g65
I7
sg66
I0
sg67
I7
ssI46
(dp680
g65
I8
sg66
I0
sg67
I8
ssI48
(dp681
g65
I6
sg66
I0
sg67
I10
sssI25
(dp682
I32
(dp683
g65
I8
sg66
I0
sg67
I5
ssI1
(dp684
g65
I8
sg66
I0
sg67
I4
ssI3
(dp685
g65
I7
sg66
I0
sg67
I7
ssI36
(dp686
g65
I6
sg66
I0
sg67
I0
ssI37
(dp687
g65
I7
sg66
I0
sg67
I8
ssI39
(dp688
g65
I5
sg66
I0
sg67
I2
ssI9
(dp689
g65
I5
sg66
I0
sg67
I8
ssI43
(dp690
g65
I5
sg66
I0
sg67
I6
ssI44
(dp691
g65
I6
sg66
I0
sg67
I9
ssI46
(dp692
g65
I8
sg66
I0
sg67
I5
ssI47
(dp693
g65
I5
sg66
I0
sg67
I9
ssI16
(dp694
g65
I8
sg66
I0
sg67
I2
ssI49
(dp695
g65
I8
sg66
I0
sg67
I10
ssI18
(dp696
g65
I7
sg66
I0
sg67
I0
ssI20
(dp697
g65
I5
sg66
I0
sg67
I0
ssI21
(dp698
g65
I8
sg66
I0
sg67
I6
ssI23
(dp699
g65
I8
sg66
I0
sg67
I5
ssI7
(dp700
g65
I5
sg66
I0
sg67
I5
ssI26
(dp701
g65
I7
sg66
I0
sg67
I6
ssI29
(dp702
g65
I5
sg66
I0
sg67
I2
sssI26
(dp703
I2
(dp704
g65
I7
sg66
I0
sg67
I10
ssI4
(dp705
g65
I6
sg66
I0
sg67
I0
ssI10
(dp706
g65
I5
sg66
I0
sg67
I10
ssI11
(dp707
g65
I6
sg66
I0
sg67
I10
ssI14
(dp708
g65
I8
sg66
I0
sg67
I7
ssI15
(dp709
g65
I7
sg66
I0
sg67
I9
ssI16
(dp710
g65
I5
sg66
I0
sg67
I4
ssI18
(dp711
g65
I7
sg66
I0
sg67
I8
ssI20
(dp712
g65
I8
sg66
I0
sg67
I4
ssI22
(dp713
g65
I8
sg66
I0
sg67
I2
ssI23
(dp714
g65
I7
sg66
I0
sg67
I8
ssI25
(dp715
g65
I6
sg66
I0
sg67
I10
ssI28
(dp716
g65
I8
sg66
I0
sg67
I7
ssI29
(dp717
g65
I5
sg66
I0
sg67
I10
ssI31
(dp718
g65
I6
sg66
I0
sg67
I3
ssI33
(dp719
g65
I8
sg66
I0
sg67
I3
ssI34
(dp720
g65
I8
sg66
I0
sg67
I7
ssI35
(dp721
g65
I6
sg66
I0
sg67
I3
ssI37
(dp722
g65
I5
sg66
I0
sg67
I2
ssI39
(dp723
g65
I5
sg66
I0
sg67
I5
ssI40
(dp724
g65
I7
sg66
I0
sg67
I7
ssI41
(dp725
g65
I7
sg66
I0
sg67
I4
ssI42
(dp726
g65
I5
sg66
I0
sg67
I0
ssI43
(dp727
g65
I5
sg66
I0
sg67
I5
ssI50
(dp728
g65
I8
sg66
I0
sg67
I4
sssI27
(dp729
I2
(dp730
g65
I8
sg66
I0
sg67
I3
ssI3
(dp731
g65
I6
sg66
I0
sg67
I7
ssI4
(dp732
g65
I7
sg66
I0
sg67
I5
ssI5
(dp733
g65
I6
sg66
I0
sg67
I7
ssI6
(dp734
g65
I6
sg66
I0
sg67
I6
ssI8
(dp735
g65
I8
sg66
I0
sg67
I10
ssI12
(dp736
g65
I5
sg66
I0
sg67
I2
ssI13
(dp737
g65
I5
sg66
I0
sg67
I7
ssI14
(dp738
g65
I5
sg66
I0
sg67
I4
ssI16
(dp739
g65
I5
sg66
I0
sg67
I9
ssI18
(dp740
g65
I6
sg66
I0
sg67
I6
ssI20
(dp741
g65
I7
sg66
I0
sg67
I3
ssI21
(dp742
g65
I5
sg66
I0
sg67
I4
ssI23
(dp743
g65
I5
sg66
I0
sg67
I6
ssI24
(dp744
g65
I5
sg66
I0
sg67
I9
ssI25
(dp745
g65
I6
sg66
I0
sg67
I6
ssI26
(dp746
g65
I8
sg66
I0
sg67
I4
ssI29
(dp747
g65
I6
sg66
I0
sg67
I7
ssI33
(dp748
g65
I8
sg66
I0
sg67
I1
ssI34
(dp749
g65
I8
sg66
I0
sg67
I5
ssI35
(dp750
g65
I6
sg66
I0
sg67
I1
ssI36
(dp751
g65
I6
sg66
I0
sg67
I6
ssI37
(dp752
g65
I6
sg66
I0
sg67
I5
ssI38
(dp753
g65
I7
sg66
I0
sg67
I0
ssI41
(dp754
g65
I7
sg66
I0
sg67
I4
ssI43
(dp755
g65
I8
sg66
I0
sg67
I7
ssI44
(dp756
g65
I8
sg66
I0
sg67
I3
ssI49
(dp757
g65
I7
sg66
I0
sg67
I10
ssI50
(dp758
g65
I8
sg66
I0
sg67
I10
sssI28
(dp759
I33
(dp760
g65
I5
sg66
I0
sg67
I9
ssI34
(dp761
g65
I8
sg66
I0
sg67
I6
ssI11
(dp762
g65
I5
sg66
I0
sg67
I3
ssI36
(dp763
g65
I5
sg66
I0
sg67
I8
ssI6
(dp764
g65
I6
sg66
I0
sg67
I9
ssI7
(dp765
g65
I8
sg66
I0
sg67
I9
ssI8
(dp766
g65
I7
sg66
I0
sg67
I3
ssI10
(dp767
g65
I5
sg66
I0
sg67
I8
ssI43
(dp768
g65
I6
sg66
I0
sg67
I2
ssI44
(dp769
g65
I5
sg66
I0
sg67
I2
ssI13
(dp770
g65
I7
sg66
I0
sg67
I8
ssI15
(dp771
g65
I7
sg66
I0
sg67
I8
ssI20
(dp772
g65
I6
sg66
I0
sg67
I2
ssI21
(dp773
g65
I8
sg66
I0
sg67
I6
ssI22
(dp774
g65
I6
sg66
I0
sg67
I7
ssI27
(dp775
g65
I5
sg66
I0
sg67
I4
ssI29
(dp776
g65
I6
sg66
I0
sg67
I6
ssI30
(dp777
g65
I6
sg66
I0
sg67
I2
ssI31
(dp778
g65
I5
sg66
I0
sg67
I9
sssI29
(dp779
I2
(dp780
g65
I6
sg66
I0
sg67
I4
ssI6
(dp781
g65
I5
sg66
I0
sg67
I7
ssI11
(dp782
g65
I6
sg66
I0
sg67
I5
ssI13
(dp783
g65
I8
sg66
I0
sg67
I10
ssI14
(dp784
g65
I5
sg66
I0
sg67
I2
ssI15
(dp785
g65
I6
sg66
I0
sg67
I10
ssI17
(dp786
g65
I6
sg66
I0
sg67
I5
ssI18
(dp787
g65
I6
sg66
I0
sg67
I0
ssI20
(dp788
g65
I8
sg66
I0
sg67
I3
ssI21
(dp789
g65
I7
sg66
I0
sg67
I4
ssI25
(dp790
g65
I5
sg66
I0
sg67
I2
ssI27
(dp791
g65
I7
sg66
I0
sg67
I0
ssI32
(dp792
g65
I7
sg66
I0
sg67
I2
ssI33
(dp793
g65
I6
sg66
I0
sg67
I4
ssI34
(dp794
g65
I8
sg66
I0
sg67
I10
ssI35
(dp795
g65
I6
sg66
I0
sg67
I7
ssI40
(dp796
g65
I5
sg66
I0
sg67
I8
ssI42
(dp797
g65
I5
sg66
I0
sg67
I6
ssI44
(dp798
g65
I5
sg66
I0
sg67
I4
ssI45
(dp799
g65
I6
sg66
I0
sg67
I3
ssI46
(dp800
g65
I6
sg66
I0
sg67
I7
ssI47
(dp801
g65
I8
sg66
I0
sg67
I9
ssI48
(dp802
g65
I5
sg66
I0
sg67
I5
sssI30
(dp803
I2
(dp804
g65
I6
sg66
I0
sg67
I0
ssI4
(dp805
g65
I8
sg66
I0
sg67
I9
ssI5
(dp806
g65
I5
sg66
I0
sg67
I9
ssI6
(dp807
g65
I7
sg66
I0
sg67
I5
ssI7
(dp808
g65
I6
sg66
I0
sg67
I9
ssI11
(dp809
g65
I6
sg66
I0
sg67
I3
ssI14
(dp810
g65
I6
sg66
I0
sg67
I10
ssI15
(dp811
g65
I7
sg66
I0
sg67
I9
ssI16
(dp812
g65
I7
sg66
I0
sg67
I9
ssI17
(dp813
g65
I7
sg66
I0
sg67
I6
ssI18
(dp814
g65
I7
sg66
I0
sg67
I2
ssI20
(dp815
g65
I8
sg66
I0
sg67
I6
ssI21
(dp816
g65
I5
sg66
I0
sg67
I8
ssI22
(dp817
g65
I8
sg66
I0
sg67
I5
ssI23
(dp818
g65
I6
sg66
I0
sg67
I7
ssI24
(dp819
g65
I6
sg66
I0
sg67
I1
ssI26
(dp820
g65
I7
sg66
I0
sg67
I1
ssI29
(dp821
g65
I7
sg66
I0
sg67
I2
ssI33
(dp822
g65
I5
sg66
I0
sg67
I1
ssI35
(dp823
g65
I5
sg66
I0
sg67
I4
ssI38
(dp824
g65
I5
sg66
I0
sg67
I2
ssI42
(dp825
g65
I5
sg66
I0
sg67
I8
ssI46
(dp826
g65
I6
sg66
I0
sg67
I9
ssI47
(dp827
g65
I8
sg66
I0
sg67
I0
sssI31
(dp828
I2
(dp829
g65
I8
sg66
I0
sg67
I1
ssI4
(dp830
g65
I6
sg66
I0
sg67
I4
ssI8
(dp831
g65
I8
sg66
I0
sg67
I0
ssI10
(dp832
g65
I8
sg66
I0
sg67
I1
ssI11
(dp833
g65
I7
sg66
I0
sg67
I9
ssI12
(dp834
g65
I7
sg66
I0
sg67
I5
ssI14
(dp835
g65
I5
sg66
I0
sg67
I8
ssI17
(dp836
g65
I8
sg66
I0
sg67
I7
ssI20
(dp837
g65
I5
sg66
I0
sg67
I3
ssI21
(dp838
g65
I6
sg66
I0
sg67
I1
ssI23
(dp839
g65
I7
sg66
I0
sg67
I2
ssI25
(dp840
g65
I8
sg66
I0
sg67
I10
ssI28
(dp841
g65
I6
sg66
I0
sg67
I6
ssI32
(dp842
g65
I5
sg66
I0
sg67
I10
ssI34
(dp843
g65
I6
sg66
I0
sg67
I6
ssI35
(dp844
g65
I7
sg66
I0
sg67
I7
ssI38
(dp845
g65
I5
sg66
I0
sg67
I4
ssI39
(dp846
g65
I5
sg66
I0
sg67
I0
ssI42
(dp847
g65
I6
sg66
I0
sg67
I3
ssI43
(dp848
g65
I6
sg66
I0
sg67
I5
ssI44
(dp849
g65
I5
sg66
I0
sg67
I5
ssI45
(dp850
g65
I8
sg66
I0
sg67
I10
ssI47
(dp851
g65
I5
sg66
I0
sg67
I2
ssI48
(dp852
g65
I8
sg66
I0
sg67
I9
ssI50
(dp853
g65
I5
sg66
I0
sg67
I5
sssI32
(dp854
I34
(dp855
g65
I8
sg66
I0
sg67
I0
ssI35
(dp856
g65
I7
sg66
I0
sg67
I10
ssI37
(dp857
g65
I6
sg66
I0
sg67
I6
ssI38
(dp858
g65
I5
sg66
I0
sg67
I3
ssI8
(dp859
g65
I7
sg66
I0
sg67
I9
ssI11
(dp860
g65
I6
sg66
I0
sg67
I8
ssI44
(dp861
g65
I6
sg66
I0
sg67
I10
ssI14
(dp862
g65
I7
sg66
I0
sg67
I8
ssI47
(dp863
g65
I5
sg66
I0
sg67
I4
ssI40
(dp864
g65
I8
sg66
I0
sg67
I3
ssI18
(dp865
g65
I6
sg66
I0
sg67
I3
ssI26
(dp866
g65
I7
sg66
I0
sg67
I9
ssI29
(dp867
g65
I6
sg66
I0
sg67
I6
sssI33
(dp868
I19
(dp869
g65
I8
sg66
I0
sg67
I6
ssI34
(dp870
g65
I8
sg66
I0
sg67
I2
ssI3
(dp871
g65
I7
sg66
I0
sg67
I10
ssI36
(dp872
g65
I8
sg66
I0
sg67
I0
ssI6
(dp873
g65
I8
sg66
I0
sg67
I10
ssI7
(dp874
g65
I8
sg66
I0
sg67
I4
ssI8
(dp875
g65
I8
sg66
I0
sg67
I3
ssI41
(dp876
g65
I5
sg66
I0
sg67
I5
ssI42
(dp877
g65
I5
sg66
I0
sg67
I1
ssI43
(dp878
g65
I7
sg66
I0
sg67
I3
ssI45
(dp879
g65
I5
sg66
I0
sg67
I7
ssI29
(dp880
g65
I8
sg66
I0
sg67
I8
ssI17
(dp881
g65
I7
sg66
I0
sg67
I2
ssI35
(dp882
g65
I8
sg66
I0
sg67
I10
ssI20
(dp883
g65
I5
sg66
I0
sg67
I1
ssI25
(dp884
g65
I7
sg66
I0
sg67
I2
ssI26
(dp885
g65
I8
sg66
I0
sg67
I2
ssI28
(dp886
g65
I7
sg66
I0
sg67
I3
ssI10
(dp887
g65
I5
sg66
I0
sg67
I2
ssI30
(dp888
g65
I8
sg66
I0
sg67
I4
ssI31
(dp889
g65
I7
sg66
I0
sg67
I6
sssI34
(dp890
I1
(dp891
g65
I7
sg66
I0
sg67
I1
ssI2
(dp892
g65
I5
sg66
I0
sg67
I7
ssI4
(dp893
g65
I7
sg66
I0
sg67
I7
ssI6
(dp894
g65
I8
sg66
I0
sg67
I2
ssI8
(dp895
g65
I6
sg66
I0
sg67
I10
ssI9
(dp896
g65
I7
sg66
I0
sg67
I4
ssI11
(dp897
g65
I5
sg66
I0
sg67
I3
ssI13
(dp898
g65
I7
sg66
I0
sg67
I7
ssI17
(dp899
g65
I8
sg66
I0
sg67
I1
ssI18
(dp900
g65
I7
sg66
I0
sg67
I10
ssI21
(dp901
g65
I5
sg66
I0
sg67
I8
ssI23
(dp902
g65
I7
sg66
I0
sg67
I5
ssI24
(dp903
g65
I6
sg66
I0
sg67
I1
ssI25
(dp904
g65
I5
sg66
I0
sg67
I1
ssI26
(dp905
g65
I6
sg66
I0
sg67
I7
ssI27
(dp906
g65
I7
sg66
I0
sg67
I7
ssI31
(dp907
g65
I5
sg66
I0
sg67
I7
ssI32
(dp908
g65
I6
sg66
I0
sg67
I6
ssI36
(dp909
g65
I6
sg66
I0
sg67
I5
ssI41
(dp910
g65
I5
sg66
I0
sg67
I1
ssI42
(dp911
g65
I7
sg66
I0
sg67
I10
ssI44
(dp912
g65
I8
sg66
I0
sg67
I8
ssI48
(dp913
g65
I6
sg66
I0
sg67
I4
ssI49
(dp914
g65
I7
sg66
I0
sg67
I7
sssI35
(dp915
I2
(dp916
g65
I7
sg66
I0
sg67
I5
ssI3
(dp917
g65
I8
sg66
I0
sg67
I7
ssI4
(dp918
g65
I8
sg66
I0
sg67
I6
ssI6
(dp919
g65
I7
sg66
I0
sg67
I3
ssI7
(dp920
g65
I6
sg66
I0
sg67
I8
ssI8
(dp921
g65
I8
sg66
I0
sg67
I5
ssI9
(dp922
g65
I5
sg66
I0
sg67
I9
ssI10
(dp923
g65
I6
sg66
I0
sg67
I2
ssI11
(dp924
g65
I7
sg66
I0
sg67
I10
ssI13
(dp925
g65
I6
sg66
I0
sg67
I8
ssI14
(dp926
g65
I6
sg66
I0
sg67
I9
ssI19
(dp927
g65
I6
sg66
I0
sg67
I3
ssI21
(dp928
g65
I7
sg66
I0
sg67
I1
ssI24
(dp929
g65
I8
sg66
I0
sg67
I2
ssI25
(dp930
g65
I8
sg66
I0
sg67
I5
ssI26
(dp931
g65
I8
sg66
I0
sg67
I5
ssI27
(dp932
g65
I5
sg66
I0
sg67
I8
ssI28
(dp933
g65
I8
sg66
I0
sg67
I10
ssI30
(dp934
g65
I8
sg66
I0
sg67
I1
ssI36
(dp935
g65
I7
sg66
I0
sg67
I4
ssI37
(dp936
g65
I6
sg66
I0
sg67
I2
ssI39
(dp937
g65
I7
sg66
I0
sg67
I2
ssI40
(dp938
g65
I8
sg66
I0
sg67
I8
ssI43
(dp939
g65
I8
sg66
I0
sg67
I8
ssI44
(dp940
g65
I7
sg66
I0
sg67
I2
ssI45
(dp941
g65
I6
sg66
I0
sg67
I6
ssI46
(dp942
g65
I8
sg66
I0
sg67
I9
ssI49
(dp943
g65
I7
sg66
I0
sg67
I2
ssI50
(dp944
g65
I8
sg66
I0
sg67
I3
sssI36
(dp945
I2
(dp946
g65
I7
sg66
I0
sg67
I3
ssI3
(dp947
g65
I6
sg66
I0
sg67
I8
ssI4
(dp948
g65
I6
sg66
I0
sg67
I9
ssI6
(dp949
g65
I5
sg66
I0
sg67
I8
ssI7
(dp950
g65
I7
sg66
I0
sg67
I4
ssI8
(dp951
g65
I8
sg66
I0
sg67
I3
ssI10
(dp952
g65
I6
sg66
I0
sg67
I2
ssI11
(dp953
g65
I8
sg66
I0
sg67
I6
ssI13
(dp954
g65
I7
sg66
I0
sg67
I9
ssI15
(dp955
g65
I8
sg66
I0
sg67
I10
ssI16
(dp956
g65
I6
sg66
I0
sg67
I6
ssI18
(dp957
g65
I8
sg66
I0
sg67
I5
ssI20
(dp958
g65
I5
sg66
I0
sg67
I1
ssI22
(dp959
g65
I8
sg66
I0
sg67
I3
ssI23
(dp960
g65
I6
sg66
I0
sg67
I0
ssI27
(dp961
g65
I5
sg66
I0
sg67
I9
ssI29
(dp962
g65
I7
sg66
I0
sg67
I6
ssI30
(dp963
g65
I8
sg66
I0
sg67
I4
ssI31
(dp964
g65
I6
sg66
I0
sg67
I2
ssI32
(dp965
g65
I7
sg66
I0
sg67
I0
ssI33
(dp966
g65
I6
sg66
I0
sg67
I10
ssI38
(dp967
g65
I8
sg66
I0
sg67
I3
ssI40
(dp968
g65
I6
sg66
I0
sg67
I9
ssI41
(dp969
g65
I5
sg66
I0
sg67
I8
ssI43
(dp970
g65
I6
sg66
I0
sg67
I7
ssI45
(dp971
g65
I8
sg66
I0
sg67
I2
ssI46
(dp972
g65
I8
sg66
I0
sg67
I7
ssI49
(dp973
g65
I5
sg66
I0
sg67
I9
sssI37
(dp974
I3
(dp975
g65
I6
sg66
I0
sg67
I3
ssI4
(dp976
g65
I6
sg66
I0
sg67
I7
ssI6
(dp977
g65
I8
sg66
I0
sg67
I8
ssI9
(dp978
g65
I7
sg66
I0
sg67
I2
ssI11
(dp979
g65
I5
sg66
I0
sg67
I4
ssI12
(dp980
g65
I7
sg66
I0
sg67
I3
ssI13
(dp981
g65
I6
sg66
I0
sg67
I6
ssI16
(dp982
g65
I6
sg66
I0
sg67
I4
ssI17
(dp983
g65
I8
sg66
I0
sg67
I1
ssI20
(dp984
g65
I8
sg66
I0
sg67
I3
ssI21
(dp985
g65
I7
sg66
I0
sg67
I1
ssI24
(dp986
g65
I6
sg66
I0
sg67
I9
ssI26
(dp987
g65
I6
sg66
I0
sg67
I6
ssI28
(dp988
g65
I7
sg66
I0
sg67
I8
ssI29
(dp989
g65
I5
sg66
I0
sg67
I3
ssI30
(dp990
g65
I5
sg66
I0
sg67
I0
ssI31
(dp991
g65
I6
sg66
I0
sg67
I2
ssI34
(dp992
g65
I5
sg66
I0
sg67
I6
ssI35
(dp993
g65
I7
sg66
I0
sg67
I7
ssI36
(dp994
g65
I7
sg66
I0
sg67
I6
ssI38
(dp995
g65
I5
sg66
I0
sg67
I6
ssI39
(dp996
g65
I7
sg66
I0
sg67
I1
ssI45
(dp997
g65
I6
sg66
I0
sg67
I7
ssI46
(dp998
g65
I5
sg66
I0
sg67
I7
ssI50
(dp999
g65
I8
sg66
I0
sg67
I6
sssI38
(dp1000
I3
(dp1001
g65
I6
sg66
I0
sg67
I7
ssI5
(dp1002
g65
I8
sg66
I0
sg67
I5
ssI7
(dp1003
g65
I5
sg66
I0
sg67
I6
ssI9
(dp1004
g65
I5
sg66
I0
sg67
I4
ssI10
(dp1005
g65
I8
sg66
I0
sg67
I3
ssI11
(dp1006
g65
I8
sg66
I0
sg67
I4
ssI12
(dp1007
g65
I8
sg66
I0
sg67
I2
ssI15
(dp1008
g65
I8
sg66
I0
sg67
I6
ssI16
(dp1009
g65
I8
sg66
I0
sg67
I7
ssI17
(dp1010
g65
I8
sg66
I0
sg67
I0
ssI20
(dp1011
g65
I5
sg66
I0
sg67
I5
ssI22
(dp1012
g65
I5
sg66
I0
sg67
I2
ssI23
(dp1013
g65
I5
sg66
I0
sg67
I6
ssI24
(dp1014
g65
I8
sg66
I0
sg67
I4
ssI25
(dp1015
g65
I5
sg66
I0
sg67
I6
ssI31
(dp1016
g65
I7
sg66
I0
sg67
I9
ssI33
(dp1017
g65
I5
sg66
I0
sg67
I8
ssI34
(dp1018
g65
I8
sg66
I0
sg67
I3
ssI35
(dp1019
g65
I8
sg66
I0
sg67
I2
ssI39
(dp1020
g65
I5
sg66
I0
sg67
I6
ssI41
(dp1021
g65
I6
sg66
I0
sg67
I4
ssI45
(dp1022
g65
I6
sg66
I0
sg67
I9
ssI46
(dp1023
g65
I6
sg66
I0
sg67
I3
sssI39
(dp1024
I1
(dp1025
g65
I6
sg66
I0
sg67
I9
ssI3
(dp1026
g65
I8
sg66
I0
sg67
I6
ssI4
(dp1027
g65
I7
sg66
I0
sg67
I4
ssI5
(dp1028
g65
I6
sg66
I0
sg67
I1
ssI7
(dp1029
g65
I8
sg66
I0
sg67
I0
ssI9
(dp1030
g65
I6
sg66
I0
sg67
I2
ssI13
(dp1031
g65
I8
sg66
I0
sg67
I8
ssI15
(dp1032
g65
I8
sg66
I0
sg67
I0
ssI17
(dp1033
g65
I8
sg66
I0
sg67
I7
ssI18
(dp1034
g65
I5
sg66
I0
sg67
I0
ssI24
(dp1035
g65
I8
sg66
I0
sg67
I6
ssI26
(dp1036
g65
I8
sg66
I0
sg67
I5
ssI30
(dp1037
g65
I8
sg66
I0
sg67
I3
ssI31
(dp1038
g65
I8
sg66
I0
sg67
I0
ssI32
(dp1039
g65
I8
sg66
I0
sg67
I9
ssI33
(dp1040
g65
I7
sg66
I0
sg67
I9
ssI34
(dp1041
g65
I6
sg66
I0
sg67
I5
ssI36
(dp1042
g65
I6
sg66
I0
sg67
I6
ssI38
(dp1043
g65
I6
sg66
I0
sg67
I6
ssI42
(dp1044
g65
I7
sg66
I0
sg67
I2
ssI44
(dp1045
g65
I6
sg66
I0
sg67
I10
ssI49
(dp1046
g65
I7
sg66
I0
sg67
I8
ssI50
(dp1047
g65
I8
sg66
I0
sg67
I2
sssI40
(dp1048
I2
(dp1049
g65
I5
sg66
I0
sg67
I6
ssI4
(dp1050
g65
I8
sg66
I0
sg67
I7
ssI7
(dp1051
g65
I6
sg66
I0
sg67
I9
ssI8
(dp1052
g65
I7
sg66
I0
sg67
I6
ssI9
(dp1053
g65
I7
sg66
I0
sg67
I7
ssI10
(dp1054
g65
I5
sg66
I0
sg67
I0
ssI15
(dp1055
g65
I6
sg66
I0
sg67
I5
ssI16
(dp1056
g65
I6
sg66
I0
sg67
I0
ssI17
(dp1057
g65
I7
sg66
I0
sg67
I3
ssI18
(dp1058
g65
I7
sg66
I0
sg67
I2
ssI20
(dp1059
g65
I8
sg66
I0
sg67
I7
ssI21
(dp1060
g65
I5
sg66
I0
sg67
I5
ssI22
(dp1061
g65
I6
sg66
I0
sg67
I9
ssI27
(dp1062
g65
I6
sg66
I0
sg67
I0
ssI29
(dp1063
g65
I7
sg66
I0
sg67
I3
ssI30
(dp1064
g65
I8
sg66
I0
sg67
I9
ssI32
(dp1065
g65
I5
sg66
I0
sg67
I0
ssI33
(dp1066
g65
I5
sg66
I0
sg67
I0
ssI35
(dp1067
g65
I7
sg66
I0
sg67
I9
ssI36
(dp1068
g65
I8
sg66
I0
sg67
I0
ssI37
(dp1069
g65
I5
sg66
I0
sg67
I8
ssI39
(dp1070
g65
I5
sg66
I0
sg67
I3
ssI41
(dp1071
g65
I6
sg66
I0
sg67
I8
ssI42
(dp1072
g65
I8
sg66
I0
sg67
I3
ssI43
(dp1073
g65
I7
sg66
I0
sg67
I5
ssI44
(dp1074
g65
I6
sg66
I0
sg67
I2
ssI46
(dp1075
g65
I7
sg66
I0
sg67
I6
ssI48
(dp1076
g65
I8
sg66
I0
sg67
I3
ssI49
(dp1077
g65
I7
sg66
I0
sg67
I8
ssI50
(dp1078
g65
I7
sg66
I0
sg67
I9
sssI41
(dp1079
I2
(dp1080
g65
I6
sg66
I0
sg67
I0
ssI3
(dp1081
g65
I5
sg66
I0
sg67
I0
ssI36
(dp1082
g65
I8
sg66
I0
sg67
I9
ssI6
(dp1083
g65
I6
sg66
I0
sg67
I2
ssI40
(dp1084
g65
I6
sg66
I0
sg67
I4
ssI15
(dp1085
g65
I8
sg66
I0
sg67
I3
ssI10
(dp1086
g65
I8
sg66
I0
sg67
I7
ssI43
(dp1087
g65
I7
sg66
I0
sg67
I5
ssI12
(dp1088
g65
I5
sg66
I0
sg67
I6
ssI45
(dp1089
g65
I6
sg66
I0
sg67
I4
ssI47
(dp1090
g65
I7
sg66
I0
sg67
I0
ssI16
(dp1091
g65
I6
sg66
I0
sg67
I8
ssI8
(dp1092
g65
I7
sg66
I0
sg67
I3
ssI18
(dp1093
g65
I8
sg66
I0
sg67
I10
ssI19
(dp1094
g65
I6
sg66
I0
sg67
I4
ssI21
(dp1095
g65
I8
sg66
I0
sg67
I5
ssI22
(dp1096
g65
I5
sg66
I0
sg67
I4
ssI24
(dp1097
g65
I7
sg66
I0
sg67
I6
ssI25
(dp1098
g65
I8
sg66
I0
sg67
I2
ssI27
(dp1099
g65
I6
sg66
I0
sg67
I1
ssI30
(dp1100
g65
I8
sg66
I0
sg67
I8
sssI42
(dp1101
I1
(dp1102
g65
I6
sg66
I0
sg67
I1
ssI4
(dp1103
g65
I5
sg66
I0
sg67
I9
ssI6
(dp1104
g65
I6
sg66
I0
sg67
I4
ssI13
(dp1105
g65
I8
sg66
I0
sg67
I7
ssI15
(dp1106
g65
I6
sg66
I0
sg67
I4
ssI16
(dp1107
g65
I6
sg66
I0
sg67
I4
ssI17
(dp1108
g65
I5
sg66
I0
sg67
I5
ssI20
(dp1109
g65
I7
sg66
I0
sg67
I9
ssI21
(dp1110
g65
I5
sg66
I0
sg67
I5
ssI23
(dp1111
g65
I6
sg66
I0
sg67
I8
ssI25
(dp1112
g65
I7
sg66
I0
sg67
I10
ssI28
(dp1113
g65
I5
sg66
I0
sg67
I1
ssI29
(dp1114
g65
I8
sg66
I0
sg67
I9
ssI35
(dp1115
g65
I8
sg66
I0
sg67
I7
ssI37
(dp1116
g65
I5
sg66
I0
sg67
I6
ssI38
(dp1117
g65
I8
sg66
I0
sg67
I5
ssI40
(dp1118
g65
I8
sg66
I0
sg67
I2
ssI41
(dp1119
g65
I8
sg66
I0
sg67
I9
ssI43
(dp1120
g65
I8
sg66
I0
sg67
I5
ssI44
(dp1121
g65
I7
sg66
I0
sg67
I5
ssI46
(dp1122
g65
I7
sg66
I0
sg67
I10
ssI47
(dp1123
g65
I6
sg66
I0
sg67
I4
ssI49
(dp1124
g65
I8
sg66
I0
sg67
I7
sssI43
(dp1125
I1
(dp1126
g65
I7
sg66
I0
sg67
I9
ssI3
(dp1127
g65
I6
sg66
I0
sg67
I0
ssI6
(dp1128
g65
I8
sg66
I0
sg67
I5
ssI8
(dp1129
g65
I6
sg66
I0
sg67
I5
ssI9
(dp1130
g65
I6
sg66
I0
sg67
I7
ssI10
(dp1131
g65
I5
sg66
I0
sg67
I6
ssI11
(dp1132
g65
I6
sg66
I0
sg67
I10
ssI14
(dp1133
g65
I6
sg66
I0
sg67
I8
ssI15
(dp1134
g65
I5
sg66
I0
sg67
I5
ssI17
(dp1135
g65
I8
sg66
I0
sg67
I7
ssI20
(dp1136
g65
I5
sg66
I0
sg67
I0
ssI21
(dp1137
g65
I5
sg66
I0
sg67
I3
ssI24
(dp1138
g65
I5
sg66
I0
sg67
I0
ssI25
(dp1139
g65
I5
sg66
I0
sg67
I3
ssI26
(dp1140
g65
I6
sg66
I0
sg67
I0
ssI28
(dp1141
g65
I7
sg66
I0
sg67
I0
ssI32
(dp1142
g65
I8
sg66
I0
sg67
I1
ssI37
(dp1143
g65
I8
sg66
I0
sg67
I7
ssI38
(dp1144
g65
I8
sg66
I0
sg67
I1
ssI39
(dp1145
g65
I8
sg66
I0
sg67
I1
ssI40
(dp1146
g65
I6
sg66
I0
sg67
I10
ssI41
(dp1147
g65
I6
sg66
I0
sg67
I4
ssI44
(dp1148
g65
I7
sg66
I0
sg67
I5
ssI45
(dp1149
g65
I7
sg66
I0
sg67
I0
ssI49
(dp1150
g65
I8
sg66
I0
sg67
I3
ssI50
(dp1151
g65
I5
sg66
I0
sg67
I0
sssI44
(dp1152
I1
(dp1153
g65
I5
sg66
I0
sg67
I0
ssI6
(dp1154
g65
I6
sg66
I0
sg67
I0
ssI7
(dp1155
g65
I8
sg66
I0
sg67
I3
ssI9
(dp1156
g65
I8
sg66
I0
sg67
I3
ssI12
(dp1157
g65
I5
sg66
I0
sg67
I7
ssI13
(dp1158
g65
I8
sg66
I0
sg67
I5
ssI14
(dp1159
g65
I7
sg66
I0
sg67
I0
ssI15
(dp1160
g65
I8
sg66
I0
sg67
I1
ssI17
(dp1161
g65
I5
sg66
I0
sg67
I0
ssI18
(dp1162
g65
I6
sg66
I0
sg67
I0
ssI19
(dp1163
g65
I7
sg66
I0
sg67
I9
ssI23
(dp1164
g65
I5
sg66
I0
sg67
I9
ssI26
(dp1165
g65
I7
sg66
I0
sg67
I6
ssI30
(dp1166
g65
I8
sg66
I0
sg67
I2
ssI31
(dp1167
g65
I7
sg66
I0
sg67
I3
ssI33
(dp1168
g65
I5
sg66
I0
sg67
I2
ssI34
(dp1169
g65
I8
sg66
I0
sg67
I5
ssI35
(dp1170
g65
I8
sg66
I0
sg67
I5
ssI37
(dp1171
g65
I6
sg66
I0
sg67
I9
ssI38
(dp1172
g65
I5
sg66
I0
sg67
I6
ssI39
(dp1173
g65
I6
sg66
I0
sg67
I0
ssI42
(dp1174
g65
I8
sg66
I0
sg67
I3
ssI45
(dp1175
g65
I6
sg66
I0
sg67
I8
ssI47
(dp1176
g65
I6
sg66
I0
sg67
I1
ssI48
(dp1177
g65
I6
sg66
I0
sg67
I10
ssI49
(dp1178
g65
I5
sg66
I0
sg67
I0
sssI45
(dp1179
I1
(dp1180
g65
I5
sg66
I0
sg67
I9
ssI3
(dp1181
g65
I8
sg66
I0
sg67
I10
ssI4
(dp1182
g65
I7
sg66
I0
sg67
I5
ssI6
(dp1183
g65
I6
sg66
I0
sg67
I4
ssI7
(dp1184
g65
I7
sg66
I0
sg67
I3
ssI8
(dp1185
g65
I5
sg66
I0
sg67
I8
ssI9
(dp1186
g65
I8
sg66
I0
sg67
I7
ssI13
(dp1187
g65
I6
sg66
I0
sg67
I8
ssI14
(dp1188
g65
I7
sg66
I0
sg67
I1
ssI17
(dp1189
g65
I6
sg66
I0
sg67
I9
ssI18
(dp1190
g65
I6
sg66
I0
sg67
I0
ssI20
(dp1191
g65
I6
sg66
I0
sg67
I5
ssI21
(dp1192
g65
I6
sg66
I0
sg67
I4
ssI25
(dp1193
g65
I8
sg66
I0
sg67
I2
ssI27
(dp1194
g65
I8
sg66
I0
sg67
I3
ssI28
(dp1195
g65
I5
sg66
I0
sg67
I1
ssI29
(dp1196
g65
I5
sg66
I0
sg67
I5
ssI30
(dp1197
g65
I5
sg66
I0
sg67
I5
ssI32
(dp1198
g65
I7
sg66
I0
sg67
I3
ssI35
(dp1199
g65
I6
sg66
I0
sg67
I1
ssI36
(dp1200
g65
I7
sg66
I0
sg67
I1
ssI38
(dp1201
g65
I8
sg66
I0
sg67
I0
ssI39
(dp1202
g65
I8
sg66
I0
sg67
I3
ssI40
(dp1203
g65
I7
sg66
I0
sg67
I5
ssI42
(dp1204
g65
I5
sg66
I0
sg67
I8
ssI43
(dp1205
g65
I6
sg66
I0
sg67
I9
ssI49
(dp1206
g65
I7
sg66
I0
sg67
I2
sssI46
(dp1207
I1
(dp1208
g65
I5
sg66
I0
sg67
I0
ssI3
(dp1209
g65
I5
sg66
I0
sg67
I0
ssI5
(dp1210
g65
I5
sg66
I0
sg67
I2
ssI6
(dp1211
g65
I6
sg66
I0
sg67
I5
ssI9
(dp1212
g65
I6
sg66
I0
sg67
I3
ssI10
(dp1213
g65
I8
sg66
I0
sg67
I10
ssI11
(dp1214
g65
I6
sg66
I0
sg67
I1
ssI14
(dp1215
g65
I6
sg66
I0
sg67
I8
ssI15
(dp1216
g65
I6
sg66
I0
sg67
I9
ssI17
(dp1217
g65
I5
sg66
I0
sg67
I9
ssI19
(dp1218
g65
I7
sg66
I0
sg67
I0
ssI20
(dp1219
g65
I5
sg66
I0
sg67
I0
ssI21
(dp1220
g65
I7
sg66
I0
sg67
I0
ssI26
(dp1221
g65
I6
sg66
I0
sg67
I6
ssI27
(dp1222
g65
I5
sg66
I0
sg67
I6
ssI29
(dp1223
g65
I5
sg66
I0
sg67
I5
ssI31
(dp1224
g65
I5
sg66
I0
sg67
I1
ssI40
(dp1225
g65
I8
sg66
I0
sg67
I4
ssI41
(dp1226
g65
I7
sg66
I0
sg67
I9
ssI42
(dp1227
g65
I7
sg66
I0
sg67
I1
ssI43
(dp1228
g65
I7
sg66
I0
sg67
I3
ssI44
(dp1229
g65
I8
sg66
I0
sg67
I5
ssI48
(dp1230
g65
I5
sg66
I0
sg67
I3
ssI50
(dp1231
g65
I8
sg66
I0
sg67
I2
sssI47
(dp1232
I3
(dp1233
g65
I7
sg66
I0
sg67
I4
ssI4
(dp1234
g65
I7
sg66
I0
sg67
I2
ssI5
(dp1235
g65
I6
sg66
I0
sg67
I2
ssI8
(dp1236
g65
I7
sg66
I0
sg67
I1
ssI10
(dp1237
g65
I5
sg66
I0
sg67
I1
ssI11
(dp1238
g65
I6
sg66
I0
sg67
I9
ssI12
(dp1239
g65
I8
sg66
I0
sg67
I7
ssI13
(dp1240
g65
I5
sg66
I0
sg67
I0
ssI14
(dp1241
g65
I7
sg66
I0
sg67
I8
ssI16
(dp1242
g65
I8
sg66
I0
sg67
I10
ssI22
(dp1243
g65
I8
sg66
I0
sg67
I7
ssI23
(dp1244
g65
I7
sg66
I0
sg67
I6
ssI25
(dp1245
g65
I8
sg66
I0
sg67
I7
ssI28
(dp1246
g65
I5
sg66
I0
sg67
I0
ssI32
(dp1247
g65
I5
sg66
I0
sg67
I1
ssI35
(dp1248
g65
I6
sg66
I0
sg67
I9
ssI36
(dp1249
g65
I7
sg66
I0
sg67
I7
ssI37
(dp1250
g65
I7
sg66
I0
sg67
I9
ssI38
(dp1251
g65
I5
sg66
I0
sg67
I2
ssI40
(dp1252
g65
I7
sg66
I0
sg67
I7
ssI41
(dp1253
g65
I5
sg66
I0
sg67
I4
ssI43
(dp1254
g65
I8
sg66
I0
sg67
I0
ssI44
(dp1255
g65
I5
sg66
I0
sg67
I4
ssI46
(dp1256
g65
I6
sg66
I0
sg67
I2
ssI48
(dp1257
g65
I6
sg66
I0
sg67
I4
ssI49
(dp1258
g65
I7
sg66
I0
sg67
I10
ssI50
(dp1259
g65
I8
sg66
I0
sg67
I6
sssI48
(dp1260
I1
(dp1261
g65
I7
sg66
I0
sg67
I3
ssI2
(dp1262
g65
I7
sg66
I0
sg67
I9
ssI3
(dp1263
g65
I7
sg66
I0
sg67
I2
ssI4
(dp1264
g65
I6
sg66
I0
sg67
I0
ssI5
(dp1265
g65
I5
sg66
I0
sg67
I0
ssI8
(dp1266
g65
I8
sg66
I0
sg67
I7
ssI9
(dp1267
g65
I6
sg66
I0
sg67
I7
ssI12
(dp1268
g65
I5
sg66
I0
sg67
I2
ssI14
(dp1269
g65
I6
sg66
I0
sg67
I3
ssI15
(dp1270
g65
I5
sg66
I0
sg67
I3
ssI18
(dp1271
g65
I8
sg66
I0
sg67
I9
ssI19
(dp1272
g65
I8
sg66
I0
sg67
I6
ssI23
(dp1273
g65
I5
sg66
I0
sg67
I10
ssI24
(dp1274
g65
I7
sg66
I0
sg67
I0
ssI28
(dp1275
g65
I5
sg66
I0
sg67
I4
ssI29
(dp1276
g65
I6
sg66
I0
sg67
I4
ssI34
(dp1277
g65
I7
sg66
I0
sg67
I0
ssI38
(dp1278
g65
I5
sg66
I0
sg67
I1
ssI39
(dp1279
g65
I5
sg66
I0
sg67
I7
ssI41
(dp1280
g65
I5
sg66
I0
sg67
I6
ssI42
(dp1281
g65
I5
sg66
I0
sg67
I4
ssI45
(dp1282
g65
I5
sg66
I0
sg67
I9
ssI49
(dp1283
g65
I5
sg66
I0
sg67
I2
ssI50
(dp1284
g65
I6
sg66
I0
sg67
I1
sssI49
(dp1285
I6
(dp1286
g65
I8
sg66
I0
sg67
I3
ssI7
(dp1287
g65
I7
sg66
I0
sg67
I1
ssI9
(dp1288
g65
I8
sg66
I0
sg67
I7
ssI11
(dp1289
g65
I7
sg66
I0
sg67
I6
ssI12
(dp1290
g65
I8
sg66
I0
sg67
I10
ssI15
(dp1291
g65
I6
sg66
I0
sg67
I3
ssI18
(dp1292
g65
I6
sg66
I0
sg67
I0
ssI21
(dp1293
g65
I6
sg66
I0
sg67
I10
ssI22
(dp1294
g65
I8
sg66
I0
sg67
I6
ssI24
(dp1295
g65
I7
sg66
I0
sg67
I5
ssI25
(dp1296
g65
I8
sg66
I0
sg67
I10
ssI26
(dp1297
g65
I7
sg66
I0
sg67
I5
ssI30
(dp1298
g65
I7
sg66
I0
sg67
I5
ssI31
(dp1299
g65
I6
sg66
I0
sg67
I9
ssI32
(dp1300
g65
I5
sg66
I0
sg67
I3
ssI35
(dp1301
g65
I8
sg66
I0
sg67
I3
ssI36
(dp1302
g65
I8
sg66
I0
sg67
I9
ssI37
(dp1303
g65
I6
sg66
I0
sg67
I0
ssI38
(dp1304
g65
I5
sg66
I0
sg67
I2
ssI40
(dp1305
g65
I7
sg66
I0
sg67
I8
ssI41
(dp1306
g65
I8
sg66
I0
sg67
I9
ssI43
(dp1307
g65
I5
sg66
I0
sg67
I1
ssI46
(dp1308
g65
I5
sg66
I0
sg67
I9
ssI47
(dp1309
g65
I5
sg66
I0
sg67
I10
ssI50
(dp1310
g65
I8
sg66
I0
sg67
I6
sssI50
(dp1311
I1
(dp1312
g65
I6
sg66
I0
sg67
I3
ssI3
(dp1313
g65
I5
sg66
I0
sg67
I9
ssI5
(dp1314
g65
I7
sg66
I0
sg67
I7
ssI6
(dp1315
g65
I7
sg66
I0
sg67
I8
ssI7
(dp1316
g65
I6
sg66
I0
sg67
I7
ssI10
(dp1317
g65
I6
sg66
I0
sg67
I9
ssI11
(dp1318
g65
I8
sg66
I0
sg67
I9
ssI12
(dp1319
g65
I5
sg66
I0
sg67
I7
ssI13
(dp1320
g65
I8
sg66
I0
sg67
I3
ssI14
(dp1321
g65
I8
sg66
I0
sg67
I2
ssI17
(dp1322
g65
I8
sg66
I0
sg67
I8
ssI19
(dp1323
g65
I7
sg66
I0
sg67
I9
ssI20
(dp1324
g65
I7
sg66
I0
sg67
I10
ssI21
(dp1325
g65
I8
sg66
I0
sg67
I9
ssI22
(dp1326
g65
I8
sg66
I0
sg67
I6
ssI23
(dp1327
g65
I5
sg66
I0
sg67
I2
ssI24
(dp1328
g65
I6
sg66
I0
sg67
I5
ssI26
(dp1329
g65
I7
sg66
I0
sg67
I2
ssI27
(dp1330
g65
I5
sg66
I0
sg67
I0
ssI28
(dp1331
g65
I5
sg66
I0
sg67
I4
ssI29
(dp1332
g65
I5
sg66
I0
sg67
I8
ssI30
(dp1333
g65
I5
sg66
I0
sg67
I1
ssI32
(dp1334
g65
I5
sg66
I0
sg67
I10
ssI36
(dp1335
g65
I5
sg66
I0
sg67
I3
ssI38
(dp1336
g65
I5
sg66
I0
sg67
I2
ssI40
(dp1337
g65
I5
sg66
I0
sg67
I7
ssI46
(dp1338
g65
I7
sg66
I0
sg67
I3
ssI47
(dp1339
g65
I5
sg66
I0
sg67
I2
ssI48
(dp1340
g65
I6
sg66
I0
sg67
I3
ssssS'edge'
p1341
g62
sS'pred'
p1342
(dp1343
I1
(dp1344
I34
g891
sI39
g1025
sI8
g231
sI44
g1153
sI42
g1102
sI43
g1126
sI12
g337
sI2
g88
sI14
g390
sI45
g1180
sI48
g1261
sI50
g1312
sI19
g523
sI18
g498
sI21
g574
sI9
g261
sI7
g204
sI25
g684
sI13
g366
sI46
g1208
ssI2
(dp1345
I1
g64
sI6
g184
sI7
g205
sI8
g232
sI11
g312
sI12
g338
sI13
g367
sI14
g391
sI17
g470
sI19
g524
sI20
g549
sI21
g575
sI23
g630
sI26
g704
sI27
g730
sI29
g780
sI30
g804
sI31
g829
sI34
g892
sI35
g916
sI36
g946
sI40
g1049
sI41
g1080
sI48
g1262
ssI3
(dp1346
I9
g262
sI10
g288
sI11
g313
sI12
g339
sI13
g368
sI14
g392
sI17
g471
sI19
g525
sI20
g550
sI24
g658
sI25
g685
sI27
g731
sI33
g871
sI35
g917
sI36
g947
sI37
g975
sI38
g1001
sI39
g1026
sI41
g1081
sI43
g1127
sI45
g1181
sI46
g1209
sI47
g1233
sI48
g1263
sI50
g1313
ssI4
(dp1347
I1
g69
sI2
g89
sI7
g206
sI8
g233
sI9
g263
sI11
g314
sI13
g369
sI14
g393
sI18
g499
sI19
g526
sI22
g600
sI24
g659
sI26
g705
sI27
g732
sI30
g805
sI31
g830
sI34
g893
sI35
g918
sI36
g948
sI37
g976
sI39
g1027
sI40
g1050
sI42
g1103
sI45
g1182
sI47
g1234
sI48
g1264
ssI5
(dp1348
I1
g70
sI2
g90
sI11
g315
sI4
g139
sI38
g1002
sI6
g185
sI48
g1265
sI10
g289
sI7
g207
sI12
g340
sI14
g394
sI47
g1235
sI16
g445
sI17
g472
sI50
g1314
sI20
g551
sI46
g1210
sI22
g601
sI39
g1028
sI27
g733
sI30
g806
ssI6
(dp1349
I4
g140
sI7
g208
sI9
g264
sI11
g316
sI12
g341
sI13
g370
sI21
g576
sI22
g602
sI23
g631
sI27
g734
sI28
g764
sI29
g781
sI30
g807
sI33
g873
sI34
g894
sI35
g919
sI36
g949
sI37
g977
sI41
g1083
sI42
g1104
sI43
g1128
sI44
g1154
sI45
g1183
sI46
g1211
sI49
g1286
sI50
g1315
ssI7
(dp1350
I1
g71
sI2
g91
sI3
g111
sI5
g165
sI6
g190
sI13
g371
sI14
g395
sI15
g419
sI16
g446
sI19
g527
sI20
g552
sI24
g660
sI25
g700
sI28
g765
sI30
g808
sI33
g874
sI35
g920
sI36
g950
sI38
g1003
sI39
g1029
sI40
g1051
sI44
g1155
sI45
g1184
sI49
g1287
sI50
g1316
ssI8
(dp1351
I2
g92
sI7
g209
sI10
g290
sI13
g372
sI15
g420
sI18
g500
sI19
g528
sI20
g553
sI23
g632
sI24
g661
sI27
g735
sI28
g766
sI31
g831
sI32
g859
sI33
g875
sI34
g895
sI35
g921
sI36
g951
sI40
g1052
sI41
g1092
sI43
g1129
sI45
g1185
sI47
g1236
sI48
g1266
ssI9
(dp1352
I1
g83
sI3
g112
sI6
g188
sI10
g291
sI11
g317
sI12
g342
sI13
g373
sI14
g396
sI16
g447
sI17
g473
sI18
g501
sI19
g529
sI23
g633
sI25
g689
sI34
g896
sI35
g922
sI37
g978
sI38
g1004
sI39
g1030
sI40
g1053
sI43
g1130
sI44
g1156
sI45
g1186
sI46
g1212
sI48
g1267
sI49
g1288
ssI10
(dp1353
I1
g74
sI3
g113
sI5
g168
sI7
g210
sI8
g234
sI9
g265
sI13
g374
sI15
g421
sI18
g502
sI19
g530
sI23
g634
sI26
g706
sI28
g767
sI31
g832
sI33
g887
sI35
g923
sI36
g952
sI38
g1005
sI40
g1054
sI41
g1086
sI43
g1131
sI46
g1213
sI47
g1237
sI50
g1317
ssI11
(dp1354
I3
g114
sI4
g141
sI8
g235
sI9
g266
sI10
g292
sI12
g343
sI19
g531
sI21
g577
sI22
g603
sI26
g707
sI28
g762
sI29
g782
sI30
g809
sI31
g833
sI32
g860
sI34
g897
sI35
g924
sI36
g953
sI37
g979
sI38
g1006
sI43
g1132
sI46
g1214
sI47
g1238
sI49
g1289
sI50
g1318
ssI12
(dp1355
I1
g75
sI4
g142
sI6
g191
sI7
g211
sI9
g267
sI11
g318
sI14
g397
sI16
g448
sI17
g474
sI18
g503
sI19
g532
sI22
g604
sI27
g736
sI31
g834
sI37
g980
sI38
g1007
sI41
g1088
sI44
g1157
sI47
g1239
sI48
g1268
sI49
g1290
sI50
g1319
ssI13
(dp1356
I3
g115
sI4
g143
sI5
g171
sI7
g212
sI10
g293
sI11
g319
sI12
g344
sI14
g398
sI18
g504
sI20
g554
sI21
g578
sI22
g605
sI27
g737
sI28
g770
sI29
g783
sI34
g898
sI35
g925
sI36
g954
sI37
g981
sI39
g1031
sI42
g1105
sI44
g1158
sI45
g1187
sI47
g1240
sI50
g1320
ssI14
(dp1357
I1
g76
sI2
g93
sI6
g196
sI7
g213
sI9
g268
sI11
g320
sI12
g345
sI16
g449
sI17
g475
sI20
g555
sI21
g579
sI22
g606
sI24
g662
sI26
g708
sI27
g738
sI29
g784
sI30
g810
sI31
g835
sI32
g862
sI35
g926
sI43
g1133
sI44
g1159
sI45
g1188
sI46
g1215
sI47
g1241
sI48
g1269
sI50
g1321
ssI15
(dp1358
I2
g94
sI5
g173
sI8
g236
sI10
g294
sI12
g346
sI16
g450
sI17
g476
sI21
g580
sI22
g607
sI23
g635
sI26
g709
sI28
g771
sI29
g785
sI30
g811
sI36
g955
sI38
g1008
sI39
g1032
sI40
g1055
sI41
g1085
sI42
g1106
sI43
g1134
sI44
g1160
sI46
g1216
sI48
g1270
sI49
g1291
ssI16
(dp1359
I3
g116
sI36
g956
sI37
g982
sI38
g1009
sI40
g1056
sI41
g1091
sI10
g295
sI13
g375
sI47
g1242
sI18
g505
sI19
g533
sI23
g636
sI24
g663
sI25
g694
sI26
g710
sI27
g739
sI42
g1107
sI30
g812
ssI17
(dp1360
I2
g95
sI3
g117
sI4
g144
sI6
g195
sI8
g237
sI9
g269
sI11
g321
sI13
g376
sI14
g399
sI20
g556
sI21
g581
sI23
g637
sI24
g664
sI29
g786
sI30
g813
sI31
g836
sI33
g881
sI34
g899
sI37
g983
sI38
g1010
sI39
g1033
sI40
g1057
sI42
g1108
sI43
g1135
sI44
g1161
sI45
g1189
sI46
g1217
sI50
g1322
ssI18
(dp1361
I1
g79
sI2
g96
sI3
g118
sI5
g174
sI8
g238
sI9
g270
sI10
g296
sI14
g400
sI15
g422
sI16
g451
sI17
g477
sI19
g534
sI22
g608
sI23
g638
sI25
g696
sI26
g711
sI27
g740
sI29
g787
sI30
g814
sI32
g865
sI34
g900
sI36
g957
sI39
g1034
sI40
g1058
sI41
g1093
sI44
g1162
sI45
g1190
sI48
g1271
sI49
g1292
ssI19
(dp1362
I1
g80
sI35
g927
sI4
g145
sI5
g175
sI33
g869
sI41
g1094
sI14
g401
sI11
g322
sI12
g347
sI13
g377
sI46
g1218
sI44
g1163
sI48
g1272
sI17
g478
sI18
g506
sI3
g119
sI21
g582
sI50
g1323
sI24
g665
ssI20
(dp1363
I1
g81
sI5
g176
sI8
g239
sI9
g271
sI10
g297
sI11
g323
sI14
g402
sI19
g535
sI23
g639
sI24
g666
sI25
g697
sI26
g712
sI27
g741
sI28
g772
sI29
g788
sI30
g815
sI31
g837
sI33
g883
sI36
g958
sI37
g984
sI38
g1011
sI40
g1059
sI42
g1109
sI43
g1136
sI45
g1191
sI46
g1219
sI50
g1324
ssI21
(dp1364
I3
g120
sI4
g146
sI7
g214
sI11
g324
sI12
g348
sI13
g378
sI14
g403
sI18
g507
sI19
g536
sI22
g609
sI25
g698
sI27
g742
sI28
g773
sI29
g789
sI30
g816
sI31
g838
sI34
g901
sI35
g928
sI37
g985
sI40
g1060
sI41
g1095
sI42
g1110
sI43
g1137
sI45
g1192
sI46
g1220
sI49
g1293
sI50
g1325
ssI22
(dp1365
I1
g82
sI3
g121
sI4
g147
sI6
g197
sI8
g240
sI9
g272
sI10
g298
sI13
g379
sI14
g404
sI15
g423
sI17
g479
sI23
g640
sI26
g713
sI28
g774
sI30
g817
sI36
g959
sI38
g1012
sI40
g1061
sI41
g1096
sI47
g1243
sI49
g1294
sI50
g1326
ssI23
(dp1366
I2
g97
sI3
g122
sI4
g148
sI6
g198
sI7
g215
sI8
g241
sI11
g325
sI12
g349
sI13
g380
sI14
g405
sI15
g424
sI17
g480
sI21
g583
sI22
g610
sI25
g699
sI26
g714
sI27
g743
sI30
g818
sI31
g839
sI34
g902
sI36
g960
sI38
g1013
sI42
g1111
sI44
g1164
sI47
g1244
sI48
g1273
sI50
g1327
ssI24
(dp1367
I8
g242
sI9
g273
sI11
g326
sI12
g350
sI14
g406
sI15
g425
sI16
g452
sI18
g508
sI19
g537
sI20
g557
sI21
g584
sI27
g744
sI30
g819
sI34
g903
sI35
g929
sI37
g986
sI38
g1014
sI39
g1035
sI41
g1097
sI43
g1138
sI48
g1274
sI49
g1295
sI50
g1328
ssI25
(dp1368
I2
g98
sI6
g199
sI7
g216
sI13
g381
sI14
g407
sI15
g426
sI17
g481
sI18
g509
sI20
g558
sI21
g585
sI22
g611
sI23
g641
sI24
g667
sI26
g715
sI27
g745
sI29
g790
sI31
g840
sI33
g884
sI34
g904
sI35
g930
sI38
g1015
sI41
g1098
sI42
g1112
sI43
g1139
sI45
g1193
sI47
g1245
sI49
g1296
ssI26
(dp1369
I1
g84
sI3
g123
sI5
g177
sI6
g200
sI8
g243
sI10
g299
sI16
g453
sI18
g510
sI20
g559
sI22
g612
sI23
g642
sI24
g668
sI25
g701
sI27
g746
sI30
g820
sI32
g866
sI33
g885
sI34
g905
sI35
g931
sI37
g987
sI39
g1036
sI43
g1140
sI44
g1165
sI46
g1221
sI49
g1297
sI50
g1329
ssI27
(dp1370
I2
g99
sI3
g124
sI8
g244
sI9
g274
sI12
g351
sI14
g408
sI15
g427
sI16
g454
sI17
g482
sI18
g511
sI19
g538
sI22
g613
sI24
g669
sI28
g775
sI29
g791
sI34
g906
sI35
g932
sI36
g961
sI40
g1062
sI41
g1099
sI45
g1194
sI46
g1222
sI50
g1330
ssI28
(dp1371
I1
g85
sI2
g100
sI3
g125
sI4
g149
sI5
g179
sI7
g217
sI8
g245
sI9
g275
sI10
g300
sI11
g327
sI12
g352
sI15
g428
sI16
g455
sI18
g512
sI20
g560
sI22
g614
sI23
g643
sI26
g716
sI31
g841
sI33
g886
sI35
g933
sI37
g988
sI42
g1113
sI43
g1141
sI45
g1195
sI47
g1246
sI48
g1275
sI50
g1331
ssI29
(dp1372
I3
g126
sI4
g150
sI5
g170
sI8
g246
sI9
g276
sI11
g328
sI12
g353
sI16
g456
sI17
g483
sI19
g539
sI23
g644
sI24
g670
sI25
g702
sI26
g717
sI27
g747
sI28
g776
sI30
g821
sI32
g867
sI33
g880
sI36
g962
sI37
g989
sI40
g1063
sI42
g1114
sI45
g1196
sI46
g1223
sI48
g1276
sI50
g1332
ssI30
(dp1373
I3
g127
sI4
g151
sI5
g181
sI6
g202
sI8
g247
sI9
g277
sI14
g409
sI15
g429
sI17
g484
sI18
g513
sI23
g645
sI28
g777
sI33
g888
sI35
g934
sI36
g963
sI37
g990
sI39
g1037
sI40
g1064
sI41
g1100
sI44
g1166
sI45
g1197
sI49
g1298
sI50
g1333
ssI31
(dp1374
I4
g152
sI7
g218
sI12
g354
sI15
g430
sI18
g514
sI19
g540
sI20
g561
sI21
g586
sI22
g615
sI23
g646
sI24
g671
sI26
g718
sI28
g778
sI33
g889
sI34
g907
sI36
g964
sI37
g991
sI38
g1016
sI39
g1038
sI44
g1167
sI46
g1224
sI49
g1299
ssI32
(dp1375
I3
g128
sI6
g183
sI7
g219
sI10
g301
sI13
g382
sI14
g410
sI16
g457
sI17
g485
sI18
g515
sI20
g562
sI21
g587
sI22
g616
sI23
g647
sI25
g683
sI29
g792
sI31
g842
sI34
g908
sI36
g965
sI39
g1039
sI40
g1065
sI43
g1142
sI45
g1198
sI47
g1247
sI49
g1300
sI50
g1334
ssI33
(dp1376
I36
g966
sI38
g1017
sI39
g1040
sI40
g1066
sI9
g278
sI8
g248
sI14
g411
sI15
g431
sI16
g458
sI17
g486
sI29
g793
sI20
g563
sI22
g617
sI26
g719
sI27
g748
sI28
g760
sI44
g1168
sI30
g822
ssI34
(dp1377
I3
g129
sI4
g153
sI5
g162
sI8
g249
sI10
g302
sI13
g383
sI17
g487
sI19
g541
sI20
g564
sI21
g588
sI26
g720
sI27
g749
sI28
g761
sI29
g794
sI31
g843
sI32
g855
sI33
g870
sI37
g992
sI38
g1018
sI39
g1041
sI44
g1169
sI48
g1277
ssI35
(dp1378
I1
g68
sI3
g130
sI7
g220
sI9
g279
sI12
g355
sI15
g432
sI16
g459
sI17
g488
sI18
g516
sI20
g565
sI22
g618
sI24
g672
sI26
g721
sI27
g750
sI29
g795
sI30
g823
sI31
g844
sI32
g856
sI33
g882
sI37
g993
sI38
g1019
sI40
g1067
sI42
g1115
sI44
g1170
sI45
g1199
sI47
g1248
sI49
g1301
ssI36
(dp1379
I2
g101
sI4
g154
sI5
g164
sI7
g221
sI10
g303
sI12
g356
sI15
g433
sI16
g460
sI17
g489
sI19
g542
sI21
g589
sI22
g619
sI24
g673
sI25
g686
sI27
g751
sI28
g763
sI33
g872
sI34
g909
sI35
g935
sI37
g994
sI39
g1042
sI40
g1068
sI41
g1082
sI45
g1200
sI47
g1249
sI49
g1302
sI50
g1335
ssI37
(dp1380
I32
g857
sI2
g102
sI35
g936
sI4
g155
sI49
g1303
sI40
g1069
sI42
g1116
sI43
g1143
sI44
g1171
sI14
g412
sI47
g1250
sI11
g329
sI17
g490
sI3
g131
sI20
g566
sI23
g648
sI25
g687
sI26
g722
sI27
g752
sI10
g304
ssI38
(dp1381
I2
g103
sI4
g156
sI6
g186
sI7
g222
sI9
g280
sI10
g305
sI11
g330
sI15
g434
sI19
g543
sI20
g567
sI22
g620
sI27
g753
sI30
g824
sI31
g845
sI32
g858
sI36
g967
sI37
g995
sI39
g1043
sI42
g1117
sI43
g1144
sI44
g1172
sI45
g1201
sI47
g1251
sI48
g1278
sI49
g1304
sI50
g1336
ssI39
(dp1382
I3
g132
sI4
g157
sI6
g187
sI7
g223
sI9
g281
sI10
g306
sI11
g331
sI12
g357
sI14
g413
sI15
g435
sI17
g491
sI18
g517
sI21
g590
sI22
g621
sI24
g674
sI25
g688
sI26
g723
sI31
g846
sI35
g937
sI37
g996
sI38
g1020
sI40
g1070
sI43
g1145
sI44
g1173
sI45
g1202
sI48
g1279
ssI40
(dp1383
I1
g72
sI2
g104
sI3
g133
sI5
g166
sI8
g250
sI10
g307
sI13
g384
sI15
g436
sI16
g461
sI17
g492
sI22
g622
sI23
g649
sI24
g675
sI26
g724
sI29
g796
sI32
g864
sI35
g938
sI36
g968
sI41
g1084
sI42
g1118
sI43
g1146
sI45
g1203
sI46
g1225
sI47
g1252
sI49
g1305
sI50
g1337
ssI41
(dp1384
I1
g73
sI2
g105
sI3
g134
sI5
g167
sI8
g251
sI9
g282
sI12
g358
sI13
g385
sI15
g437
sI18
g518
sI19
g544
sI20
g568
sI22
g623
sI23
g650
sI26
g725
sI27
g754
sI33
g876
sI34
g910
sI36
g969
sI38
g1021
sI40
g1071
sI42
g1119
sI43
g1147
sI46
g1226
sI47
g1253
sI48
g1280
sI49
g1306
ssI42
(dp1385
I33
g877
sI34
g911
sI48
g1281
sI5
g180
sI6
g189
sI7
g224
sI8
g252
sI1
g86
sI39
g1044
sI44
g1174
sI45
g1204
sI46
g1227
sI16
g462
sI40
g1072
sI21
g591
sI23
g651
sI24
g676
sI26
g726
sI29
g797
sI30
g825
sI31
g847
ssI43
(dp1386
I5
g169
sI7
g225
sI8
g253
sI9
g283
sI10
g308
sI11
g332
sI16
g463
sI17
g493
sI18
g519
sI21
g592
sI23
g652
sI24
g677
sI25
g690
sI26
g727
sI27
g755
sI28
g768
sI31
g848
sI33
g878
sI35
g939
sI36
g970
sI40
g1073
sI41
g1087
sI42
g1120
sI45
g1205
sI46
g1228
sI47
g1254
sI49
g1307
ssI44
(dp1387
I2
g106
sI3
g135
sI4
g158
sI6
g201
sI7
g226
sI8
g254
sI10
g309
sI12
g359
sI15
g438
sI16
g464
sI18
g520
sI19
g545
sI20
g569
sI21
g593
sI22
g624
sI23
g653
sI24
g678
sI25
g691
sI27
g756
sI28
g769
sI29
g798
sI31
g849
sI32
g861
sI34
g912
sI35
g940
sI39
g1045
sI40
g1074
sI42
g1121
sI43
g1148
sI46
g1229
sI47
g1255
ssI45
(dp1388
I2
g107
sI3
g136
sI7
g227
sI8
g255
sI11
g333
sI12
g360
sI13
g386
sI14
g414
sI15
g439
sI16
g465
sI20
g570
sI21
g594
sI22
g625
sI24
g679
sI29
g799
sI31
g850
sI33
g879
sI35
g941
sI36
g971
sI37
g997
sI38
g1022
sI41
g1089
sI43
g1149
sI44
g1175
sI48
g1282
ssI46
(dp1389
I2
g108
sI4
g159
sI5
g172
sI6
g192
sI9
g284
sI12
g361
sI14
g415
sI15
g440
sI16
g466
sI19
g546
sI21
g595
sI22
g626
sI23
g654
sI24
g680
sI25
g692
sI29
g800
sI30
g826
sI35
g942
sI36
g972
sI37
g998
sI38
g1023
sI40
g1075
sI42
g1122
sI47
g1256
sI49
g1308
sI50
g1338
ssI47
(dp1390
I32
g863
sI1
g77
sI2
g109
sI49
g1309
sI6
g193
sI7
g228
sI8
g256
sI44
g1176
sI42
g1123
sI12
g362
sI17
g494
sI50
g1339
sI21
g596
sI22
g627
sI41
g1090
sI25
g693
sI5
g178
sI29
g801
sI30
g827
sI31
g851
ssI48
(dp1391
I6
g194
sI8
g257
sI9
g285
sI10
g310
sI12
g363
sI13
g387
sI14
g416
sI15
g441
sI17
g495
sI19
g547
sI20
g571
sI21
g597
sI23
g655
sI24
g681
sI29
g802
sI31
g852
sI34
g913
sI40
g1076
sI44
g1177
sI46
g1230
sI47
g1257
sI50
g1340
ssI49
(dp1392
I1
g78
sI3
g137
sI7
g229
sI8
g258
sI11
g334
sI15
g442
sI16
g467
sI17
g496
sI21
g598
sI22
g628
sI23
g656
sI25
g695
sI27
g757
sI34
g914
sI35
g943
sI36
g973
sI39
g1046
sI40
g1077
sI42
g1124
sI43
g1150
sI44
g1178
sI45
g1206
sI47
g1258
sI48
g1283
ssI50
(dp1393
I4
g160
sI5
g163
sI8
g259
sI9
g286
sI11
g335
sI12
g364
sI13
g388
sI14
g417
sI15
g443
sI16
g468
sI18
g521
sI20
g572
sI26
g728
sI27
g758
sI31
g853
sI35
g944
sI37
g999
sI39
g1047
sI40
g1078
sI43
g1151
sI46
g1231
sI47
g1259
sI48
g1284
sI49
g1310
sssS'adj'
p1394
g62
sb.