ccopy_reg
_reconstructor
p1
(cnetworkx.classes.digraph
DiGraph
p2
c__builtin__
object
p3
NtRp4
(dp5
S'node'
p6
(dp7
I1
(dp8
S'demand'
p9
I9
ssI2
(dp10
g9
I3
ssI3
(dp11
g9
I6
ssI4
(dp12
g9
I9
ssI5
(dp13
g9
I6
ssI6
(dp14
g9
I8
ssI7
(dp15
g9
I7
ssI8
(dp16
g9
I9
ssI9
(dp17
g9
I8
ssI10
(dp18
g9
I6
ssI11
(dp19
g9
I8
ssI12
(dp20
g9
I2
ssI13
(dp21
g9
I2
ssI14
(dp22
g9
I8
ssI15
(dp23
g9
I10
ssI16
(dp24
g9
I4
ssI17
(dp25
g9
I6
ssI18
(dp26
g9
I5
ssI19
(dp27
g9
I1
ssI20
(dp28
g9
I4
ssI21
(dp29
g9
I6
ssI22
(dp30
g9
I6
ssI23
(dp31
g9
I7
ssI24
(dp32
g9
I1
ssI25
(dp33
g9
I4
ssI26
(dp34
g9
I0
ssI27
(dp35
g9
I0
ssI28
(dp36
g9
I0
ssI29
(dp37
g9
I0
ssI30
(dp38
g9
I0
ssI31
(dp39
g9
I0
ssI32
(dp40
g9
I0
ssI33
(dp41
g9
I0
ssI34
(dp42
g9
I0
ssI35
(dp43
g9
I0
ssI36
(dp44
g9
I0
ssI37
(dp45
g9
I0
ssI38
(dp46
g9
I0
ssI39
(dp47
g9
I0
ssI40
(dp48
g9
I0
ssI41
(dp49
g9
I0
ssI42
(dp50
g9
I0
ssI43
(dp51
g9
I0
ssI44
(dp52
g9
I0
ssI45
(dp53
g9
I0
ssI46
(dp54
g9
I0
ssI47
(dp55
g9
I0
ssI48
(dp56
g9
I0
ssI49
(dp57
g9
I0
ssI50
(dp58
g9
I-145
sssS'graph'
p59
(dp60
sS'succ'
p61
(dp62
I1
(dp63
I5
(dp64
S'capacity'
p65
I5
sS'fluxo'
p66
I0
sS'weight'
p67
I0
ssI6
(dp68
g65
I8
sg66
I0
sg67
I7
ssI17
(dp69
g65
I7
sg66
I0
sg67
I1
ssI8
(dp70
g65
I8
sg66
I0
sg67
I9
ssI11
(dp71
g65
I8
sg66
I0
sg67
I1
ssI13
(dp72
g65
I5
sg66
I0
sg67
I3
ssI49
(dp73
g65
I5
sg66
I0
sg67
I7
ssI7
(dp74
g65
I8
sg66
I0
sg67
I5
ssI28
(dp75
g65
I7
sg66
I0
sg67
I7
ssI30
(dp76
g65
I5
sg66
I0
sg67
I0
ssI31
(dp77
g65
I7
sg66
I0
sg67
I7
sssI2
(dp78
I37
(dp79
g65
I5
sg66
I0
sg67
I4
ssI42
(dp80
g65
I6
sg66
I0
sg67
I8
ssI43
(dp81
g65
I6
sg66
I0
sg67
I8
ssI12
(dp82
g65
I8
sg66
I0
sg67
I2
ssI14
(dp83
g65
I8
sg66
I0
sg67
I1
ssI47
(dp84
g65
I6
sg66
I0
sg67
I1
ssI49
(dp85
g65
I8
sg66
I0
sg67
I5
ssI50
(dp86
g65
I5
sg66
I0
sg67
I8
ssI20
(dp87
g65
I7
sg66
I0
sg67
I4
sssI3
(dp88
I33
(dp89
g65
I8
sg66
I0
sg67
I2
ssI34
(dp90
g65
I6
sg66
I0
sg67
I2
ssI4
(dp91
g65
I5
sg66
I0
sg67
I9
ssI40
(dp92
g65
I7
sg66
I0
sg67
I9
ssI9
(dp93
g65
I5
sg66
I0
sg67
I2
ssI12
(dp94
g65
I7
sg66
I0
sg67
I1
ssI21
(dp95
g65
I7
sg66
I0
sg67
I10
ssI14
(dp96
g65
I5
sg66
I0
sg67
I1
ssI13
(dp97
g65
I6
sg66
I0
sg67
I3
ssI48
(dp98
g65
I7
sg66
I0
sg67
I3
ssI8
(dp99
g65
I7
sg66
I0
sg67
I5
ssI20
(dp100
g65
I5
sg66
I0
sg67
I2
ssI46
(dp101
g65
I7
sg66
I0
sg67
I2
ssI23
(dp102
g65
I6
sg66
I0
sg67
I5
ssI24
(dp103
g65
I5
sg66
I0
sg67
I9
ssI28
(dp104
g65
I5
sg66
I0
sg67
I4
ssI29
(dp105
g65
I8
sg66
I0
sg67
I4
ssI31
(dp106
g65
I6
sg66
I0
sg67
I8
sssI4
(dp107
I34
(dp108
g65
I5
sg66
I0
sg67
I6
ssI3
(dp109
g65
I6
sg66
I0
sg67
I5
ssI36
(dp110
g65
I8
sg66
I0
sg67
I8
ssI46
(dp111
g65
I6
sg66
I0
sg67
I2
ssI19
(dp112
g65
I7
sg66
I0
sg67
I3
ssI22
(dp113
g65
I6
sg66
I0
sg67
I8
ssI24
(dp114
g65
I6
sg66
I0
sg67
I10
ssI26
(dp115
g65
I6
sg66
I0
sg67
I6
ssI28
(dp116
g65
I5
sg66
I0
sg67
I4
ssI30
(dp117
g65
I8
sg66
I0
sg67
I6
ssI31
(dp118
g65
I8
sg66
I0
sg67
I8
sssI5
(dp119
I33
(dp120
g65
I5
sg66
I0
sg67
I3
ssI34
(dp121
g65
I8
sg66
I0
sg67
I6
ssI3
(dp122
g65
I7
sg66
I0
sg67
I4
ssI36
(dp123
g65
I6
sg66
I0
sg67
I8
ssI38
(dp124
g65
I6
sg66
I0
sg67
I9
ssI42
(dp125
g65
I7
sg66
I0
sg67
I4
ssI43
(dp126
g65
I8
sg66
I0
sg67
I1
ssI11
(dp127
g65
I5
sg66
I0
sg67
I2
ssI49
(dp128
g65
I5
sg66
I0
sg67
I8
ssI50
(dp129
g65
I8
sg66
I0
sg67
I1
ssI21
(dp130
g65
I8
sg66
I0
sg67
I3
ssI22
(dp131
g65
I5
sg66
I0
sg67
I0
ssI23
(dp132
g65
I5
sg66
I0
sg67
I6
ssI24
(dp133
g65
I8
sg66
I0
sg67
I0
ssI26
(dp134
g65
I6
sg66
I0
sg67
I1
ssI27
(dp135
g65
I5
sg66
I0
sg67
I6
ssI29
(dp136
g65
I8
sg66
I0
sg67
I5
sssI6
(dp137
I32
(dp138
g65
I7
sg66
I0
sg67
I3
ssI33
(dp139
g65
I7
sg66
I0
sg67
I6
ssI2
(dp140
g65
I7
sg66
I0
sg67
I10
ssI3
(dp141
g65
I6
sg66
I0
sg67
I8
ssI36
(dp142
g65
I7
sg66
I0
sg67
I0
ssI5
(dp143
g65
I8
sg66
I0
sg67
I8
ssI7
(dp144
g65
I5
sg66
I0
sg67
I3
ssI9
(dp145
g65
I8
sg66
I0
sg67
I9
ssI23
(dp146
g65
I8
sg66
I0
sg67
I9
ssI24
(dp147
g65
I8
sg66
I0
sg67
I1
ssI27
(dp148
g65
I5
sg66
I0
sg67
I3
ssI29
(dp149
g65
I6
sg66
I0
sg67
I7
ssI30
(dp150
g65
I8
sg66
I0
sg67
I3
ssI31
(dp151
g65
I5
sg66
I0
sg67
I9
sssI7
(dp152
I34
(dp153
g65
I6
sg66
I0
sg67
I8
ssI41
(dp154
g65
I6
sg66
I0
sg67
I7
ssI42
(dp155
g65
I5
sg66
I0
sg67
I10
ssI44
(dp156
g65
I8
sg66
I0
sg67
I8
ssI16
(dp157
g65
I6
sg66
I0
sg67
I0
ssI49
(dp158
g65
I7
sg66
I0
sg67
I10
ssI19
(dp159
g65
I6
sg66
I0
sg67
I3
ssI28
(dp160
g65
I5
sg66
I0
sg67
I9
sssI8
(dp161
I32
(dp162
g65
I5
sg66
I0
sg67
I10
ssI33
(dp163
g65
I8
sg66
I0
sg67
I0
ssI36
(dp164
g65
I6
sg66
I0
sg67
I8
ssI37
(dp165
g65
I6
sg66
I0
sg67
I6
ssI6
(dp166
g65
I7
sg66
I0
sg67
I6
ssI40
(dp167
g65
I5
sg66
I0
sg67
I7
ssI41
(dp168
g65
I6
sg66
I0
sg67
I4
ssI43
(dp169
g65
I5
sg66
I0
sg67
I1
ssI46
(dp170
g65
I6
sg66
I0
sg67
I4
ssI20
(dp171
g65
I5
sg66
I0
sg67
I9
ssI26
(dp172
g65
I6
sg66
I0
sg67
I7
ssI30
(dp173
g65
I7
sg66
I0
sg67
I1
ssI31
(dp174
g65
I5
sg66
I0
sg67
I9
sssI9
(dp175
I32
(dp176
g65
I8
sg66
I0
sg67
I1
ssI2
(dp177
g65
I7
sg66
I0
sg67
I5
ssI4
(dp178
g65
I6
sg66
I0
sg67
I3
ssI7
(dp179
g65
I7
sg66
I0
sg67
I5
ssI44
(dp180
g65
I6
sg66
I0
sg67
I3
ssI34
(dp181
g65
I6
sg66
I0
sg67
I3
ssI46
(dp182
g65
I6
sg66
I0
sg67
I10
ssI48
(dp183
g65
I7
sg66
I0
sg67
I5
ssI49
(dp184
g65
I7
sg66
I0
sg67
I7
ssI18
(dp185
g65
I6
sg66
I0
sg67
I9
ssI19
(dp186
g65
I8
sg66
I0
sg67
I1
ssI20
(dp187
g65
I6
sg66
I0
sg67
I8
ssI23
(dp188
g65
I8
sg66
I0
sg67
I2
ssI24
(dp189
g65
I7
sg66
I0
sg67
I4
sssI10
(dp190
I33
(dp191
g65
I6
sg66
I0
sg67
I9
ssI2
(dp192
g65
I5
sg66
I0
sg67
I3
ssI27
(dp193
g65
I5
sg66
I0
sg67
I2
ssI1
(dp194
g65
I8
sg66
I0
sg67
I6
ssI49
(dp195
g65
I7
sg66
I0
sg67
I8
ssI8
(dp196
g65
I6
sg66
I0
sg67
I7
ssI41
(dp197
g65
I6
sg66
I0
sg67
I7
ssI42
(dp198
g65
I5
sg66
I0
sg67
I4
ssI39
(dp199
g65
I5
sg66
I0
sg67
I7
ssI12
(dp200
g65
I8
sg66
I0
sg67
I8
ssI14
(dp201
g65
I8
sg66
I0
sg67
I4
ssI15
(dp202
g65
I7
sg66
I0
sg67
I1
ssI11
(dp203
g65
I8
sg66
I0
sg67
I6
ssI40
(dp204
g65
I8
sg66
I0
sg67
I0
ssI23
(dp205
g65
I8
sg66
I0
sg67
I7
ssI47
(dp206
g65
I5
sg66
I0
sg67
I8
ssI29
(dp207
g65
I6
sg66
I0
sg67
I8
sssI11
(dp208
I1
(dp209
g65
I8
sg66
I0
sg67
I4
ssI3
(dp210
g65
I8
sg66
I0
sg67
I6
ssI9
(dp211
g65
I7
sg66
I0
sg67
I2
ssI44
(dp212
g65
I6
sg66
I0
sg67
I0
ssI13
(dp213
g65
I8
sg66
I0
sg67
I5
ssI48
(dp214
g65
I7
sg66
I0
sg67
I8
ssI20
(dp215
g65
I7
sg66
I0
sg67
I2
ssI25
(dp216
g65
I7
sg66
I0
sg67
I10
ssI28
(dp217
g65
I7
sg66
I0
sg67
I4
sssI12
(dp218
I1
(dp219
g65
I5
sg66
I0
sg67
I10
ssI6
(dp220
g65
I6
sg66
I0
sg67
I3
ssI38
(dp221
g65
I5
sg66
I0
sg67
I1
ssI8
(dp222
g65
I7
sg66
I0
sg67
I6
ssI15
(dp223
g65
I5
sg66
I0
sg67
I8
ssI16
(dp224
g65
I8
sg66
I0
sg67
I3
ssI25
(dp225
g65
I5
sg66
I0
sg67
I6
ssI26
(dp226
g65
I5
sg66
I0
sg67
I7
ssI27
(dp227
g65
I8
sg66
I0
sg67
I0
ssI28
(dp228
g65
I7
sg66
I0
sg67
I5
ssI30
(dp229
g65
I5
sg66
I0
sg67
I3
ssI31
(dp230
g65
I6
sg66
I0
sg67
I8
sssI13
(dp231
I32
(dp232
g65
I8
sg66
I0
sg67
I7
ssI39
(dp233
g65
I5
sg66
I0
sg67
I5
ssI8
(dp234
g65
I5
sg66
I0
sg67
I6
ssI9
(dp235
g65
I5
sg66
I0
sg67
I3
ssI43
(dp236
g65
I5
sg66
I0
sg67
I9
ssI46
(dp237
g65
I6
sg66
I0
sg67
I6
ssI18
(dp238
g65
I6
sg66
I0
sg67
I8
ssI22
(dp239
g65
I7
sg66
I0
sg67
I9
ssI28
(dp240
g65
I8
sg66
I0
sg67
I10
ssI29
(dp241
g65
I7
sg66
I0
sg67
I2
ssI30
(dp242
g65
I5
sg66
I0
sg67
I5
sssI14
(dp243
I32
(dp244
g65
I5
sg66
I0
sg67
I4
ssI42
(dp245
g65
I7
sg66
I0
sg67
I0
ssI43
(dp246
g65
I8
sg66
I0
sg67
I5
ssI45
(dp247
g65
I8
sg66
I0
sg67
I1
ssI18
(dp248
g65
I8
sg66
I0
sg67
I7
ssI19
(dp249
g65
I5
sg66
I0
sg67
I4
ssI21
(dp250
g65
I7
sg66
I0
sg67
I3
ssI24
(dp251
g65
I7
sg66
I0
sg67
I1
ssI26
(dp252
g65
I7
sg66
I0
sg67
I9
ssI27
(dp253
g65
I5
sg66
I0
sg67
I6
ssI29
(dp254
g65
I8
sg66
I0
sg67
I4
sssI15
(dp255
I2
(dp256
g65
I5
sg66
I0
sg67
I2
ssI7
(dp257
g65
I6
sg66
I0
sg67
I10
ssI11
(dp258
g65
I6
sg66
I0
sg67
I4
ssI44
(dp259
g65
I6
sg66
I0
sg67
I8
ssI34
(dp260
g65
I7
sg66
I0
sg67
I8
ssI16
(dp261
g65
I7
sg66
I0
sg67
I2
ssI50
(dp262
g65
I8
sg66
I0
sg67
I2
ssI22
(dp263
g65
I5
sg66
I0
sg67
I2
ssI25
(dp264
g65
I7
sg66
I0
sg67
I2
ssI26
(dp265
g65
I7
sg66
I0
sg67
I1
sssI16
(dp266
I5
(dp267
g65
I6
sg66
I0
sg67
I5
ssI7
(dp268
g65
I7
sg66
I0
sg67
I2
ssI9
(dp269
g65
I7
sg66
I0
sg67
I3
ssI39
(dp270
g65
I7
sg66
I0
sg67
I6
ssI12
(dp271
g65
I5
sg66
I0
sg67
I0
ssI13
(dp272
g65
I8
sg66
I0
sg67
I0
ssI46
(dp273
g65
I7
sg66
I0
sg67
I10
ssI47
(dp274
g65
I5
sg66
I0
sg67
I10
ssI49
(dp275
g65
I6
sg66
I0
sg67
I1
ssI20
(dp276
g65
I6
sg66
I0
sg67
I7
ssI14
(dp277
g65
I7
sg66
I0
sg67
I3
ssI22
(dp278
g65
I6
sg66
I0
sg67
I4
ssI23
(dp279
g65
I7
sg66
I0
sg67
I2
ssI24
(dp280
g65
I8
sg66
I0
sg67
I2
ssI26
(dp281
g65
I5
sg66
I0
sg67
I5
ssI27
(dp282
g65
I7
sg66
I0
sg67
I6
ssI30
(dp283
g65
I8
sg66
I0
sg67
I9
ssI31
(dp284
g65
I5
sg66
I0
sg67
I9
sssI17
(dp285
I32
(dp286
g65
I7
sg66
I0
sg67
I8
ssI1
(dp287
g65
I6
sg66
I0
sg67
I1
ssI34
(dp288
g65
I7
sg66
I0
sg67
I7
ssI36
(dp289
g65
I6
sg66
I0
sg67
I4
ssI37
(dp290
g65
I7
sg66
I0
sg67
I1
ssI42
(dp291
g65
I5
sg66
I0
sg67
I6
ssI44
(dp292
g65
I8
sg66
I0
sg67
I0
ssI15
(dp293
g65
I5
sg66
I0
sg67
I2
ssI18
(dp294
g65
I6
sg66
I0
sg67
I1
ssI19
(dp295
g65
I5
sg66
I0
sg67
I7
ssI26
(dp296
g65
I7
sg66
I0
sg67
I3
ssI28
(dp297
g65
I5
sg66
I0
sg67
I1
sssI18
(dp298
I6
(dp299
g65
I7
sg66
I0
sg67
I8
ssI8
(dp300
g65
I8
sg66
I0
sg67
I7
ssI41
(dp301
g65
I5
sg66
I0
sg67
I2
ssI12
(dp302
g65
I6
sg66
I0
sg67
I8
ssI14
(dp303
g65
I7
sg66
I0
sg67
I6
ssI47
(dp304
g65
I5
sg66
I0
sg67
I5
ssI16
(dp305
g65
I7
sg66
I0
sg67
I3
ssI49
(dp306
g65
I8
sg66
I0
sg67
I0
ssI9
(dp307
g65
I6
sg66
I0
sg67
I0
ssI24
(dp308
g65
I5
sg66
I0
sg67
I2
ssI25
(dp309
g65
I8
sg66
I0
sg67
I7
ssI29
(dp310
g65
I7
sg66
I0
sg67
I8
ssI30
(dp311
g65
I8
sg66
I0
sg67
I9
sssI19
(dp312
I34
(dp313
g65
I6
sg66
I0
sg67
I5
ssI35
(dp314
g65
I7
sg66
I0
sg67
I9
ssI36
(dp315
g65
I5
sg66
I0
sg67
I7
ssI39
(dp316
g65
I6
sg66
I0
sg67
I7
ssI8
(dp317
g65
I6
sg66
I0
sg67
I9
ssI45
(dp318
g65
I8
sg66
I0
sg67
I1
ssI46
(dp319
g65
I6
sg66
I0
sg67
I8
ssI13
(dp320
g65
I5
sg66
I0
sg67
I8
ssI23
(dp321
g65
I5
sg66
I0
sg67
I3
sssI20
(dp322
I2
(dp323
g65
I8
sg66
I0
sg67
I5
ssI5
(dp324
g65
I5
sg66
I0
sg67
I1
ssI6
(dp325
g65
I7
sg66
I0
sg67
I1
ssI41
(dp326
g65
I8
sg66
I0
sg67
I4
ssI10
(dp327
g65
I7
sg66
I0
sg67
I3
ssI50
(dp328
g65
I6
sg66
I0
sg67
I10
ssI14
(dp329
g65
I7
sg66
I0
sg67
I0
ssI16
(dp330
g65
I7
sg66
I0
sg67
I6
ssI18
(dp331
g65
I8
sg66
I0
sg67
I10
ssI9
(dp332
g65
I6
sg66
I0
sg67
I7
ssI28
(dp333
g65
I7
sg66
I0
sg67
I1
ssI30
(dp334
g65
I5
sg66
I0
sg67
I10
ssI31
(dp335
g65
I8
sg66
I0
sg67
I8
sssI21
(dp336
I35
(dp337
g65
I6
sg66
I0
sg67
I9
ssI38
(dp338
g65
I6
sg66
I0
sg67
I3
ssI6
(dp339
g65
I5
sg66
I0
sg67
I5
ssI7
(dp340
g65
I6
sg66
I0
sg67
I9
ssI41
(dp341
g65
I8
sg66
I0
sg67
I7
ssI39
(dp342
g65
I5
sg66
I0
sg67
I4
ssI45
(dp343
g65
I5
sg66
I0
sg67
I1
ssI46
(dp344
g65
I7
sg66
I0
sg67
I10
ssI25
(dp345
g65
I6
sg66
I0
sg67
I0
ssI29
(dp346
g65
I5
sg66
I0
sg67
I9
ssI31
(dp347
g65
I7
sg66
I0
sg67
I0
sssI22
(dp348
I33
(dp349
g65
I5
sg66
I0
sg67
I10
ssI35
(dp350
g65
I6
sg66
I0
sg67
I6
ssI36
(dp351
g65
I7
sg66
I0
sg67
I7
ssI40
(dp352
g65
I6
sg66
I0
sg67
I8
ssI11
(dp353
g65
I7
sg66
I0
sg67
I7
ssI14
(dp354
g65
I5
sg66
I0
sg67
I4
ssI20
(dp355
g65
I5
sg66
I0
sg67
I6
ssI27
(dp356
g65
I5
sg66
I0
sg67
I9
sssI23
(dp357
I32
(dp358
g65
I6
sg66
I0
sg67
I7
ssI1
(dp359
g65
I8
sg66
I0
sg67
I10
ssI36
(dp360
g65
I7
sg66
I0
sg67
I3
ssI6
(dp361
g65
I8
sg66
I0
sg67
I0
ssI40
(dp362
g65
I6
sg66
I0
sg67
I5
ssI42
(dp363
g65
I7
sg66
I0
sg67
I6
ssI43
(dp364
g65
I7
sg66
I0
sg67
I0
ssI44
(dp365
g65
I5
sg66
I0
sg67
I0
ssI14
(dp366
g65
I7
sg66
I0
sg67
I2
ssI16
(dp367
g65
I6
sg66
I0
sg67
I0
ssI20
(dp368
g65
I5
sg66
I0
sg67
I7
ssI22
(dp369
g65
I5
sg66
I0
sg67
I1
ssI4
(dp370
g65
I6
sg66
I0
sg67
I1
sssI24
(dp371
I33
(dp372
g65
I6
sg66
I0
sg67
I0
ssI35
(dp373
g65
I7
sg66
I0
sg67
I6
ssI6
(dp374
g65
I8
sg66
I0
sg67
I6
ssI44
(dp375
g65
I8
sg66
I0
sg67
I1
ssI14
(dp376
g65
I8
sg66
I0
sg67
I5
ssI15
(dp377
g65
I5
sg66
I0
sg67
I5
ssI49
(dp378
g65
I5
sg66
I0
sg67
I7
ssI25
(dp379
g65
I5
sg66
I0
sg67
I1
ssI26
(dp380
g65
I7
sg66
I0
sg67
I0
ssI28
(dp381
g65
I7
sg66
I0
sg67
I5
ssI29
(dp382
g65
I5
sg66
I0
sg67
I5
sssI25
(dp383
I1
(dp384
g65
I6
sg66
I0
sg67
I3
ssI34
(dp385
g65
I5
sg66
I0
sg67
I6
ssI35
(dp386
g65
I8
sg66
I0
sg67
I4
ssI4
(dp387
g65
I8
sg66
I0
sg67
I0
ssI37
(dp388
g65
I6
sg66
I0
sg67
I3
ssI6
(dp389
g65
I8
sg66
I0
sg67
I2
ssI9
(dp390
g65
I8
sg66
I0
sg67
I2
ssI43
(dp391
g65
I6
sg66
I0
sg67
I7
ssI46
(dp392
g65
I6
sg66
I0
sg67
I2
ssI23
(dp393
g65
I8
sg66
I0
sg67
I2
ssI24
(dp394
g65
I7
sg66
I0
sg67
I9
ssI30
(dp395
g65
I8
sg66
I0
sg67
I8
ssI31
(dp396
g65
I7
sg66
I0
sg67
I2
sssI26
(dp397
I34
(dp398
g65
I5
sg66
I0
sg67
I6
ssI35
(dp399
g65
I5
sg66
I0
sg67
I7
ssI6
(dp400
g65
I6
sg66
I0
sg67
I4
ssI7
(dp401
g65
I6
sg66
I0
sg67
I8
ssI40
(dp402
g65
I6
sg66
I0
sg67
I1
ssI9
(dp403
g65
I8
sg66
I0
sg67
I3
ssI10
(dp404
g65
I7
sg66
I0
sg67
I4
ssI11
(dp405
g65
I8
sg66
I0
sg67
I2
ssI13
(dp406
g65
I8
sg66
I0
sg67
I1
ssI14
(dp407
g65
I8
sg66
I0
sg67
I9
ssI20
(dp408
g65
I7
sg66
I0
sg67
I0
ssI25
(dp409
g65
I6
sg66
I0
sg67
I8
ssI27
(dp410
g65
I6
sg66
I0
sg67
I6
ssI28
(dp411
g65
I6
sg66
I0
sg67
I1
sssI27
(dp412
I32
(dp413
g65
I8
sg66
I0
sg67
I5
ssI2
(dp414
g65
I8
sg66
I0
sg67
I2
ssI35
(dp415
g65
I6
sg66
I0
sg67
I10
ssI4
(dp416
g65
I8
sg66
I0
sg67
I1
ssI37
(dp417
g65
I6
sg66
I0
sg67
I2
ssI40
(dp418
g65
I8
sg66
I0
sg67
I8
ssI10
(dp419
g65
I7
sg66
I0
sg67
I3
ssI43
(dp420
g65
I7
sg66
I0
sg67
I10
ssI45
(dp421
g65
I5
sg66
I0
sg67
I2
ssI46
(dp422
g65
I8
sg66
I0
sg67
I6
ssI15
(dp423
g65
I6
sg66
I0
sg67
I3
ssI29
(dp424
g65
I8
sg66
I0
sg67
I7
ssI5
(dp425
g65
I7
sg66
I0
sg67
I6
sssI28
(dp426
I1
(dp427
g65
I6
sg66
I0
sg67
I10
ssI34
(dp428
g65
I5
sg66
I0
sg67
I5
ssI3
(dp429
g65
I7
sg66
I0
sg67
I9
ssI5
(dp430
g65
I5
sg66
I0
sg67
I6
ssI6
(dp431
g65
I6
sg66
I0
sg67
I4
ssI17
(dp432
g65
I8
sg66
I0
sg67
I2
ssI16
(dp433
g65
I5
sg66
I0
sg67
I4
ssI49
(dp434
g65
I5
sg66
I0
sg67
I2
ssI23
(dp435
g65
I5
sg66
I0
sg67
I6
ssI24
(dp436
g65
I7
sg66
I0
sg67
I1
ssI29
(dp437
g65
I5
sg66
I0
sg67
I10
ssI30
(dp438
g65
I7
sg66
I0
sg67
I2
sssI29
(dp439
I2
(dp440
g65
I8
sg66
I0
sg67
I10
ssI35
(dp441
g65
I6
sg66
I0
sg67
I1
ssI40
(dp442
g65
I5
sg66
I0
sg67
I6
ssI41
(dp443
g65
I8
sg66
I0
sg67
I6
ssI10
(dp444
g65
I8
sg66
I0
sg67
I10
ssI43
(dp445
g65
I8
sg66
I0
sg67
I3
ssI14
(dp446
g65
I5
sg66
I0
sg67
I9
ssI48
(dp447
g65
I5
sg66
I0
sg67
I4
ssI50
(dp448
g65
I6
sg66
I0
sg67
I7
ssI19
(dp449
g65
I8
sg66
I0
sg67
I9
ssI31
(dp450
g65
I7
sg66
I0
sg67
I7
sssI30
(dp451
I33
(dp452
g65
I7
sg66
I0
sg67
I10
ssI35
(dp453
g65
I8
sg66
I0
sg67
I4
ssI8
(dp454
g65
I8
sg66
I0
sg67
I7
ssI41
(dp455
g65
I6
sg66
I0
sg67
I8
ssI11
(dp456
g65
I8
sg66
I0
sg67
I3
ssI18
(dp457
g65
I5
sg66
I0
sg67
I6
ssI16
(dp458
g65
I6
sg66
I0
sg67
I3
ssI40
(dp459
g65
I7
sg66
I0
sg67
I3
ssI50
(dp460
g65
I8
sg66
I0
sg67
I2
ssI28
(dp461
g65
I8
sg66
I0
sg67
I1
sssI31
(dp462
I2
(dp463
g65
I8
sg66
I0
sg67
I8
ssI3
(dp464
g65
I7
sg66
I0
sg67
I5
ssI4
(dp465
g65
I8
sg66
I0
sg67
I2
ssI5
(dp466
g65
I6
sg66
I0
sg67
I9
ssI39
(dp467
g65
I6
sg66
I0
sg67
I6
ssI40
(dp468
g65
I5
sg66
I0
sg67
I5
ssI41
(dp469
g65
I8
sg66
I0
sg67
I6
ssI42
(dp470
g65
I5
sg66
I0
sg67
I3
ssI7
(dp471
g65
I6
sg66
I0
sg67
I1
ssI12
(dp472
g65
I7
sg66
I0
sg67
I0
ssI34
(dp473
g65
I8
sg66
I0
sg67
I10
ssI15
(dp474
g65
I7
sg66
I0
sg67
I3
ssI48
(dp475
g65
I8
sg66
I0
sg67
I9
ssI18
(dp476
g65
I7
sg66
I0
sg67
I0
ssI24
(dp477
g65
I7
sg66
I0
sg67
I9
ssI26
(dp478
g65
I6
sg66
I0
sg67
I1
ssI27
(dp479
g65
I8
sg66
I0
sg67
I6
ssI10
(dp480
g65
I8
sg66
I0
sg67
I1
sssI32
(dp481
I4
(dp482
g65
I8
sg66
I0
sg67
I3
ssI38
(dp483
g65
I8
sg66
I0
sg67
I8
ssI7
(dp484
g65
I5
sg66
I0
sg67
I5
ssI10
(dp485
g65
I6
sg66
I0
sg67
I3
ssI43
(dp486
g65
I7
sg66
I0
sg67
I2
ssI45
(dp487
g65
I7
sg66
I0
sg67
I6
ssI46
(dp488
g65
I8
sg66
I0
sg67
I8
ssI13
(dp489
g65
I6
sg66
I0
sg67
I6
ssI50
(dp490
g65
I5
sg66
I0
sg67
I1
ssI21
(dp491
g65
I6
sg66
I0
sg67
I5
ssI23
(dp492
g65
I7
sg66
I0
sg67
I3
ssI36
(dp493
g65
I6
sg66
I0
sg67
I7
ssI15
(dp494
g65
I6
sg66
I0
sg67
I4
sssI33
(dp495
I32
(dp496
g65
I7
sg66
I0
sg67
I10
ssI1
(dp497
g65
I5
sg66
I0
sg67
I0
ssI35
(dp498
g65
I7
sg66
I0
sg67
I0
ssI38
(dp499
g65
I6
sg66
I0
sg67
I0
ssI6
(dp500
g65
I7
sg66
I0
sg67
I1
ssI7
(dp501
g65
I5
sg66
I0
sg67
I2
ssI8
(dp502
g65
I7
sg66
I0
sg67
I10
ssI50
(dp503
g65
I6
sg66
I0
sg67
I0
ssI14
(dp504
g65
I7
sg66
I0
sg67
I4
ssI16
(dp505
g65
I6
sg66
I0
sg67
I3
ssI18
(dp506
g65
I7
sg66
I0
sg67
I1
ssI19
(dp507
g65
I6
sg66
I0
sg67
I1
ssI21
(dp508
g65
I5
sg66
I0
sg67
I8
ssI24
(dp509
g65
I8
sg66
I0
sg67
I5
ssI25
(dp510
g65
I5
sg66
I0
sg67
I0
sssI34
(dp511
I35
(dp512
g65
I7
sg66
I0
sg67
I4
ssI43
(dp513
g65
I5
sg66
I0
sg67
I2
ssI45
(dp514
g65
I7
sg66
I0
sg67
I2
ssI18
(dp515
g65
I7
sg66
I0
sg67
I8
ssI19
(dp516
g65
I6
sg66
I0
sg67
I4
ssI23
(dp517
g65
I8
sg66
I0
sg67
I5
ssI29
(dp518
g65
I8
sg66
I0
sg67
I2
sssI35
(dp519
I32
(dp520
g65
I6
sg66
I0
sg67
I8
ssI2
(dp521
g65
I6
sg66
I0
sg67
I8
ssI8
(dp522
g65
I6
sg66
I0
sg67
I2
ssI12
(dp523
g65
I6
sg66
I0
sg67
I0
ssI42
(dp524
g65
I6
sg66
I0
sg67
I2
ssI45
(dp525
g65
I6
sg66
I0
sg67
I8
ssI44
(dp526
g65
I7
sg66
I0
sg67
I6
ssI18
(dp527
g65
I7
sg66
I0
sg67
I1
ssI46
(dp528
g65
I7
sg66
I0
sg67
I2
ssI15
(dp529
g65
I5
sg66
I0
sg67
I0
ssI50
(dp530
g65
I6
sg66
I0
sg67
I6
ssI19
(dp531
g65
I7
sg66
I0
sg67
I8
ssI25
(dp532
g65
I6
sg66
I0
sg67
I6
ssI10
(dp533
g65
I6
sg66
I0
sg67
I2
sssI36
(dp534
I32
(dp535
g65
I5
sg66
I0
sg67
I6
ssI42
(dp536
g65
I8
sg66
I0
sg67
I8
ssI11
(dp537
g65
I8
sg66
I0
sg67
I6
ssI12
(dp538
g65
I6
sg66
I0
sg67
I4
ssI13
(dp539
g65
I5
sg66
I0
sg67
I1
ssI14
(dp540
g65
I7
sg66
I0
sg67
I1
ssI16
(dp541
g65
I5
sg66
I0
sg67
I2
ssI17
(dp542
g65
I5
sg66
I0
sg67
I5
ssI50
(dp543
g65
I6
sg66
I0
sg67
I5
ssI21
(dp544
g65
I5
sg66
I0
sg67
I8
ssI22
(dp545
g65
I6
sg66
I0
sg67
I1
ssI23
(dp546
g65
I5
sg66
I0
sg67
I10
ssI25
(dp547
g65
I6
sg66
I0
sg67
I7
ssI31
(dp548
g65
I5
sg66
I0
sg67
I0
sssI37
(dp549
I16
(dp550
g65
I7
sg66
I0
sg67
I5
ssI6
(dp551
g65
I7
sg66
I0
sg67
I8
ssI39
(dp552
g65
I6
sg66
I0
sg67
I6
ssI8
(dp553
g65
I5
sg66
I0
sg67
I5
ssI10
(dp554
g65
I8
sg66
I0
sg67
I7
ssI45
(dp555
g65
I5
sg66
I0
sg67
I5
ssI46
(dp556
g65
I6
sg66
I0
sg67
I8
ssI48
(dp557
g65
I7
sg66
I0
sg67
I5
ssI17
(dp558
g65
I7
sg66
I0
sg67
I9
ssI18
(dp559
g65
I8
sg66
I0
sg67
I7
ssI14
(dp560
g65
I5
sg66
I0
sg67
I10
ssI23
(dp561
g65
I7
sg66
I0
sg67
I3
ssI21
(dp562
g65
I8
sg66
I0
sg67
I2
ssI31
(dp563
g65
I6
sg66
I0
sg67
I0
sssI38
(dp564
I33
(dp565
g65
I6
sg66
I0
sg67
I9
ssI36
(dp566
g65
I7
sg66
I0
sg67
I8
ssI48
(dp567
g65
I8
sg66
I0
sg67
I0
ssI40
(dp568
g65
I7
sg66
I0
sg67
I6
ssI42
(dp569
g65
I6
sg66
I0
sg67
I3
ssI11
(dp570
g65
I8
sg66
I0
sg67
I1
ssI46
(dp571
g65
I8
sg66
I0
sg67
I9
ssI15
(dp572
g65
I6
sg66
I0
sg67
I5
ssI16
(dp573
g65
I8
sg66
I0
sg67
I4
ssI17
(dp574
g65
I7
sg66
I0
sg67
I5
ssI31
(dp575
g65
I7
sg66
I0
sg67
I6
sssI39
(dp576
I32
(dp577
g65
I6
sg66
I0
sg67
I5
ssI34
(dp578
g65
I5
sg66
I0
sg67
I8
ssI38
(dp579
g65
I5
sg66
I0
sg67
I6
ssI8
(dp580
g65
I5
sg66
I0
sg67
I4
ssI11
(dp581
g65
I6
sg66
I0
sg67
I6
ssI44
(dp582
g65
I5
sg66
I0
sg67
I9
ssI45
(dp583
g65
I8
sg66
I0
sg67
I0
ssI46
(dp584
g65
I8
sg66
I0
sg67
I4
ssI14
(dp585
g65
I8
sg66
I0
sg67
I4
ssI23
(dp586
g65
I5
sg66
I0
sg67
I4
ssI28
(dp587
g65
I5
sg66
I0
sg67
I0
ssI29
(dp588
g65
I8
sg66
I0
sg67
I4
ssI30
(dp589
g65
I7
sg66
I0
sg67
I7
ssI31
(dp590
g65
I5
sg66
I0
sg67
I6
sssI40
(dp591
I32
(dp592
g65
I5
sg66
I0
sg67
I9
ssI34
(dp593
g65
I5
sg66
I0
sg67
I8
ssI35
(dp594
g65
I7
sg66
I0
sg67
I2
ssI6
(dp595
g65
I7
sg66
I0
sg67
I5
ssI39
(dp596
g65
I8
sg66
I0
sg67
I3
ssI47
(dp597
g65
I5
sg66
I0
sg67
I10
ssI18
(dp598
g65
I5
sg66
I0
sg67
I0
ssI19
(dp599
g65
I7
sg66
I0
sg67
I2
ssI31
(dp600
g65
I7
sg66
I0
sg67
I3
sssI41
(dp601
I2
(dp602
g65
I6
sg66
I0
sg67
I6
ssI5
(dp603
g65
I8
sg66
I0
sg67
I2
ssI11
(dp604
g65
I8
sg66
I0
sg67
I5
ssI44
(dp605
g65
I8
sg66
I0
sg67
I0
ssI48
(dp606
g65
I6
sg66
I0
sg67
I5
ssI17
(dp607
g65
I8
sg66
I0
sg67
I10
ssI24
(dp608
g65
I5
sg66
I0
sg67
I1
ssI27
(dp609
g65
I5
sg66
I0
sg67
I1
ssI31
(dp610
g65
I5
sg66
I0
sg67
I0
sssI42
(dp611
I32
(dp612
g65
I6
sg66
I0
sg67
I9
ssI34
(dp613
g65
I6
sg66
I0
sg67
I5
ssI35
(dp614
g65
I6
sg66
I0
sg67
I3
ssI4
(dp615
g65
I6
sg66
I0
sg67
I1
ssI7
(dp616
g65
I8
sg66
I0
sg67
I2
ssI12
(dp617
g65
I5
sg66
I0
sg67
I4
ssI14
(dp618
g65
I6
sg66
I0
sg67
I9
ssI16
(dp619
g65
I5
sg66
I0
sg67
I5
ssI17
(dp620
g65
I7
sg66
I0
sg67
I5
ssI50
(dp621
g65
I8
sg66
I0
sg67
I3
ssI27
(dp622
g65
I5
sg66
I0
sg67
I3
sssI43
(dp623
I33
(dp624
g65
I7
sg66
I0
sg67
I0
ssI38
(dp625
g65
I8
sg66
I0
sg67
I4
ssI39
(dp626
g65
I6
sg66
I0
sg67
I6
ssI9
(dp627
g65
I8
sg66
I0
sg67
I8
ssI10
(dp628
g65
I6
sg66
I0
sg67
I6
ssI44
(dp629
g65
I6
sg66
I0
sg67
I4
ssI18
(dp630
g65
I6
sg66
I0
sg67
I10
ssI27
(dp631
g65
I5
sg66
I0
sg67
I7
ssI28
(dp632
g65
I8
sg66
I0
sg67
I9
sssI44
(dp633
I4
(dp634
g65
I8
sg66
I0
sg67
I2
ssI39
(dp635
g65
I6
sg66
I0
sg67
I6
ssI41
(dp636
g65
I5
sg66
I0
sg67
I5
ssI10
(dp637
g65
I7
sg66
I0
sg67
I1
ssI11
(dp638
g65
I6
sg66
I0
sg67
I2
ssI17
(dp639
g65
I5
sg66
I0
sg67
I1
ssI23
(dp640
g65
I6
sg66
I0
sg67
I4
ssI31
(dp641
g65
I5
sg66
I0
sg67
I2
sssI45
(dp642
I34
(dp643
g65
I5
sg66
I0
sg67
I0
ssI37
(dp644
g65
I7
sg66
I0
sg67
I5
ssI38
(dp645
g65
I8
sg66
I0
sg67
I10
ssI10
(dp646
g65
I5
sg66
I0
sg67
I1
ssI44
(dp647
g65
I6
sg66
I0
sg67
I2
ssI13
(dp648
g65
I8
sg66
I0
sg67
I6
ssI46
(dp649
g65
I8
sg66
I0
sg67
I9
ssI15
(dp650
g65
I6
sg66
I0
sg67
I8
ssI14
(dp651
g65
I6
sg66
I0
sg67
I4
ssI47
(dp652
g65
I6
sg66
I0
sg67
I7
ssI28
(dp653
g65
I8
sg66
I0
sg67
I10
sssI46
(dp654
I36
(dp655
g65
I6
sg66
I0
sg67
I8
ssI7
(dp656
g65
I6
sg66
I0
sg67
I5
ssI8
(dp657
g65
I7
sg66
I0
sg67
I0
ssI11
(dp658
g65
I6
sg66
I0
sg67
I7
ssI20
(dp659
g65
I6
sg66
I0
sg67
I5
ssI21
(dp660
g65
I7
sg66
I0
sg67
I0
ssI23
(dp661
g65
I8
sg66
I0
sg67
I7
sssI47
(dp662
I33
(dp663
g65
I6
sg66
I0
sg67
I6
ssI34
(dp664
g65
I7
sg66
I0
sg67
I0
ssI35
(dp665
g65
I7
sg66
I0
sg67
I10
ssI37
(dp666
g65
I8
sg66
I0
sg67
I2
ssI7
(dp667
g65
I5
sg66
I0
sg67
I8
ssI8
(dp668
g65
I7
sg66
I0
sg67
I8
ssI10
(dp669
g65
I7
sg66
I0
sg67
I9
ssI46
(dp670
g65
I6
sg66
I0
sg67
I4
ssI48
(dp671
g65
I5
sg66
I0
sg67
I10
ssI18
(dp672
g65
I8
sg66
I0
sg67
I2
ssI28
(dp673
g65
I7
sg66
I0
sg67
I8
ssI30
(dp674
g65
I5
sg66
I0
sg67
I10
sssI48
(dp675
I36
(dp676
g65
I8
sg66
I0
sg67
I0
ssI37
(dp677
g65
I7
sg66
I0
sg67
I6
ssI38
(dp678
g65
I8
sg66
I0
sg67
I8
ssI39
(dp679
g65
I6
sg66
I0
sg67
I6
ssI41
(dp680
g65
I5
sg66
I0
sg67
I5
ssI12
(dp681
g65
I5
sg66
I0
sg67
I3
ssI45
(dp682
g65
I6
sg66
I0
sg67
I0
ssI14
(dp683
g65
I5
sg66
I0
sg67
I7
ssI44
(dp684
g65
I6
sg66
I0
sg67
I5
ssI20
(dp685
g65
I8
sg66
I0
sg67
I4
ssI23
(dp686
g65
I8
sg66
I0
sg67
I7
ssI24
(dp687
g65
I8
sg66
I0
sg67
I8
ssI27
(dp688
g65
I7
sg66
I0
sg67
I5
sssI49
(dp689
I32
(dp690
g65
I5
sg66
I0
sg67
I9
ssI2
(dp691
g65
I6
sg66
I0
sg67
I7
ssI37
(dp692
g65
I7
sg66
I0
sg67
I10
ssI42
(dp693
g65
I7
sg66
I0
sg67
I7
ssI11
(dp694
g65
I5
sg66
I0
sg67
I1
ssI14
(dp695
g65
I5
sg66
I0
sg67
I6
ssI16
(dp696
g65
I8
sg66
I0
sg67
I6
ssI18
(dp697
g65
I6
sg66
I0
sg67
I2
ssI46
(dp698
g65
I6
sg66
I0
sg67
I4
ssI23
(dp699
g65
I8
sg66
I0
sg67
I2
ssI27
(dp700
g65
I7
sg66
I0
sg67
I5
ssI28
(dp701
g65
I8
sg66
I0
sg67
I3
ssI29
(dp702
g65
I5
sg66
I0
sg67
I4
ssI31
(dp703
g65
I5
sg66
I0
sg67
I10
sssI50
(dp704
I3
(dp705
g65
I8
sg66
I0
sg67
I6
ssI4
(dp706
g65
I6
sg66
I0
sg67
I0
ssI7
(dp707
g65
I8
sg66
I0
sg67
I4
ssI11
(dp708
g65
I8
sg66
I0
sg67
I4
ssI14
(dp709
g65
I5
sg66
I0
sg67
I9
ssI17
(dp710
g65
I7
sg66
I0
sg67
I0
ssI18
(dp711
g65
I8
sg66
I0
sg67
I2
ssI19
(dp712
g65
I6
sg66
I0
sg67
I0
ssI21
(dp713
g65
I8
sg66
I0
sg67
I6
ssI22
(dp714
g65
I8
sg66
I0
sg67
I8
ssI23
(dp715
g65
I7
sg66
I0
sg67
I1
ssI29
(dp716
g65
I7
sg66
I0
sg67
I7
ssI32
(dp717
g65
I5
sg66
I0
sg67
I8
ssI34
(dp718
g65
I5
sg66
I0
sg67
I7
ssI35
(dp719
g65
I7
sg66
I0
sg67
I0
ssI38
(dp720
g65
I8
sg66
I0
sg67
I5
ssI40
(dp721
g65
I7
sg66
I0
sg67
I1
ssI41
(dp722
g65
I6
sg66
I0
sg67
I5
ssI42
(dp723
g65
I5
sg66
I0
sg67
I10
ssI44
(dp724
g65
I7
sg66
I0
sg67
I3
ssI46
(dp725
g65
I7
sg66
I0
sg67
I5
ssI48
(dp726
g65
I6
sg66
I0
sg67
I9
ssI49
(dp727
g65
I8
sg66
I0
sg67
I6
ssssS'edge'
p728
g62
sS'pred'
p729
(dp730
I1
(dp731
I33
g497
sI10
g194
sI11
g209
sI12
g219
sI17
g287
sI23
g359
sI25
g384
sI28
g427
ssI2
(dp732
I35
g521
sI6
g140
sI41
g602
sI10
g192
sI15
g256
sI49
g691
sI20
g323
sI9
g177
sI27
g414
sI29
g440
sI31
g463
ssI3
(dp733
I4
g109
sI5
g122
sI6
g141
sI11
g210
sI50
g705
sI28
g429
sI31
g464
ssI4
(dp734
I32
g482
sI3
g91
sI9
g178
sI42
g615
sI44
g634
sI50
g706
sI23
g370
sI25
g387
sI27
g416
sI31
g465
ssI5
(dp735
I1
g64
sI6
g143
sI41
g603
sI16
g267
sI20
g324
sI27
g425
sI28
g430
sI31
g466
ssI6
(dp736
I33
g500
sI37
g551
sI1
g68
sI40
g595
sI12
g220
sI8
g166
sI18
g299
sI20
g325
sI21
g339
sI23
g361
sI24
g374
sI25
g389
sI26
g400
sI28
g431
ssI7
(dp737
I32
g484
sI1
g74
sI6
g144
sI33
g501
sI9
g179
sI42
g616
sI46
g656
sI15
g257
sI16
g268
sI50
g707
sI21
g340
sI26
g401
sI47
g667
sI31
g471
ssI8
(dp738
I33
g502
sI3
g99
sI1
g70
sI37
g553
sI35
g522
sI39
g580
sI10
g196
sI12
g222
sI13
g234
sI46
g657
sI47
g668
sI18
g300
sI19
g317
sI30
g454
ssI9
(dp739
I43
g627
sI6
g145
sI11
g211
sI13
g235
sI16
g269
sI18
g307
sI3
g93
sI20
g332
sI25
g390
sI26
g403
ssI10
(dp740
I32
g485
sI35
g533
sI37
g554
sI43
g628
sI44
g637
sI45
g646
sI47
g669
sI20
g327
sI26
g404
sI27
g419
sI29
g444
sI31
g480
ssI11
(dp741
I1
g71
sI36
g537
sI5
g127
sI38
g570
sI39
g581
sI41
g604
sI10
g203
sI44
g638
sI46
g658
sI15
g258
sI49
g694
sI50
g708
sI22
g353
sI26
g405
sI30
g456
ssI12
(dp742
I48
g681
sI2
g82
sI35
g523
sI36
g538
sI42
g617
sI16
g271
sI18
g302
sI3
g94
sI10
g200
sI31
g472
ssI13
(dp743
I32
g489
sI1
g72
sI3
g97
sI36
g539
sI11
g213
sI45
g648
sI16
g272
sI19
g320
sI26
g406
ssI14
(dp744
I33
g504
sI2
g83
sI3
g96
sI48
g683
sI37
g560
sI39
g585
sI10
g201
sI18
g303
sI45
g651
sI16
g277
sI49
g695
sI50
g709
sI42
g618
sI20
g329
sI22
g354
sI23
g366
sI24
g376
sI36
g540
sI26
g407
sI29
g446
ssI15
(dp745
I32
g494
sI35
g529
sI38
g572
sI10
g202
sI12
g223
sI45
g650
sI17
g293
sI24
g377
sI27
g423
sI31
g474
ssI16
(dp746
I33
g505
sI36
g541
sI37
g550
sI38
g573
sI7
g157
sI42
g619
sI12
g224
sI15
g261
sI49
g696
sI18
g305
sI20
g330
sI23
g367
sI28
g433
sI30
g458
ssI17
(dp747
I1
g69
sI36
g542
sI37
g558
sI38
g574
sI41
g607
sI42
g620
sI44
g639
sI50
g710
sI28
g432
ssI18
(dp748
I33
g506
sI34
g515
sI35
g527
sI37
g559
sI49
g697
sI40
g598
sI9
g185
sI43
g630
sI13
g238
sI14
g248
sI47
g672
sI17
g294
sI50
g711
sI20
g331
sI30
g457
sI31
g476
ssI19
(dp749
I33
g507
sI34
g516
sI35
g531
sI4
g112
sI7
g159
sI40
g599
sI9
g186
sI14
g249
sI17
g295
sI50
g712
sI29
g449
ssI20
(dp750
I16
g276
sI2
g87
sI3
g100
sI8
g171
sI9
g187
sI11
g215
sI46
g659
sI48
g685
sI22
g355
sI23
g368
sI26
g408
ssI21
(dp751
I32
g491
sI33
g508
sI3
g95
sI36
g544
sI37
g562
sI14
g250
sI50
g713
sI46
g660
sI5
g130
ssI22
(dp752
I36
g545
sI5
g131
sI13
g239
sI15
g263
sI16
g278
sI50
g714
sI23
g369
sI4
g113
ssI23
(dp753
I32
g492
sI48
g686
sI34
g517
sI3
g102
sI36
g546
sI37
g561
sI6
g146
sI39
g586
sI9
g188
sI10
g205
sI44
g640
sI46
g661
sI16
g279
sI49
g699
sI50
g715
sI19
g321
sI25
g393
sI28
g435
sI5
g132
ssI24
(dp754
I33
g509
sI3
g103
sI4
g114
sI5
g133
sI6
g147
sI48
g687
sI41
g608
sI14
g251
sI16
g280
sI18
g308
sI9
g189
sI25
g394
sI28
g436
sI31
g477
ssI25
(dp755
I33
g510
sI35
g532
sI36
g547
sI11
g216
sI12
g225
sI15
g264
sI18
g309
sI21
g345
sI24
g379
sI26
g409
ssI26
(dp756
I4
g115
sI5
g134
sI8
g172
sI12
g226
sI14
g252
sI15
g265
sI16
g281
sI17
g296
sI24
g380
sI31
g478
ssI27
(dp757
I48
g688
sI5
g135
sI6
g148
sI41
g609
sI42
g622
sI43
g631
sI12
g227
sI14
g253
sI16
g282
sI49
g700
sI22
g356
sI26
g410
sI10
g193
sI31
g479
ssI28
(dp758
I1
g75
sI3
g104
sI4
g116
sI7
g160
sI43
g632
sI12
g228
sI45
g653
sI47
g673
sI11
g217
sI49
g701
sI20
g333
sI17
g297
sI24
g381
sI39
g587
sI26
g411
sI13
g240
sI30
g461
ssI29
(dp759
I34
g518
sI3
g105
sI5
g136
sI6
g149
sI39
g588
sI10
g207
sI13
g241
sI14
g254
sI50
g716
sI49
g702
sI18
g310
sI21
g346
sI24
g382
sI27
g424
sI28
g437
ssI30
(dp760
I1
g76
sI4
g117
sI6
g150
sI39
g589
sI8
g173
sI12
g229
sI13
g242
sI47
g674
sI16
g283
sI18
g311
sI20
g334
sI25
g395
sI28
g438
ssI31
(dp761
I1
g77
sI3
g106
sI36
g548
sI37
g563
sI6
g151
sI39
g590
sI40
g600
sI41
g610
sI44
g641
sI12
g230
sI16
g284
sI8
g174
sI20
g335
sI21
g347
sI25
g396
sI49
g703
sI38
g575
sI29
g450
sI4
g118
ssI32
(dp762
I33
g496
sI35
g520
sI36
g535
sI49
g690
sI6
g138
sI39
g577
sI8
g162
sI9
g176
sI42
g612
sI13
g232
sI14
g244
sI17
g286
sI50
g717
sI40
g592
sI23
g358
sI27
g413
ssI33
(dp763
I3
g89
sI5
g120
sI6
g139
sI8
g163
sI10
g191
sI43
g624
sI47
g663
sI22
g349
sI24
g372
sI38
g565
sI30
g452
ssI34
(dp764
I3
g90
sI4
g108
sI5
g121
sI39
g578
sI40
g593
sI9
g181
sI42
g613
sI7
g153
sI45
g643
sI15
g260
sI17
g288
sI50
g718
sI19
g313
sI25
g385
sI26
g398
sI47
g664
sI28
g428
sI31
g473
ssI35
(dp765
I33
g498
sI34
g512
sI40
g594
sI42
g614
sI47
g665
sI50
g719
sI19
g314
sI21
g337
sI22
g350
sI24
g373
sI25
g386
sI26
g399
sI27
g415
sI29
g441
sI30
g453
ssI36
(dp766
I32
g493
sI4
g110
sI5
g123
sI38
g566
sI8
g164
sI46
g655
sI48
g676
sI17
g289
sI19
g315
sI22
g351
sI23
g360
sI6
g142
ssI37
(dp767
I2
g79
sI49
g692
sI8
g165
sI45
g644
sI47
g666
sI48
g677
sI17
g290
sI25
g388
sI27
g417
ssI38
(dp768
I32
g483
sI33
g499
sI5
g124
sI39
g579
sI43
g625
sI12
g221
sI45
g645
sI48
g678
sI50
g720
sI21
g338
ssI39
(dp769
I16
g270
sI37
g552
sI40
g596
sI10
g199
sI43
g626
sI44
g635
sI13
g233
sI48
g679
sI19
g316
sI21
g342
sI31
g467
ssI40
(dp770
I3
g92
sI38
g568
sI8
g167
sI10
g204
sI50
g721
sI22
g352
sI23
g362
sI26
g402
sI27
g418
sI29
g442
sI30
g459
sI31
g468
ssI41
(dp771
I7
g154
sI8
g168
sI10
g197
sI44
g636
sI18
g301
sI48
g680
sI50
g722
sI20
g326
sI21
g341
sI29
g443
sI30
g455
sI31
g469
ssI42
(dp772
I2
g80
sI35
g524
sI36
g536
sI49
g693
sI38
g569
sI7
g155
sI10
g198
sI14
g245
sI17
g291
sI50
g723
sI23
g363
sI5
g125
sI31
g470
ssI43
(dp773
I32
g486
sI2
g81
sI34
g513
sI5
g126
sI8
g169
sI13
g236
sI14
g246
sI23
g364
sI25
g391
sI27
g420
sI29
g445
ssI44
(dp774
I35
g526
sI17
g292
sI7
g156
sI9
g180
sI43
g629
sI45
g647
sI15
g259
sI48
g684
sI11
g212
sI50
g724
sI41
g605
sI23
g365
sI24
g375
sI39
g582
ssI45
(dp775
I32
g487
sI34
g514
sI35
g525
sI37
g555
sI39
g583
sI14
g247
sI48
g682
sI19
g318
sI21
g343
sI27
g421
ssI46
(dp776
I32
g488
sI19
g319
sI3
g101
sI4
g111
sI37
g556
sI38
g571
sI39
g584
sI8
g170
sI9
g182
sI13
g237
sI45
g649
sI47
g670
sI16
g273
sI49
g698
sI50
g725
sI35
g528
sI21
g344
sI25
g392
sI27
g422
ssI47
(dp777
I2
g84
sI40
g597
sI10
g206
sI45
g652
sI16
g274
sI18
g304
ssI48
(dp778
I3
g98
sI37
g557
sI38
g567
sI41
g606
sI11
g214
sI47
g671
sI50
g726
sI9
g183
sI29
g447
sI31
g475
ssI49
(dp779
I1
g73
sI2
g85
sI5
g128
sI7
g158
sI9
g184
sI10
g195
sI18
g306
sI16
g275
sI50
g727
sI24
g378
sI28
g434
ssI50
(dp780
I32
g490
sI33
g503
sI2
g86
sI35
g530
sI36
g543
sI5
g129
sI42
g621
sI15
g262
sI20
g328
sI29
g448
sI30
g460
sssS'adj'
p781
g62
sb.