ccopy_reg
_reconstructor
p1
(cnetworkx.classes.digraph
DiGraph
p2
c__builtin__
object
p3
NtRp4
(dp5
S'node'
p6
(dp7
I1
(dp8
S'demand'
p9
I10
ssI2
(dp10
g9
I7
ssI3
(dp11
g9
I10
ssI4
(dp12
g9
I10
ssI5
(dp13
g9
I2
ssI6
(dp14
g9
I7
ssI7
(dp15
g9
I5
ssI8
(dp16
g9
I3
ssI9
(dp17
g9
I9
ssI10
(dp18
g9
I6
ssI11
(dp19
g9
I10
ssI12
(dp20
g9
I5
ssI13
(dp21
g9
I6
ssI14
(dp22
g9
I3
ssI15
(dp23
g9
I7
ssI16
(dp24
g9
I7
ssI17
(dp25
g9
I8
ssI18
(dp26
g9
I2
ssI19
(dp27
g9
I8
ssI20
(dp28
g9
I9
ssI21
(dp29
g9
I3
ssI22
(dp30
g9
I5
ssI23
(dp31
g9
I5
ssI24
(dp32
g9
I6
ssI25
(dp33
g9
I9
ssI26
(dp34
g9
I0
ssI27
(dp35
g9
I0
ssI28
(dp36
g9
I0
ssI29
(dp37
g9
I0
ssI30
(dp38
g9
I0
ssI31
(dp39
g9
I0
ssI32
(dp40
g9
I0
ssI33
(dp41
g9
I0
ssI34
(dp42
g9
I0
ssI35
(dp43
g9
I0
ssI36
(dp44
g9
I0
ssI37
(dp45
g9
I0
ssI38
(dp46
g9
I0
ssI39
(dp47
g9
I0
ssI40
(dp48
g9
I0
ssI41
(dp49
g9
I0
ssI42
(dp50
g9
I0
ssI43
(dp51
g9
I0
ssI44
(dp52
g9
I0
ssI45
(dp53
g9
I0
ssI46
(dp54
g9
I0
ssI47
(dp55
g9
I0
ssI48
(dp56
g9
I0
ssI49
(dp57
g9
I0
ssI50
(dp58
g9
I-162
sssS'graph'
p59
(dp60
sS'succ'
p61
(dp62
I1
(dp63
I3
(dp64
S'capacity'
p65
I7
sS'fluxo'
p66
I0
sS'weight'
p67
I9
ssI4
(dp68
g65
I8
sg66
I0
sg67
I4
ssI5
(dp69
g65
I8
sg66
I0
sg67
I3
ssI6
(dp70
g65
I6
sg66
I0
sg67
I10
ssI7
(dp71
g65
I5
sg66
I0
sg67
I9
ssI8
(dp72
g65
I6
sg66
I0
sg67
I10
ssI9
(dp73
g65
I7
sg66
I0
sg67
I8
ssI10
(dp74
g65
I6
sg66
I0
sg67
I2
ssI11
(dp75
g65
I5
sg66
I0
sg67
I10
ssI12
(dp76
g65
I8
sg66
I0
sg67
I6
ssI13
(dp77
g65
I6
sg66
I0
sg67
I0
ssI15
(dp78
g65
I7
sg66
I0
sg67
I4
ssI17
(dp79
g65
I7
sg66
I0
sg67
I9
ssI18
(dp80
g65
I6
sg66
I0
sg67
I2
ssI22
(dp81
g65
I7
sg66
I0
sg67
I1
ssI23
(dp82
g65
I7
sg66
I0
sg67
I1
ssI24
(dp83
g65
I7
sg66
I0
sg67
I5
ssI25
(dp84
g65
I8
sg66
I0
sg67
I8
ssI27
(dp85
g65
I7
sg66
I0
sg67
I3
ssI30
(dp86
g65
I7
sg66
I0
sg67
I10
ssI31
(dp87
g65
I7
sg66
I0
sg67
I1
ssI33
(dp88
g65
I7
sg66
I0
sg67
I2
ssI35
(dp89
g65
I5
sg66
I0
sg67
I0
ssI36
(dp90
g65
I8
sg66
I0
sg67
I4
ssI37
(dp91
g65
I5
sg66
I0
sg67
I4
ssI39
(dp92
g65
I6
sg66
I0
sg67
I6
ssI41
(dp93
g65
I8
sg66
I0
sg67
I10
ssI42
(dp94
g65
I7
sg66
I0
sg67
I6
ssI44
(dp95
g65
I7
sg66
I0
sg67
I3
ssI45
(dp96
g65
I7
sg66
I0
sg67
I9
ssI46
(dp97
g65
I5
sg66
I0
sg67
I9
ssI47
(dp98
g65
I8
sg66
I0
sg67
I0
ssI48
(dp99
g65
I8
sg66
I0
sg67
I0
sssI2
(dp100
I1
(dp101
g65
I6
sg66
I0
sg67
I6
ssI3
(dp102
g65
I7
sg66
I0
sg67
I1
ssI5
(dp103
g65
I5
sg66
I0
sg67
I1
ssI7
(dp104
g65
I6
sg66
I0
sg67
I8
ssI8
(dp105
g65
I6
sg66
I0
sg67
I5
ssI9
(dp106
g65
I6
sg66
I0
sg67
I6
ssI10
(dp107
g65
I8
sg66
I0
sg67
I2
ssI11
(dp108
g65
I6
sg66
I0
sg67
I1
ssI13
(dp109
g65
I5
sg66
I0
sg67
I9
ssI14
(dp110
g65
I5
sg66
I0
sg67
I4
ssI15
(dp111
g65
I5
sg66
I0
sg67
I2
ssI16
(dp112
g65
I8
sg66
I0
sg67
I7
ssI18
(dp113
g65
I5
sg66
I0
sg67
I8
ssI19
(dp114
g65
I5
sg66
I0
sg67
I7
ssI22
(dp115
g65
I7
sg66
I0
sg67
I8
ssI25
(dp116
g65
I6
sg66
I0
sg67
I5
ssI26
(dp117
g65
I6
sg66
I0
sg67
I10
ssI27
(dp118
g65
I7
sg66
I0
sg67
I8
ssI28
(dp119
g65
I8
sg66
I0
sg67
I10
ssI29
(dp120
g65
I8
sg66
I0
sg67
I0
ssI31
(dp121
g65
I5
sg66
I0
sg67
I8
ssI32
(dp122
g65
I8
sg66
I0
sg67
I7
ssI33
(dp123
g65
I7
sg66
I0
sg67
I6
ssI34
(dp124
g65
I6
sg66
I0
sg67
I8
ssI37
(dp125
g65
I7
sg66
I0
sg67
I4
ssI38
(dp126
g65
I6
sg66
I0
sg67
I8
ssI39
(dp127
g65
I6
sg66
I0
sg67
I7
ssI41
(dp128
g65
I7
sg66
I0
sg67
I6
ssI43
(dp129
g65
I5
sg66
I0
sg67
I1
ssI45
(dp130
g65
I7
sg66
I0
sg67
I7
ssI46
(dp131
g65
I5
sg66
I0
sg67
I1
ssI47
(dp132
g65
I7
sg66
I0
sg67
I7
ssI48
(dp133
g65
I6
sg66
I0
sg67
I9
ssI49
(dp134
g65
I7
sg66
I0
sg67
I3
ssI50
(dp135
g65
I6
sg66
I0
sg67
I5
sssI3
(dp136
I2
(dp137
g65
I8
sg66
I0
sg67
I5
ssI5
(dp138
g65
I7
sg66
I0
sg67
I9
ssI6
(dp139
g65
I5
sg66
I0
sg67
I6
ssI7
(dp140
g65
I6
sg66
I0
sg67
I9
ssI8
(dp141
g65
I8
sg66
I0
sg67
I4
ssI10
(dp142
g65
I5
sg66
I0
sg67
I7
ssI12
(dp143
g65
I8
sg66
I0
sg67
I7
ssI13
(dp144
g65
I5
sg66
I0
sg67
I6
ssI14
(dp145
g65
I5
sg66
I0
sg67
I0
ssI15
(dp146
g65
I5
sg66
I0
sg67
I3
ssI16
(dp147
g65
I5
sg66
I0
sg67
I5
ssI17
(dp148
g65
I6
sg66
I0
sg67
I0
ssI18
(dp149
g65
I6
sg66
I0
sg67
I7
ssI20
(dp150
g65
I6
sg66
I0
sg67
I5
ssI21
(dp151
g65
I8
sg66
I0
sg67
I3
ssI24
(dp152
g65
I5
sg66
I0
sg67
I4
ssI25
(dp153
g65
I8
sg66
I0
sg67
I0
ssI26
(dp154
g65
I7
sg66
I0
sg67
I1
ssI27
(dp155
g65
I7
sg66
I0
sg67
I3
ssI29
(dp156
g65
I7
sg66
I0
sg67
I7
ssI30
(dp157
g65
I8
sg66
I0
sg67
I4
ssI32
(dp158
g65
I7
sg66
I0
sg67
I5
ssI33
(dp159
g65
I5
sg66
I0
sg67
I5
ssI34
(dp160
g65
I7
sg66
I0
sg67
I7
ssI35
(dp161
g65
I8
sg66
I0
sg67
I9
ssI38
(dp162
g65
I6
sg66
I0
sg67
I5
ssI40
(dp163
g65
I8
sg66
I0
sg67
I0
ssI41
(dp164
g65
I8
sg66
I0
sg67
I3
ssI44
(dp165
g65
I7
sg66
I0
sg67
I10
ssI45
(dp166
g65
I7
sg66
I0
sg67
I1
ssI47
(dp167
g65
I8
sg66
I0
sg67
I6
ssI48
(dp168
g65
I5
sg66
I0
sg67
I1
ssI49
(dp169
g65
I7
sg66
I0
sg67
I5
ssI50
(dp170
g65
I7
sg66
I0
sg67
I0
sssI4
(dp171
I1
(dp172
g65
I5
sg66
I0
sg67
I10
ssI2
(dp173
g65
I5
sg66
I0
sg67
I7
ssI3
(dp174
g65
I6
sg66
I0
sg67
I8
ssI5
(dp175
g65
I8
sg66
I0
sg67
I8
ssI7
(dp176
g65
I7
sg66
I0
sg67
I8
ssI8
(dp177
g65
I7
sg66
I0
sg67
I1
ssI10
(dp178
g65
I7
sg66
I0
sg67
I5
ssI11
(dp179
g65
I5
sg66
I0
sg67
I2
ssI12
(dp180
g65
I6
sg66
I0
sg67
I3
ssI13
(dp181
g65
I6
sg66
I0
sg67
I6
ssI14
(dp182
g65
I7
sg66
I0
sg67
I4
ssI15
(dp183
g65
I8
sg66
I0
sg67
I0
ssI16
(dp184
g65
I6
sg66
I0
sg67
I6
ssI17
(dp185
g65
I7
sg66
I0
sg67
I10
ssI18
(dp186
g65
I7
sg66
I0
sg67
I8
ssI19
(dp187
g65
I8
sg66
I0
sg67
I8
ssI20
(dp188
g65
I6
sg66
I0
sg67
I6
ssI21
(dp189
g65
I6
sg66
I0
sg67
I8
ssI22
(dp190
g65
I6
sg66
I0
sg67
I5
ssI23
(dp191
g65
I5
sg66
I0
sg67
I9
ssI25
(dp192
g65
I8
sg66
I0
sg67
I7
ssI28
(dp193
g65
I6
sg66
I0
sg67
I7
ssI29
(dp194
g65
I7
sg66
I0
sg67
I5
ssI30
(dp195
g65
I7
sg66
I0
sg67
I4
ssI31
(dp196
g65
I8
sg66
I0
sg67
I3
ssI32
(dp197
g65
I6
sg66
I0
sg67
I5
ssI34
(dp198
g65
I8
sg66
I0
sg67
I7
ssI35
(dp199
g65
I8
sg66
I0
sg67
I10
ssI36
(dp200
g65
I8
sg66
I0
sg67
I8
ssI37
(dp201
g65
I8
sg66
I0
sg67
I2
ssI38
(dp202
g65
I5
sg66
I0
sg67
I0
ssI39
(dp203
g65
I8
sg66
I0
sg67
I9
ssI40
(dp204
g65
I7
sg66
I0
sg67
I10
ssI42
(dp205
g65
I8
sg66
I0
sg67
I5
ssI43
(dp206
g65
I6
sg66
I0
sg67
I7
ssI44
(dp207
g65
I8
sg66
I0
sg67
I10
ssI45
(dp208
g65
I8
sg66
I0
sg67
I7
ssI46
(dp209
g65
I8
sg66
I0
sg67
I3
ssI47
(dp210
g65
I8
sg66
I0
sg67
I9
ssI50
(dp211
g65
I8
sg66
I0
sg67
I4
sssI5
(dp212
I2
(dp213
g65
I8
sg66
I0
sg67
I10
ssI3
(dp214
g65
I8
sg66
I0
sg67
I1
ssI4
(dp215
g65
I8
sg66
I0
sg67
I10
ssI7
(dp216
g65
I6
sg66
I0
sg67
I6
ssI8
(dp217
g65
I6
sg66
I0
sg67
I6
ssI9
(dp218
g65
I5
sg66
I0
sg67
I1
ssI10
(dp219
g65
I8
sg66
I0
sg67
I10
ssI11
(dp220
g65
I7
sg66
I0
sg67
I5
ssI14
(dp221
g65
I7
sg66
I0
sg67
I8
ssI15
(dp222
g65
I6
sg66
I0
sg67
I5
ssI16
(dp223
g65
I5
sg66
I0
sg67
I2
ssI17
(dp224
g65
I5
sg66
I0
sg67
I6
ssI18
(dp225
g65
I5
sg66
I0
sg67
I2
ssI19
(dp226
g65
I5
sg66
I0
sg67
I6
ssI20
(dp227
g65
I7
sg66
I0
sg67
I4
ssI21
(dp228
g65
I8
sg66
I0
sg67
I9
ssI22
(dp229
g65
I5
sg66
I0
sg67
I7
ssI23
(dp230
g65
I6
sg66
I0
sg67
I5
ssI24
(dp231
g65
I6
sg66
I0
sg67
I9
ssI26
(dp232
g65
I7
sg66
I0
sg67
I0
ssI27
(dp233
g65
I8
sg66
I0
sg67
I1
ssI31
(dp234
g65
I7
sg66
I0
sg67
I6
ssI32
(dp235
g65
I5
sg66
I0
sg67
I10
ssI34
(dp236
g65
I5
sg66
I0
sg67
I0
ssI35
(dp237
g65
I8
sg66
I0
sg67
I1
ssI36
(dp238
g65
I6
sg66
I0
sg67
I10
ssI37
(dp239
g65
I5
sg66
I0
sg67
I10
ssI38
(dp240
g65
I6
sg66
I0
sg67
I5
ssI39
(dp241
g65
I8
sg66
I0
sg67
I7
ssI40
(dp242
g65
I5
sg66
I0
sg67
I2
ssI41
(dp243
g65
I7
sg66
I0
sg67
I2
ssI42
(dp244
g65
I7
sg66
I0
sg67
I1
ssI43
(dp245
g65
I8
sg66
I0
sg67
I5
ssI45
(dp246
g65
I7
sg66
I0
sg67
I1
ssI46
(dp247
g65
I8
sg66
I0
sg67
I1
ssI47
(dp248
g65
I5
sg66
I0
sg67
I3
ssI48
(dp249
g65
I8
sg66
I0
sg67
I1
ssI49
(dp250
g65
I7
sg66
I0
sg67
I10
sssI6
(dp251
I1
(dp252
g65
I7
sg66
I0
sg67
I4
ssI2
(dp253
g65
I5
sg66
I0
sg67
I2
ssI4
(dp254
g65
I6
sg66
I0
sg67
I6
ssI5
(dp255
g65
I5
sg66
I0
sg67
I5
ssI7
(dp256
g65
I7
sg66
I0
sg67
I2
ssI9
(dp257
g65
I7
sg66
I0
sg67
I5
ssI10
(dp258
g65
I5
sg66
I0
sg67
I10
ssI12
(dp259
g65
I6
sg66
I0
sg67
I10
ssI13
(dp260
g65
I6
sg66
I0
sg67
I9
ssI15
(dp261
g65
I7
sg66
I0
sg67
I5
ssI16
(dp262
g65
I6
sg66
I0
sg67
I3
ssI17
(dp263
g65
I8
sg66
I0
sg67
I6
ssI18
(dp264
g65
I5
sg66
I0
sg67
I6
ssI19
(dp265
g65
I5
sg66
I0
sg67
I1
ssI21
(dp266
g65
I8
sg66
I0
sg67
I2
ssI22
(dp267
g65
I8
sg66
I0
sg67
I0
ssI24
(dp268
g65
I7
sg66
I0
sg67
I10
ssI25
(dp269
g65
I5
sg66
I0
sg67
I0
ssI27
(dp270
g65
I5
sg66
I0
sg67
I0
ssI28
(dp271
g65
I5
sg66
I0
sg67
I9
ssI29
(dp272
g65
I7
sg66
I0
sg67
I7
ssI31
(dp273
g65
I6
sg66
I0
sg67
I9
ssI33
(dp274
g65
I5
sg66
I0
sg67
I0
ssI34
(dp275
g65
I5
sg66
I0
sg67
I3
ssI35
(dp276
g65
I6
sg66
I0
sg67
I3
ssI36
(dp277
g65
I8
sg66
I0
sg67
I5
ssI38
(dp278
g65
I5
sg66
I0
sg67
I0
ssI39
(dp279
g65
I8
sg66
I0
sg67
I1
ssI40
(dp280
g65
I8
sg66
I0
sg67
I0
ssI41
(dp281
g65
I7
sg66
I0
sg67
I9
ssI42
(dp282
g65
I6
sg66
I0
sg67
I0
ssI44
(dp283
g65
I6
sg66
I0
sg67
I8
ssI47
(dp284
g65
I6
sg66
I0
sg67
I2
ssI48
(dp285
g65
I7
sg66
I0
sg67
I7
ssI49
(dp286
g65
I8
sg66
I0
sg67
I9
ssI50
(dp287
g65
I7
sg66
I0
sg67
I0
sssI7
(dp288
I2
(dp289
g65
I8
sg66
I0
sg67
I0
ssI4
(dp290
g65
I6
sg66
I0
sg67
I5
ssI8
(dp291
g65
I6
sg66
I0
sg67
I2
ssI10
(dp292
g65
I8
sg66
I0
sg67
I5
ssI11
(dp293
g65
I7
sg66
I0
sg67
I8
ssI12
(dp294
g65
I5
sg66
I0
sg67
I4
ssI14
(dp295
g65
I7
sg66
I0
sg67
I6
ssI15
(dp296
g65
I6
sg66
I0
sg67
I8
ssI17
(dp297
g65
I7
sg66
I0
sg67
I10
ssI18
(dp298
g65
I7
sg66
I0
sg67
I4
ssI19
(dp299
g65
I6
sg66
I0
sg67
I6
ssI20
(dp300
g65
I8
sg66
I0
sg67
I2
ssI21
(dp301
g65
I8
sg66
I0
sg67
I8
ssI22
(dp302
g65
I8
sg66
I0
sg67
I3
ssI23
(dp303
g65
I5
sg66
I0
sg67
I7
ssI24
(dp304
g65
I6
sg66
I0
sg67
I2
ssI25
(dp305
g65
I8
sg66
I0
sg67
I8
ssI26
(dp306
g65
I6
sg66
I0
sg67
I8
ssI31
(dp307
g65
I6
sg66
I0
sg67
I2
ssI32
(dp308
g65
I7
sg66
I0
sg67
I3
ssI34
(dp309
g65
I5
sg66
I0
sg67
I1
ssI38
(dp310
g65
I7
sg66
I0
sg67
I1
ssI41
(dp311
g65
I6
sg66
I0
sg67
I4
ssI42
(dp312
g65
I7
sg66
I0
sg67
I1
ssI43
(dp313
g65
I6
sg66
I0
sg67
I9
ssI44
(dp314
g65
I5
sg66
I0
sg67
I7
ssI46
(dp315
g65
I8
sg66
I0
sg67
I5
ssI48
(dp316
g65
I7
sg66
I0
sg67
I10
ssI49
(dp317
g65
I5
sg66
I0
sg67
I0
ssI50
(dp318
g65
I7
sg66
I0
sg67
I2
sssI8
(dp319
I1
(dp320
g65
I7
sg66
I0
sg67
I6
ssI4
(dp321
g65
I8
sg66
I0
sg67
I1
ssI5
(dp322
g65
I6
sg66
I0
sg67
I6
ssI6
(dp323
g65
I6
sg66
I0
sg67
I6
ssI7
(dp324
g65
I5
sg66
I0
sg67
I0
ssI9
(dp325
g65
I5
sg66
I0
sg67
I5
ssI10
(dp326
g65
I7
sg66
I0
sg67
I3
ssI11
(dp327
g65
I8
sg66
I0
sg67
I6
ssI12
(dp328
g65
I5
sg66
I0
sg67
I3
ssI13
(dp329
g65
I8
sg66
I0
sg67
I1
ssI14
(dp330
g65
I6
sg66
I0
sg67
I10
ssI15
(dp331
g65
I7
sg66
I0
sg67
I10
ssI16
(dp332
g65
I6
sg66
I0
sg67
I2
ssI17
(dp333
g65
I5
sg66
I0
sg67
I7
ssI18
(dp334
g65
I5
sg66
I0
sg67
I3
ssI20
(dp335
g65
I8
sg66
I0
sg67
I7
ssI21
(dp336
g65
I5
sg66
I0
sg67
I9
ssI22
(dp337
g65
I8
sg66
I0
sg67
I3
ssI23
(dp338
g65
I5
sg66
I0
sg67
I2
ssI24
(dp339
g65
I6
sg66
I0
sg67
I10
ssI26
(dp340
g65
I5
sg66
I0
sg67
I2
ssI27
(dp341
g65
I6
sg66
I0
sg67
I6
ssI29
(dp342
g65
I6
sg66
I0
sg67
I2
ssI30
(dp343
g65
I6
sg66
I0
sg67
I1
ssI31
(dp344
g65
I7
sg66
I0
sg67
I7
ssI32
(dp345
g65
I7
sg66
I0
sg67
I8
ssI33
(dp346
g65
I7
sg66
I0
sg67
I3
ssI34
(dp347
g65
I5
sg66
I0
sg67
I6
ssI35
(dp348
g65
I8
sg66
I0
sg67
I8
ssI36
(dp349
g65
I8
sg66
I0
sg67
I1
ssI38
(dp350
g65
I8
sg66
I0
sg67
I2
ssI41
(dp351
g65
I7
sg66
I0
sg67
I8
ssI42
(dp352
g65
I8
sg66
I0
sg67
I6
ssI43
(dp353
g65
I6
sg66
I0
sg67
I8
ssI44
(dp354
g65
I6
sg66
I0
sg67
I4
ssI45
(dp355
g65
I7
sg66
I0
sg67
I3
ssI46
(dp356
g65
I7
sg66
I0
sg67
I2
ssI47
(dp357
g65
I5
sg66
I0
sg67
I6
ssI48
(dp358
g65
I7
sg66
I0
sg67
I1
ssI49
(dp359
g65
I6
sg66
I0
sg67
I0
ssI50
(dp360
g65
I7
sg66
I0
sg67
I7
sssI9
(dp361
I1
(dp362
g65
I8
sg66
I0
sg67
I1
ssI3
(dp363
g65
I5
sg66
I0
sg67
I2
ssI5
(dp364
g65
I7
sg66
I0
sg67
I2
ssI6
(dp365
g65
I5
sg66
I0
sg67
I5
ssI7
(dp366
g65
I5
sg66
I0
sg67
I7
ssI8
(dp367
g65
I5
sg66
I0
sg67
I0
ssI10
(dp368
g65
I5
sg66
I0
sg67
I9
ssI11
(dp369
g65
I8
sg66
I0
sg67
I8
ssI13
(dp370
g65
I8
sg66
I0
sg67
I9
ssI14
(dp371
g65
I5
sg66
I0
sg67
I5
ssI15
(dp372
g65
I7
sg66
I0
sg67
I2
ssI16
(dp373
g65
I6
sg66
I0
sg67
I6
ssI17
(dp374
g65
I5
sg66
I0
sg67
I3
ssI18
(dp375
g65
I5
sg66
I0
sg67
I10
ssI19
(dp376
g65
I7
sg66
I0
sg67
I5
ssI20
(dp377
g65
I6
sg66
I0
sg67
I5
ssI21
(dp378
g65
I5
sg66
I0
sg67
I1
ssI22
(dp379
g65
I5
sg66
I0
sg67
I2
ssI23
(dp380
g65
I7
sg66
I0
sg67
I2
ssI24
(dp381
g65
I6
sg66
I0
sg67
I6
ssI28
(dp382
g65
I6
sg66
I0
sg67
I9
ssI29
(dp383
g65
I7
sg66
I0
sg67
I7
ssI31
(dp384
g65
I7
sg66
I0
sg67
I3
ssI32
(dp385
g65
I5
sg66
I0
sg67
I3
ssI33
(dp386
g65
I5
sg66
I0
sg67
I8
ssI34
(dp387
g65
I7
sg66
I0
sg67
I5
ssI35
(dp388
g65
I5
sg66
I0
sg67
I2
ssI36
(dp389
g65
I6
sg66
I0
sg67
I7
ssI38
(dp390
g65
I7
sg66
I0
sg67
I1
ssI39
(dp391
g65
I5
sg66
I0
sg67
I6
ssI40
(dp392
g65
I5
sg66
I0
sg67
I8
ssI42
(dp393
g65
I7
sg66
I0
sg67
I6
ssI44
(dp394
g65
I6
sg66
I0
sg67
I2
ssI45
(dp395
g65
I8
sg66
I0
sg67
I10
ssI47
(dp396
g65
I8
sg66
I0
sg67
I4
ssI49
(dp397
g65
I7
sg66
I0
sg67
I1
ssI50
(dp398
g65
I5
sg66
I0
sg67
I6
sssI10
(dp399
I1
(dp400
g65
I5
sg66
I0
sg67
I1
ssI3
(dp401
g65
I7
sg66
I0
sg67
I8
ssI5
(dp402
g65
I6
sg66
I0
sg67
I2
ssI6
(dp403
g65
I7
sg66
I0
sg67
I7
ssI8
(dp404
g65
I7
sg66
I0
sg67
I8
ssI9
(dp405
g65
I6
sg66
I0
sg67
I7
ssI11
(dp406
g65
I5
sg66
I0
sg67
I8
ssI12
(dp407
g65
I7
sg66
I0
sg67
I2
ssI14
(dp408
g65
I8
sg66
I0
sg67
I7
ssI16
(dp409
g65
I7
sg66
I0
sg67
I4
ssI17
(dp410
g65
I5
sg66
I0
sg67
I7
ssI18
(dp411
g65
I5
sg66
I0
sg67
I3
ssI19
(dp412
g65
I5
sg66
I0
sg67
I0
ssI21
(dp413
g65
I5
sg66
I0
sg67
I1
ssI22
(dp414
g65
I7
sg66
I0
sg67
I2
ssI23
(dp415
g65
I5
sg66
I0
sg67
I6
ssI24
(dp416
g65
I7
sg66
I0
sg67
I1
ssI27
(dp417
g65
I8
sg66
I0
sg67
I7
ssI29
(dp418
g65
I5
sg66
I0
sg67
I9
ssI30
(dp419
g65
I8
sg66
I0
sg67
I8
ssI31
(dp420
g65
I6
sg66
I0
sg67
I2
ssI32
(dp421
g65
I5
sg66
I0
sg67
I3
ssI34
(dp422
g65
I6
sg66
I0
sg67
I4
ssI36
(dp423
g65
I8
sg66
I0
sg67
I4
ssI37
(dp424
g65
I7
sg66
I0
sg67
I0
ssI40
(dp425
g65
I8
sg66
I0
sg67
I2
ssI41
(dp426
g65
I7
sg66
I0
sg67
I2
ssI42
(dp427
g65
I6
sg66
I0
sg67
I5
ssI44
(dp428
g65
I8
sg66
I0
sg67
I2
ssI45
(dp429
g65
I6
sg66
I0
sg67
I6
ssI48
(dp430
g65
I5
sg66
I0
sg67
I6
ssI49
(dp431
g65
I8
sg66
I0
sg67
I2
ssI50
(dp432
g65
I6
sg66
I0
sg67
I2
sssI11
(dp433
I1
(dp434
g65
I5
sg66
I0
sg67
I9
ssI3
(dp435
g65
I5
sg66
I0
sg67
I7
ssI4
(dp436
g65
I8
sg66
I0
sg67
I8
ssI6
(dp437
g65
I8
sg66
I0
sg67
I0
ssI7
(dp438
g65
I8
sg66
I0
sg67
I3
ssI8
(dp439
g65
I5
sg66
I0
sg67
I0
ssI12
(dp440
g65
I5
sg66
I0
sg67
I7
ssI13
(dp441
g65
I7
sg66
I0
sg67
I10
ssI14
(dp442
g65
I5
sg66
I0
sg67
I1
ssI15
(dp443
g65
I7
sg66
I0
sg67
I4
ssI17
(dp444
g65
I7
sg66
I0
sg67
I1
ssI18
(dp445
g65
I6
sg66
I0
sg67
I6
ssI19
(dp446
g65
I6
sg66
I0
sg67
I6
ssI21
(dp447
g65
I7
sg66
I0
sg67
I5
ssI22
(dp448
g65
I7
sg66
I0
sg67
I4
ssI23
(dp449
g65
I8
sg66
I0
sg67
I7
ssI24
(dp450
g65
I6
sg66
I0
sg67
I3
ssI25
(dp451
g65
I5
sg66
I0
sg67
I1
ssI26
(dp452
g65
I6
sg66
I0
sg67
I2
ssI27
(dp453
g65
I5
sg66
I0
sg67
I5
ssI28
(dp454
g65
I5
sg66
I0
sg67
I7
ssI29
(dp455
g65
I7
sg66
I0
sg67
I6
ssI30
(dp456
g65
I5
sg66
I0
sg67
I10
ssI32
(dp457
g65
I8
sg66
I0
sg67
I6
ssI33
(dp458
g65
I5
sg66
I0
sg67
I3
ssI35
(dp459
g65
I6
sg66
I0
sg67
I0
ssI38
(dp460
g65
I6
sg66
I0
sg67
I4
ssI40
(dp461
g65
I7
sg66
I0
sg67
I8
ssI42
(dp462
g65
I6
sg66
I0
sg67
I9
ssI43
(dp463
g65
I7
sg66
I0
sg67
I2
ssI44
(dp464
g65
I5
sg66
I0
sg67
I10
ssI46
(dp465
g65
I5
sg66
I0
sg67
I6
ssI47
(dp466
g65
I8
sg66
I0
sg67
I6
ssI48
(dp467
g65
I6
sg66
I0
sg67
I4
ssI49
(dp468
g65
I5
sg66
I0
sg67
I6
ssI50
(dp469
g65
I6
sg66
I0
sg67
I8
sssI12
(dp470
I1
(dp471
g65
I5
sg66
I0
sg67
I0
ssI2
(dp472
g65
I7
sg66
I0
sg67
I4
ssI3
(dp473
g65
I7
sg66
I0
sg67
I2
ssI6
(dp474
g65
I6
sg66
I0
sg67
I3
ssI7
(dp475
g65
I8
sg66
I0
sg67
I5
ssI8
(dp476
g65
I6
sg66
I0
sg67
I5
ssI9
(dp477
g65
I6
sg66
I0
sg67
I0
ssI10
(dp478
g65
I8
sg66
I0
sg67
I6
ssI13
(dp479
g65
I7
sg66
I0
sg67
I1
ssI14
(dp480
g65
I5
sg66
I0
sg67
I2
ssI15
(dp481
g65
I7
sg66
I0
sg67
I6
ssI16
(dp482
g65
I5
sg66
I0
sg67
I3
ssI17
(dp483
g65
I5
sg66
I0
sg67
I8
ssI19
(dp484
g65
I6
sg66
I0
sg67
I7
ssI20
(dp485
g65
I8
sg66
I0
sg67
I7
ssI22
(dp486
g65
I5
sg66
I0
sg67
I2
ssI23
(dp487
g65
I7
sg66
I0
sg67
I4
ssI24
(dp488
g65
I5
sg66
I0
sg67
I5
ssI25
(dp489
g65
I6
sg66
I0
sg67
I4
ssI26
(dp490
g65
I8
sg66
I0
sg67
I0
ssI27
(dp491
g65
I8
sg66
I0
sg67
I3
ssI29
(dp492
g65
I6
sg66
I0
sg67
I0
ssI30
(dp493
g65
I8
sg66
I0
sg67
I2
ssI31
(dp494
g65
I5
sg66
I0
sg67
I8
ssI32
(dp495
g65
I7
sg66
I0
sg67
I10
ssI33
(dp496
g65
I8
sg66
I0
sg67
I1
ssI36
(dp497
g65
I5
sg66
I0
sg67
I9
ssI37
(dp498
g65
I7
sg66
I0
sg67
I7
ssI38
(dp499
g65
I8
sg66
I0
sg67
I5
ssI41
(dp500
g65
I8
sg66
I0
sg67
I5
ssI42
(dp501
g65
I7
sg66
I0
sg67
I8
ssI44
(dp502
g65
I5
sg66
I0
sg67
I3
ssI45
(dp503
g65
I6
sg66
I0
sg67
I3
ssI48
(dp504
g65
I6
sg66
I0
sg67
I9
ssI49
(dp505
g65
I6
sg66
I0
sg67
I3
sssI13
(dp506
I1
(dp507
g65
I8
sg66
I0
sg67
I4
ssI3
(dp508
g65
I6
sg66
I0
sg67
I9
ssI4
(dp509
g65
I7
sg66
I0
sg67
I9
ssI5
(dp510
g65
I7
sg66
I0
sg67
I10
ssI6
(dp511
g65
I5
sg66
I0
sg67
I9
ssI8
(dp512
g65
I8
sg66
I0
sg67
I4
ssI9
(dp513
g65
I5
sg66
I0
sg67
I0
ssI11
(dp514
g65
I8
sg66
I0
sg67
I1
ssI12
(dp515
g65
I7
sg66
I0
sg67
I2
ssI14
(dp516
g65
I6
sg66
I0
sg67
I4
ssI15
(dp517
g65
I5
sg66
I0
sg67
I10
ssI17
(dp518
g65
I6
sg66
I0
sg67
I2
ssI19
(dp519
g65
I7
sg66
I0
sg67
I4
ssI20
(dp520
g65
I7
sg66
I0
sg67
I0
ssI21
(dp521
g65
I6
sg66
I0
sg67
I9
ssI23
(dp522
g65
I6
sg66
I0
sg67
I10
ssI24
(dp523
g65
I6
sg66
I0
sg67
I4
ssI26
(dp524
g65
I6
sg66
I0
sg67
I10
ssI27
(dp525
g65
I6
sg66
I0
sg67
I5
ssI28
(dp526
g65
I8
sg66
I0
sg67
I10
ssI29
(dp527
g65
I8
sg66
I0
sg67
I4
ssI30
(dp528
g65
I7
sg66
I0
sg67
I2
ssI31
(dp529
g65
I6
sg66
I0
sg67
I9
ssI32
(dp530
g65
I8
sg66
I0
sg67
I6
ssI34
(dp531
g65
I5
sg66
I0
sg67
I0
ssI35
(dp532
g65
I7
sg66
I0
sg67
I9
ssI36
(dp533
g65
I5
sg66
I0
sg67
I3
ssI38
(dp534
g65
I5
sg66
I0
sg67
I10
ssI40
(dp535
g65
I5
sg66
I0
sg67
I9
ssI41
(dp536
g65
I5
sg66
I0
sg67
I9
ssI43
(dp537
g65
I8
sg66
I0
sg67
I0
ssI44
(dp538
g65
I5
sg66
I0
sg67
I1
ssI45
(dp539
g65
I7
sg66
I0
sg67
I2
ssI48
(dp540
g65
I8
sg66
I0
sg67
I10
ssI49
(dp541
g65
I8
sg66
I0
sg67
I10
ssI50
(dp542
g65
I7
sg66
I0
sg67
I10
sssI14
(dp543
I1
(dp544
g65
I7
sg66
I0
sg67
I7
ssI2
(dp545
g65
I8
sg66
I0
sg67
I7
ssI3
(dp546
g65
I6
sg66
I0
sg67
I10
ssI4
(dp547
g65
I5
sg66
I0
sg67
I9
ssI5
(dp548
g65
I8
sg66
I0
sg67
I0
ssI6
(dp549
g65
I7
sg66
I0
sg67
I7
ssI7
(dp550
g65
I6
sg66
I0
sg67
I5
ssI9
(dp551
g65
I5
sg66
I0
sg67
I7
ssI11
(dp552
g65
I6
sg66
I0
sg67
I6
ssI13
(dp553
g65
I7
sg66
I0
sg67
I1
ssI15
(dp554
g65
I5
sg66
I0
sg67
I9
ssI16
(dp555
g65
I6
sg66
I0
sg67
I5
ssI20
(dp556
g65
I6
sg66
I0
sg67
I2
ssI21
(dp557
g65
I5
sg66
I0
sg67
I5
ssI22
(dp558
g65
I8
sg66
I0
sg67
I3
ssI23
(dp559
g65
I6
sg66
I0
sg67
I3
ssI24
(dp560
g65
I8
sg66
I0
sg67
I5
ssI25
(dp561
g65
I7
sg66
I0
sg67
I9
ssI27
(dp562
g65
I6
sg66
I0
sg67
I9
ssI28
(dp563
g65
I7
sg66
I0
sg67
I2
ssI30
(dp564
g65
I5
sg66
I0
sg67
I4
ssI31
(dp565
g65
I8
sg66
I0
sg67
I4
ssI33
(dp566
g65
I5
sg66
I0
sg67
I0
ssI36
(dp567
g65
I7
sg66
I0
sg67
I6
ssI37
(dp568
g65
I5
sg66
I0
sg67
I0
ssI38
(dp569
g65
I8
sg66
I0
sg67
I0
ssI39
(dp570
g65
I7
sg66
I0
sg67
I2
ssI40
(dp571
g65
I5
sg66
I0
sg67
I5
ssI41
(dp572
g65
I8
sg66
I0
sg67
I6
ssI42
(dp573
g65
I7
sg66
I0
sg67
I3
ssI43
(dp574
g65
I8
sg66
I0
sg67
I6
ssI44
(dp575
g65
I5
sg66
I0
sg67
I9
ssI45
(dp576
g65
I8
sg66
I0
sg67
I0
ssI46
(dp577
g65
I6
sg66
I0
sg67
I10
ssI48
(dp578
g65
I6
sg66
I0
sg67
I5
sssI15
(dp579
I1
(dp580
g65
I7
sg66
I0
sg67
I2
ssI2
(dp581
g65
I6
sg66
I0
sg67
I10
ssI3
(dp582
g65
I6
sg66
I0
sg67
I4
ssI5
(dp583
g65
I6
sg66
I0
sg67
I5
ssI8
(dp584
g65
I8
sg66
I0
sg67
I6
ssI9
(dp585
g65
I8
sg66
I0
sg67
I10
ssI11
(dp586
g65
I5
sg66
I0
sg67
I10
ssI12
(dp587
g65
I8
sg66
I0
sg67
I4
ssI14
(dp588
g65
I8
sg66
I0
sg67
I7
ssI16
(dp589
g65
I6
sg66
I0
sg67
I10
ssI17
(dp590
g65
I7
sg66
I0
sg67
I4
ssI18
(dp591
g65
I6
sg66
I0
sg67
I5
ssI19
(dp592
g65
I5
sg66
I0
sg67
I10
ssI20
(dp593
g65
I8
sg66
I0
sg67
I4
ssI22
(dp594
g65
I6
sg66
I0
sg67
I9
ssI24
(dp595
g65
I6
sg66
I0
sg67
I10
ssI25
(dp596
g65
I8
sg66
I0
sg67
I3
ssI28
(dp597
g65
I8
sg66
I0
sg67
I9
ssI29
(dp598
g65
I7
sg66
I0
sg67
I0
ssI34
(dp599
g65
I5
sg66
I0
sg67
I2
ssI35
(dp600
g65
I7
sg66
I0
sg67
I2
ssI37
(dp601
g65
I6
sg66
I0
sg67
I3
ssI38
(dp602
g65
I5
sg66
I0
sg67
I10
ssI39
(dp603
g65
I7
sg66
I0
sg67
I0
ssI40
(dp604
g65
I7
sg66
I0
sg67
I2
ssI41
(dp605
g65
I6
sg66
I0
sg67
I0
ssI42
(dp606
g65
I8
sg66
I0
sg67
I5
ssI43
(dp607
g65
I7
sg66
I0
sg67
I1
ssI44
(dp608
g65
I5
sg66
I0
sg67
I2
ssI45
(dp609
g65
I6
sg66
I0
sg67
I10
ssI46
(dp610
g65
I5
sg66
I0
sg67
I8
ssI48
(dp611
g65
I8
sg66
I0
sg67
I0
ssI49
(dp612
g65
I8
sg66
I0
sg67
I7
ssI50
(dp613
g65
I6
sg66
I0
sg67
I10
sssI16
(dp614
I1
(dp615
g65
I8
sg66
I0
sg67
I1
ssI2
(dp616
g65
I7
sg66
I0
sg67
I6
ssI3
(dp617
g65
I7
sg66
I0
sg67
I0
ssI4
(dp618
g65
I6
sg66
I0
sg67
I9
ssI7
(dp619
g65
I8
sg66
I0
sg67
I1
ssI8
(dp620
g65
I7
sg66
I0
sg67
I7
ssI9
(dp621
g65
I8
sg66
I0
sg67
I3
ssI10
(dp622
g65
I7
sg66
I0
sg67
I0
ssI13
(dp623
g65
I6
sg66
I0
sg67
I3
ssI14
(dp624
g65
I5
sg66
I0
sg67
I8
ssI15
(dp625
g65
I8
sg66
I0
sg67
I10
ssI17
(dp626
g65
I5
sg66
I0
sg67
I5
ssI19
(dp627
g65
I5
sg66
I0
sg67
I5
ssI20
(dp628
g65
I8
sg66
I0
sg67
I2
ssI21
(dp629
g65
I7
sg66
I0
sg67
I6
ssI23
(dp630
g65
I8
sg66
I0
sg67
I4
ssI24
(dp631
g65
I7
sg66
I0
sg67
I1
ssI25
(dp632
g65
I8
sg66
I0
sg67
I8
ssI28
(dp633
g65
I8
sg66
I0
sg67
I3
ssI29
(dp634
g65
I7
sg66
I0
sg67
I8
ssI30
(dp635
g65
I8
sg66
I0
sg67
I9
ssI31
(dp636
g65
I8
sg66
I0
sg67
I1
ssI33
(dp637
g65
I7
sg66
I0
sg67
I10
ssI35
(dp638
g65
I7
sg66
I0
sg67
I8
ssI36
(dp639
g65
I6
sg66
I0
sg67
I4
ssI38
(dp640
g65
I6
sg66
I0
sg67
I10
ssI39
(dp641
g65
I5
sg66
I0
sg67
I0
ssI40
(dp642
g65
I5
sg66
I0
sg67
I5
ssI42
(dp643
g65
I7
sg66
I0
sg67
I1
ssI43
(dp644
g65
I5
sg66
I0
sg67
I1
ssI44
(dp645
g65
I5
sg66
I0
sg67
I6
ssI46
(dp646
g65
I5
sg66
I0
sg67
I4
ssI48
(dp647
g65
I8
sg66
I0
sg67
I10
ssI49
(dp648
g65
I6
sg66
I0
sg67
I7
ssI50
(dp649
g65
I7
sg66
I0
sg67
I5
sssI17
(dp650
I1
(dp651
g65
I7
sg66
I0
sg67
I8
ssI2
(dp652
g65
I7
sg66
I0
sg67
I9
ssI3
(dp653
g65
I8
sg66
I0
sg67
I10
ssI4
(dp654
g65
I6
sg66
I0
sg67
I1
ssI5
(dp655
g65
I7
sg66
I0
sg67
I8
ssI6
(dp656
g65
I6
sg66
I0
sg67
I8
ssI9
(dp657
g65
I6
sg66
I0
sg67
I1
ssI10
(dp658
g65
I8
sg66
I0
sg67
I5
ssI12
(dp659
g65
I8
sg66
I0
sg67
I2
ssI14
(dp660
g65
I6
sg66
I0
sg67
I3
ssI15
(dp661
g65
I5
sg66
I0
sg67
I10
ssI18
(dp662
g65
I6
sg66
I0
sg67
I5
ssI19
(dp663
g65
I6
sg66
I0
sg67
I1
ssI20
(dp664
g65
I7
sg66
I0
sg67
I7
ssI21
(dp665
g65
I5
sg66
I0
sg67
I2
ssI22
(dp666
g65
I7
sg66
I0
sg67
I7
ssI23
(dp667
g65
I8
sg66
I0
sg67
I7
ssI25
(dp668
g65
I8
sg66
I0
sg67
I10
ssI27
(dp669
g65
I7
sg66
I0
sg67
I9
ssI29
(dp670
g65
I5
sg66
I0
sg67
I9
ssI30
(dp671
g65
I5
sg66
I0
sg67
I3
ssI31
(dp672
g65
I6
sg66
I0
sg67
I7
ssI32
(dp673
g65
I8
sg66
I0
sg67
I2
ssI33
(dp674
g65
I8
sg66
I0
sg67
I5
ssI34
(dp675
g65
I8
sg66
I0
sg67
I7
ssI35
(dp676
g65
I8
sg66
I0
sg67
I0
ssI37
(dp677
g65
I7
sg66
I0
sg67
I3
ssI38
(dp678
g65
I5
sg66
I0
sg67
I5
ssI39
(dp679
g65
I5
sg66
I0
sg67
I8
ssI40
(dp680
g65
I8
sg66
I0
sg67
I8
ssI41
(dp681
g65
I6
sg66
I0
sg67
I6
ssI42
(dp682
g65
I8
sg66
I0
sg67
I3
ssI44
(dp683
g65
I7
sg66
I0
sg67
I6
ssI45
(dp684
g65
I5
sg66
I0
sg67
I2
ssI46
(dp685
g65
I8
sg66
I0
sg67
I9
ssI49
(dp686
g65
I7
sg66
I0
sg67
I9
ssI50
(dp687
g65
I5
sg66
I0
sg67
I9
sssI18
(dp688
I2
(dp689
g65
I8
sg66
I0
sg67
I5
ssI3
(dp690
g65
I7
sg66
I0
sg67
I4
ssI4
(dp691
g65
I7
sg66
I0
sg67
I5
ssI5
(dp692
g65
I6
sg66
I0
sg67
I4
ssI9
(dp693
g65
I8
sg66
I0
sg67
I3
ssI10
(dp694
g65
I8
sg66
I0
sg67
I7
ssI11
(dp695
g65
I6
sg66
I0
sg67
I6
ssI12
(dp696
g65
I8
sg66
I0
sg67
I6
ssI14
(dp697
g65
I5
sg66
I0
sg67
I4
ssI15
(dp698
g65
I6
sg66
I0
sg67
I2
ssI16
(dp699
g65
I7
sg66
I0
sg67
I2
ssI17
(dp700
g65
I8
sg66
I0
sg67
I8
ssI19
(dp701
g65
I7
sg66
I0
sg67
I6
ssI20
(dp702
g65
I5
sg66
I0
sg67
I4
ssI21
(dp703
g65
I8
sg66
I0
sg67
I3
ssI22
(dp704
g65
I6
sg66
I0
sg67
I3
ssI23
(dp705
g65
I8
sg66
I0
sg67
I6
ssI24
(dp706
g65
I7
sg66
I0
sg67
I1
ssI26
(dp707
g65
I7
sg66
I0
sg67
I8
ssI27
(dp708
g65
I5
sg66
I0
sg67
I7
ssI28
(dp709
g65
I6
sg66
I0
sg67
I3
ssI29
(dp710
g65
I7
sg66
I0
sg67
I0
ssI30
(dp711
g65
I5
sg66
I0
sg67
I0
ssI35
(dp712
g65
I5
sg66
I0
sg67
I6
ssI36
(dp713
g65
I5
sg66
I0
sg67
I10
ssI37
(dp714
g65
I7
sg66
I0
sg67
I6
ssI39
(dp715
g65
I8
sg66
I0
sg67
I10
ssI40
(dp716
g65
I7
sg66
I0
sg67
I6
ssI41
(dp717
g65
I6
sg66
I0
sg67
I8
ssI42
(dp718
g65
I6
sg66
I0
sg67
I8
ssI43
(dp719
g65
I7
sg66
I0
sg67
I5
ssI44
(dp720
g65
I5
sg66
I0
sg67
I5
ssI45
(dp721
g65
I6
sg66
I0
sg67
I6
ssI46
(dp722
g65
I8
sg66
I0
sg67
I1
ssI47
(dp723
g65
I8
sg66
I0
sg67
I6
ssI48
(dp724
g65
I5
sg66
I0
sg67
I2
ssI49
(dp725
g65
I6
sg66
I0
sg67
I9
ssI50
(dp726
g65
I6
sg66
I0
sg67
I4
sssI19
(dp727
I1
(dp728
g65
I6
sg66
I0
sg67
I0
ssI3
(dp729
g65
I6
sg66
I0
sg67
I4
ssI4
(dp730
g65
I5
sg66
I0
sg67
I2
ssI6
(dp731
g65
I5
sg66
I0
sg67
I1
ssI7
(dp732
g65
I7
sg66
I0
sg67
I9
ssI8
(dp733
g65
I7
sg66
I0
sg67
I9
ssI9
(dp734
g65
I6
sg66
I0
sg67
I4
ssI11
(dp735
g65
I5
sg66
I0
sg67
I3
ssI12
(dp736
g65
I7
sg66
I0
sg67
I0
ssI15
(dp737
g65
I5
sg66
I0
sg67
I0
ssI16
(dp738
g65
I6
sg66
I0
sg67
I4
ssI17
(dp739
g65
I5
sg66
I0
sg67
I8
ssI18
(dp740
g65
I6
sg66
I0
sg67
I10
ssI22
(dp741
g65
I8
sg66
I0
sg67
I4
ssI23
(dp742
g65
I7
sg66
I0
sg67
I4
ssI24
(dp743
g65
I6
sg66
I0
sg67
I7
ssI25
(dp744
g65
I5
sg66
I0
sg67
I8
ssI26
(dp745
g65
I6
sg66
I0
sg67
I9
ssI27
(dp746
g65
I5
sg66
I0
sg67
I5
ssI28
(dp747
g65
I7
sg66
I0
sg67
I5
ssI29
(dp748
g65
I5
sg66
I0
sg67
I3
ssI30
(dp749
g65
I5
sg66
I0
sg67
I10
ssI31
(dp750
g65
I6
sg66
I0
sg67
I3
ssI33
(dp751
g65
I8
sg66
I0
sg67
I10
ssI35
(dp752
g65
I7
sg66
I0
sg67
I10
ssI37
(dp753
g65
I6
sg66
I0
sg67
I0
ssI38
(dp754
g65
I7
sg66
I0
sg67
I5
ssI39
(dp755
g65
I7
sg66
I0
sg67
I7
ssI40
(dp756
g65
I6
sg66
I0
sg67
I0
ssI42
(dp757
g65
I7
sg66
I0
sg67
I10
ssI43
(dp758
g65
I6
sg66
I0
sg67
I9
ssI44
(dp759
g65
I5
sg66
I0
sg67
I5
ssI47
(dp760
g65
I7
sg66
I0
sg67
I0
ssI48
(dp761
g65
I5
sg66
I0
sg67
I9
ssI49
(dp762
g65
I6
sg66
I0
sg67
I7
ssI50
(dp763
g65
I6
sg66
I0
sg67
I6
sssI20
(dp764
I1
(dp765
g65
I6
sg66
I0
sg67
I0
ssI2
(dp766
g65
I6
sg66
I0
sg67
I4
ssI3
(dp767
g65
I8
sg66
I0
sg67
I8
ssI4
(dp768
g65
I5
sg66
I0
sg67
I10
ssI5
(dp769
g65
I8
sg66
I0
sg67
I1
ssI8
(dp770
g65
I8
sg66
I0
sg67
I8
ssI9
(dp771
g65
I8
sg66
I0
sg67
I1
ssI13
(dp772
g65
I5
sg66
I0
sg67
I5
ssI14
(dp773
g65
I8
sg66
I0
sg67
I0
ssI16
(dp774
g65
I5
sg66
I0
sg67
I7
ssI17
(dp775
g65
I7
sg66
I0
sg67
I4
ssI18
(dp776
g65
I8
sg66
I0
sg67
I1
ssI19
(dp777
g65
I8
sg66
I0
sg67
I2
ssI21
(dp778
g65
I6
sg66
I0
sg67
I3
ssI22
(dp779
g65
I8
sg66
I0
sg67
I2
ssI23
(dp780
g65
I7
sg66
I0
sg67
I4
ssI24
(dp781
g65
I7
sg66
I0
sg67
I2
ssI25
(dp782
g65
I8
sg66
I0
sg67
I2
ssI26
(dp783
g65
I8
sg66
I0
sg67
I1
ssI30
(dp784
g65
I8
sg66
I0
sg67
I8
ssI32
(dp785
g65
I7
sg66
I0
sg67
I2
ssI33
(dp786
g65
I6
sg66
I0
sg67
I3
ssI34
(dp787
g65
I8
sg66
I0
sg67
I9
ssI35
(dp788
g65
I8
sg66
I0
sg67
I4
ssI36
(dp789
g65
I8
sg66
I0
sg67
I4
ssI37
(dp790
g65
I6
sg66
I0
sg67
I9
ssI38
(dp791
g65
I7
sg66
I0
sg67
I7
ssI39
(dp792
g65
I8
sg66
I0
sg67
I5
ssI42
(dp793
g65
I7
sg66
I0
sg67
I8
ssI43
(dp794
g65
I6
sg66
I0
sg67
I1
ssI44
(dp795
g65
I6
sg66
I0
sg67
I9
ssI45
(dp796
g65
I6
sg66
I0
sg67
I0
ssI46
(dp797
g65
I7
sg66
I0
sg67
I4
ssI47
(dp798
g65
I7
sg66
I0
sg67
I6
ssI48
(dp799
g65
I8
sg66
I0
sg67
I3
ssI50
(dp800
g65
I5
sg66
I0
sg67
I4
sssI21
(dp801
I2
(dp802
g65
I7
sg66
I0
sg67
I6
ssI3
(dp803
g65
I6
sg66
I0
sg67
I7
ssI4
(dp804
g65
I6
sg66
I0
sg67
I8
ssI6
(dp805
g65
I6
sg66
I0
sg67
I8
ssI8
(dp806
g65
I6
sg66
I0
sg67
I5
ssI9
(dp807
g65
I6
sg66
I0
sg67
I6
ssI10
(dp808
g65
I5
sg66
I0
sg67
I3
ssI11
(dp809
g65
I6
sg66
I0
sg67
I5
ssI13
(dp810
g65
I8
sg66
I0
sg67
I2
ssI16
(dp811
g65
I5
sg66
I0
sg67
I7
ssI17
(dp812
g65
I5
sg66
I0
sg67
I3
ssI18
(dp813
g65
I6
sg66
I0
sg67
I5
ssI19
(dp814
g65
I8
sg66
I0
sg67
I7
ssI20
(dp815
g65
I6
sg66
I0
sg67
I8
ssI22
(dp816
g65
I5
sg66
I0
sg67
I4
ssI25
(dp817
g65
I5
sg66
I0
sg67
I9
ssI28
(dp818
g65
I8
sg66
I0
sg67
I3
ssI30
(dp819
g65
I8
sg66
I0
sg67
I7
ssI31
(dp820
g65
I5
sg66
I0
sg67
I5
ssI32
(dp821
g65
I7
sg66
I0
sg67
I9
ssI33
(dp822
g65
I5
sg66
I0
sg67
I1
ssI34
(dp823
g65
I7
sg66
I0
sg67
I0
ssI35
(dp824
g65
I7
sg66
I0
sg67
I8
ssI36
(dp825
g65
I6
sg66
I0
sg67
I2
ssI37
(dp826
g65
I7
sg66
I0
sg67
I1
ssI38
(dp827
g65
I6
sg66
I0
sg67
I2
ssI39
(dp828
g65
I8
sg66
I0
sg67
I5
ssI40
(dp829
g65
I8
sg66
I0
sg67
I10
ssI41
(dp830
g65
I7
sg66
I0
sg67
I5
ssI42
(dp831
g65
I5
sg66
I0
sg67
I4
ssI43
(dp832
g65
I8
sg66
I0
sg67
I3
ssI44
(dp833
g65
I7
sg66
I0
sg67
I6
ssI45
(dp834
g65
I6
sg66
I0
sg67
I6
ssI47
(dp835
g65
I6
sg66
I0
sg67
I0
ssI48
(dp836
g65
I5
sg66
I0
sg67
I9
ssI49
(dp837
g65
I6
sg66
I0
sg67
I5
ssI50
(dp838
g65
I6
sg66
I0
sg67
I10
sssI22
(dp839
I1
(dp840
g65
I8
sg66
I0
sg67
I9
ssI2
(dp841
g65
I7
sg66
I0
sg67
I0
ssI3
(dp842
g65
I7
sg66
I0
sg67
I2
ssI4
(dp843
g65
I7
sg66
I0
sg67
I10
ssI6
(dp844
g65
I8
sg66
I0
sg67
I0
ssI8
(dp845
g65
I6
sg66
I0
sg67
I0
ssI9
(dp846
g65
I6
sg66
I0
sg67
I2
ssI10
(dp847
g65
I5
sg66
I0
sg67
I8
ssI11
(dp848
g65
I6
sg66
I0
sg67
I0
ssI13
(dp849
g65
I5
sg66
I0
sg67
I5
ssI14
(dp850
g65
I7
sg66
I0
sg67
I1
ssI16
(dp851
g65
I7
sg66
I0
sg67
I8
ssI17
(dp852
g65
I8
sg66
I0
sg67
I4
ssI20
(dp853
g65
I8
sg66
I0
sg67
I6
ssI23
(dp854
g65
I8
sg66
I0
sg67
I6
ssI24
(dp855
g65
I6
sg66
I0
sg67
I0
ssI25
(dp856
g65
I5
sg66
I0
sg67
I9
ssI26
(dp857
g65
I7
sg66
I0
sg67
I10
ssI28
(dp858
g65
I6
sg66
I0
sg67
I2
ssI29
(dp859
g65
I7
sg66
I0
sg67
I0
ssI32
(dp860
g65
I7
sg66
I0
sg67
I3
ssI33
(dp861
g65
I6
sg66
I0
sg67
I9
ssI34
(dp862
g65
I7
sg66
I0
sg67
I0
ssI35
(dp863
g65
I5
sg66
I0
sg67
I8
ssI36
(dp864
g65
I5
sg66
I0
sg67
I2
ssI37
(dp865
g65
I6
sg66
I0
sg67
I4
ssI38
(dp866
g65
I8
sg66
I0
sg67
I0
ssI39
(dp867
g65
I8
sg66
I0
sg67
I8
ssI40
(dp868
g65
I7
sg66
I0
sg67
I10
ssI41
(dp869
g65
I6
sg66
I0
sg67
I7
ssI42
(dp870
g65
I5
sg66
I0
sg67
I8
ssI43
(dp871
g65
I5
sg66
I0
sg67
I3
ssI44
(dp872
g65
I5
sg66
I0
sg67
I5
ssI45
(dp873
g65
I7
sg66
I0
sg67
I10
ssI46
(dp874
g65
I8
sg66
I0
sg67
I0
ssI47
(dp875
g65
I5
sg66
I0
sg67
I8
ssI48
(dp876
g65
I5
sg66
I0
sg67
I9
ssI50
(dp877
g65
I8
sg66
I0
sg67
I7
sssI23
(dp878
I1
(dp879
g65
I7
sg66
I0
sg67
I1
ssI2
(dp880
g65
I5
sg66
I0
sg67
I4
ssI3
(dp881
g65
I6
sg66
I0
sg67
I8
ssI5
(dp882
g65
I7
sg66
I0
sg67
I9
ssI7
(dp883
g65
I8
sg66
I0
sg67
I2
ssI8
(dp884
g65
I6
sg66
I0
sg67
I0
ssI9
(dp885
g65
I8
sg66
I0
sg67
I5
ssI10
(dp886
g65
I5
sg66
I0
sg67
I5
ssI11
(dp887
g65
I7
sg66
I0
sg67
I8
ssI12
(dp888
g65
I7
sg66
I0
sg67
I10
ssI14
(dp889
g65
I8
sg66
I0
sg67
I10
ssI15
(dp890
g65
I5
sg66
I0
sg67
I3
ssI16
(dp891
g65
I5
sg66
I0
sg67
I0
ssI17
(dp892
g65
I6
sg66
I0
sg67
I1
ssI18
(dp893
g65
I7
sg66
I0
sg67
I1
ssI19
(dp894
g65
I5
sg66
I0
sg67
I6
ssI20
(dp895
g65
I5
sg66
I0
sg67
I9
ssI21
(dp896
g65
I7
sg66
I0
sg67
I0
ssI22
(dp897
g65
I5
sg66
I0
sg67
I4
ssI24
(dp898
g65
I6
sg66
I0
sg67
I2
ssI25
(dp899
g65
I5
sg66
I0
sg67
I10
ssI26
(dp900
g65
I6
sg66
I0
sg67
I5
ssI27
(dp901
g65
I6
sg66
I0
sg67
I9
ssI28
(dp902
g65
I5
sg66
I0
sg67
I3
ssI30
(dp903
g65
I8
sg66
I0
sg67
I8
ssI31
(dp904
g65
I6
sg66
I0
sg67
I5
ssI32
(dp905
g65
I8
sg66
I0
sg67
I0
ssI34
(dp906
g65
I8
sg66
I0
sg67
I9
ssI35
(dp907
g65
I8
sg66
I0
sg67
I6
ssI36
(dp908
g65
I6
sg66
I0
sg67
I9
ssI37
(dp909
g65
I5
sg66
I0
sg67
I9
ssI38
(dp910
g65
I7
sg66
I0
sg67
I3
ssI39
(dp911
g65
I8
sg66
I0
sg67
I4
ssI41
(dp912
g65
I7
sg66
I0
sg67
I3
ssI43
(dp913
g65
I8
sg66
I0
sg67
I8
ssI44
(dp914
g65
I6
sg66
I0
sg67
I1
ssI47
(dp915
g65
I7
sg66
I0
sg67
I0
ssI48
(dp916
g65
I5
sg66
I0
sg67
I9
ssI49
(dp917
g65
I8
sg66
I0
sg67
I6
ssI50
(dp918
g65
I5
sg66
I0
sg67
I6
sssI24
(dp919
I2
(dp920
g65
I6
sg66
I0
sg67
I3
ssI3
(dp921
g65
I8
sg66
I0
sg67
I3
ssI4
(dp922
g65
I6
sg66
I0
sg67
I4
ssI7
(dp923
g65
I5
sg66
I0
sg67
I8
ssI8
(dp924
g65
I7
sg66
I0
sg67
I2
ssI12
(dp925
g65
I7
sg66
I0
sg67
I0
ssI13
(dp926
g65
I8
sg66
I0
sg67
I3
ssI14
(dp927
g65
I8
sg66
I0
sg67
I8
ssI15
(dp928
g65
I5
sg66
I0
sg67
I3
ssI16
(dp929
g65
I8
sg66
I0
sg67
I0
ssI18
(dp930
g65
I5
sg66
I0
sg67
I5
ssI21
(dp931
g65
I5
sg66
I0
sg67
I2
ssI22
(dp932
g65
I6
sg66
I0
sg67
I5
ssI23
(dp933
g65
I7
sg66
I0
sg67
I10
ssI25
(dp934
g65
I5
sg66
I0
sg67
I3
ssI27
(dp935
g65
I8
sg66
I0
sg67
I0
ssI28
(dp936
g65
I6
sg66
I0
sg67
I4
ssI29
(dp937
g65
I8
sg66
I0
sg67
I9
ssI30
(dp938
g65
I6
sg66
I0
sg67
I5
ssI31
(dp939
g65
I8
sg66
I0
sg67
I4
ssI32
(dp940
g65
I5
sg66
I0
sg67
I6
ssI33
(dp941
g65
I5
sg66
I0
sg67
I2
ssI34
(dp942
g65
I6
sg66
I0
sg67
I10
ssI35
(dp943
g65
I8
sg66
I0
sg67
I2
ssI36
(dp944
g65
I7
sg66
I0
sg67
I1
ssI37
(dp945
g65
I7
sg66
I0
sg67
I6
ssI38
(dp946
g65
I6
sg66
I0
sg67
I0
ssI39
(dp947
g65
I7
sg66
I0
sg67
I7
ssI40
(dp948
g65
I8
sg66
I0
sg67
I10
ssI41
(dp949
g65
I6
sg66
I0
sg67
I2
ssI42
(dp950
g65
I8
sg66
I0
sg67
I6
ssI43
(dp951
g65
I5
sg66
I0
sg67
I4
ssI45
(dp952
g65
I5
sg66
I0
sg67
I7
ssI46
(dp953
g65
I5
sg66
I0
sg67
I2
ssI48
(dp954
g65
I5
sg66
I0
sg67
I9
ssI49
(dp955
g65
I8
sg66
I0
sg67
I3
sssI25
(dp956
I1
(dp957
g65
I6
sg66
I0
sg67
I3
ssI2
(dp958
g65
I5
sg66
I0
sg67
I2
ssI3
(dp959
g65
I5
sg66
I0
sg67
I7
ssI4
(dp960
g65
I6
sg66
I0
sg67
I4
ssI5
(dp961
g65
I8
sg66
I0
sg67
I5
ssI6
(dp962
g65
I7
sg66
I0
sg67
I7
ssI8
(dp963
g65
I6
sg66
I0
sg67
I4
ssI9
(dp964
g65
I8
sg66
I0
sg67
I3
ssI12
(dp965
g65
I5
sg66
I0
sg67
I0
ssI13
(dp966
g65
I5
sg66
I0
sg67
I6
ssI14
(dp967
g65
I6
sg66
I0
sg67
I0
ssI17
(dp968
g65
I5
sg66
I0
sg67
I9
ssI18
(dp969
g65
I5
sg66
I0
sg67
I4
ssI19
(dp970
g65
I7
sg66
I0
sg67
I9
ssI21
(dp971
g65
I8
sg66
I0
sg67
I6
ssI23
(dp972
g65
I5
sg66
I0
sg67
I9
ssI26
(dp973
g65
I6
sg66
I0
sg67
I2
ssI27
(dp974
g65
I8
sg66
I0
sg67
I3
ssI28
(dp975
g65
I8
sg66
I0
sg67
I5
ssI29
(dp976
g65
I8
sg66
I0
sg67
I9
ssI32
(dp977
g65
I7
sg66
I0
sg67
I4
ssI33
(dp978
g65
I7
sg66
I0
sg67
I4
ssI34
(dp979
g65
I5
sg66
I0
sg67
I6
ssI35
(dp980
g65
I8
sg66
I0
sg67
I5
ssI36
(dp981
g65
I8
sg66
I0
sg67
I9
ssI37
(dp982
g65
I5
sg66
I0
sg67
I7
ssI38
(dp983
g65
I6
sg66
I0
sg67
I2
ssI39
(dp984
g65
I6
sg66
I0
sg67
I9
ssI40
(dp985
g65
I8
sg66
I0
sg67
I1
ssI43
(dp986
g65
I7
sg66
I0
sg67
I3
ssI44
(dp987
g65
I8
sg66
I0
sg67
I3
ssI45
(dp988
g65
I7
sg66
I0
sg67
I3
ssI46
(dp989
g65
I7
sg66
I0
sg67
I2
ssI47
(dp990
g65
I6
sg66
I0
sg67
I3
ssI48
(dp991
g65
I7
sg66
I0
sg67
I5
ssI49
(dp992
g65
I6
sg66
I0
sg67
I3
ssI50
(dp993
g65
I8
sg66
I0
sg67
I4
sssI26
(dp994
I1
(dp995
g65
I6
sg66
I0
sg67
I2
ssI4
(dp996
g65
I6
sg66
I0
sg67
I9
ssI5
(dp997
g65
I7
sg66
I0
sg67
I5
ssI6
(dp998
g65
I5
sg66
I0
sg67
I6
ssI7
(dp999
g65
I7
sg66
I0
sg67
I7
ssI9
(dp1000
g65
I7
sg66
I0
sg67
I5
ssI10
(dp1001
g65
I7
sg66
I0
sg67
I0
ssI11
(dp1002
g65
I5
sg66
I0
sg67
I9
ssI12
(dp1003
g65
I6
sg66
I0
sg67
I0
ssI13
(dp1004
g65
I5
sg66
I0
sg67
I9
ssI14
(dp1005
g65
I6
sg66
I0
sg67
I6
ssI15
(dp1006
g65
I5
sg66
I0
sg67
I4
ssI17
(dp1007
g65
I6
sg66
I0
sg67
I10
ssI19
(dp1008
g65
I5
sg66
I0
sg67
I2
ssI20
(dp1009
g65
I7
sg66
I0
sg67
I3
ssI21
(dp1010
g65
I7
sg66
I0
sg67
I6
ssI22
(dp1011
g65
I6
sg66
I0
sg67
I0
ssI23
(dp1012
g65
I8
sg66
I0
sg67
I9
ssI24
(dp1013
g65
I5
sg66
I0
sg67
I5
ssI25
(dp1014
g65
I8
sg66
I0
sg67
I1
ssI28
(dp1015
g65
I8
sg66
I0
sg67
I10
ssI29
(dp1016
g65
I7
sg66
I0
sg67
I0
ssI30
(dp1017
g65
I8
sg66
I0
sg67
I1
ssI31
(dp1018
g65
I8
sg66
I0
sg67
I6
ssI32
(dp1019
g65
I6
sg66
I0
sg67
I4
ssI34
(dp1020
g65
I7
sg66
I0
sg67
I7
ssI36
(dp1021
g65
I7
sg66
I0
sg67
I2
ssI37
(dp1022
g65
I7
sg66
I0
sg67
I5
ssI38
(dp1023
g65
I8
sg66
I0
sg67
I1
ssI39
(dp1024
g65
I5
sg66
I0
sg67
I2
ssI40
(dp1025
g65
I7
sg66
I0
sg67
I5
ssI41
(dp1026
g65
I6
sg66
I0
sg67
I2
ssI42
(dp1027
g65
I7
sg66
I0
sg67
I8
ssI43
(dp1028
g65
I7
sg66
I0
sg67
I2
ssI44
(dp1029
g65
I5
sg66
I0
sg67
I8
ssI46
(dp1030
g65
I7
sg66
I0
sg67
I1
ssI48
(dp1031
g65
I8
sg66
I0
sg67
I10
ssI49
(dp1032
g65
I6
sg66
I0
sg67
I3
ssI50
(dp1033
g65
I5
sg66
I0
sg67
I2
sssI27
(dp1034
I1
(dp1035
g65
I5
sg66
I0
sg67
I6
ssI2
(dp1036
g65
I6
sg66
I0
sg67
I2
ssI3
(dp1037
g65
I6
sg66
I0
sg67
I2
ssI5
(dp1038
g65
I8
sg66
I0
sg67
I0
ssI7
(dp1039
g65
I5
sg66
I0
sg67
I4
ssI10
(dp1040
g65
I7
sg66
I0
sg67
I0
ssI11
(dp1041
g65
I6
sg66
I0
sg67
I6
ssI12
(dp1042
g65
I6
sg66
I0
sg67
I7
ssI13
(dp1043
g65
I6
sg66
I0
sg67
I3
ssI14
(dp1044
g65
I6
sg66
I0
sg67
I2
ssI15
(dp1045
g65
I7
sg66
I0
sg67
I4
ssI16
(dp1046
g65
I6
sg66
I0
sg67
I1
ssI17
(dp1047
g65
I8
sg66
I0
sg67
I8
ssI18
(dp1048
g65
I7
sg66
I0
sg67
I3
ssI21
(dp1049
g65
I6
sg66
I0
sg67
I3
ssI25
(dp1050
g65
I7
sg66
I0
sg67
I5
ssI26
(dp1051
g65
I5
sg66
I0
sg67
I1
ssI28
(dp1052
g65
I7
sg66
I0
sg67
I5
ssI29
(dp1053
g65
I8
sg66
I0
sg67
I6
ssI30
(dp1054
g65
I6
sg66
I0
sg67
I8
ssI32
(dp1055
g65
I6
sg66
I0
sg67
I1
ssI34
(dp1056
g65
I8
sg66
I0
sg67
I7
ssI35
(dp1057
g65
I5
sg66
I0
sg67
I1
ssI36
(dp1058
g65
I5
sg66
I0
sg67
I5
ssI38
(dp1059
g65
I8
sg66
I0
sg67
I2
ssI39
(dp1060
g65
I6
sg66
I0
sg67
I7
ssI42
(dp1061
g65
I7
sg66
I0
sg67
I9
ssI43
(dp1062
g65
I7
sg66
I0
sg67
I5
ssI45
(dp1063
g65
I7
sg66
I0
sg67
I2
ssI47
(dp1064
g65
I8
sg66
I0
sg67
I7
ssI48
(dp1065
g65
I7
sg66
I0
sg67
I1
ssI49
(dp1066
g65
I6
sg66
I0
sg67
I1
ssI50
(dp1067
g65
I5
sg66
I0
sg67
I3
sssI28
(dp1068
I1
(dp1069
g65
I8
sg66
I0
sg67
I7
ssI2
(dp1070
g65
I6
sg66
I0
sg67
I6
ssI3
(dp1071
g65
I5
sg66
I0
sg67
I4
ssI4
(dp1072
g65
I7
sg66
I0
sg67
I2
ssI5
(dp1073
g65
I5
sg66
I0
sg67
I10
ssI7
(dp1074
g65
I5
sg66
I0
sg67
I3
ssI8
(dp1075
g65
I6
sg66
I0
sg67
I0
ssI10
(dp1076
g65
I5
sg66
I0
sg67
I7
ssI11
(dp1077
g65
I8
sg66
I0
sg67
I6
ssI12
(dp1078
g65
I7
sg66
I0
sg67
I4
ssI13
(dp1079
g65
I6
sg66
I0
sg67
I1
ssI14
(dp1080
g65
I6
sg66
I0
sg67
I1
ssI15
(dp1081
g65
I7
sg66
I0
sg67
I10
ssI16
(dp1082
g65
I8
sg66
I0
sg67
I10
ssI18
(dp1083
g65
I6
sg66
I0
sg67
I7
ssI19
(dp1084
g65
I5
sg66
I0
sg67
I1
ssI20
(dp1085
g65
I6
sg66
I0
sg67
I4
ssI22
(dp1086
g65
I7
sg66
I0
sg67
I10
ssI23
(dp1087
g65
I7
sg66
I0
sg67
I0
ssI24
(dp1088
g65
I5
sg66
I0
sg67
I1
ssI25
(dp1089
g65
I6
sg66
I0
sg67
I5
ssI26
(dp1090
g65
I6
sg66
I0
sg67
I3
ssI27
(dp1091
g65
I8
sg66
I0
sg67
I0
ssI30
(dp1092
g65
I5
sg66
I0
sg67
I3
ssI31
(dp1093
g65
I5
sg66
I0
sg67
I5
ssI33
(dp1094
g65
I7
sg66
I0
sg67
I1
ssI34
(dp1095
g65
I6
sg66
I0
sg67
I6
ssI36
(dp1096
g65
I7
sg66
I0
sg67
I4
ssI37
(dp1097
g65
I6
sg66
I0
sg67
I7
ssI38
(dp1098
g65
I7
sg66
I0
sg67
I8
ssI42
(dp1099
g65
I6
sg66
I0
sg67
I6
ssI43
(dp1100
g65
I7
sg66
I0
sg67
I4
ssI44
(dp1101
g65
I8
sg66
I0
sg67
I1
ssI45
(dp1102
g65
I7
sg66
I0
sg67
I6
ssI46
(dp1103
g65
I8
sg66
I0
sg67
I5
ssI47
(dp1104
g65
I5
sg66
I0
sg67
I10
ssI48
(dp1105
g65
I8
sg66
I0
sg67
I9
ssI49
(dp1106
g65
I6
sg66
I0
sg67
I6
ssI50
(dp1107
g65
I6
sg66
I0
sg67
I6
sssI29
(dp1108
I1
(dp1109
g65
I8
sg66
I0
sg67
I6
ssI4
(dp1110
g65
I6
sg66
I0
sg67
I2
ssI5
(dp1111
g65
I8
sg66
I0
sg67
I9
ssI6
(dp1112
g65
I5
sg66
I0
sg67
I3
ssI7
(dp1113
g65
I8
sg66
I0
sg67
I0
ssI8
(dp1114
g65
I5
sg66
I0
sg67
I5
ssI9
(dp1115
g65
I8
sg66
I0
sg67
I1
ssI10
(dp1116
g65
I8
sg66
I0
sg67
I2
ssI11
(dp1117
g65
I5
sg66
I0
sg67
I10
ssI13
(dp1118
g65
I8
sg66
I0
sg67
I2
ssI14
(dp1119
g65
I6
sg66
I0
sg67
I3
ssI16
(dp1120
g65
I5
sg66
I0
sg67
I3
ssI17
(dp1121
g65
I7
sg66
I0
sg67
I3
ssI18
(dp1122
g65
I6
sg66
I0
sg67
I6
ssI21
(dp1123
g65
I8
sg66
I0
sg67
I1
ssI22
(dp1124
g65
I7
sg66
I0
sg67
I6
ssI24
(dp1125
g65
I6
sg66
I0
sg67
I3
ssI25
(dp1126
g65
I7
sg66
I0
sg67
I2
ssI26
(dp1127
g65
I8
sg66
I0
sg67
I8
ssI27
(dp1128
g65
I8
sg66
I0
sg67
I5
ssI28
(dp1129
g65
I7
sg66
I0
sg67
I6
ssI30
(dp1130
g65
I8
sg66
I0
sg67
I5
ssI31
(dp1131
g65
I5
sg66
I0
sg67
I2
ssI32
(dp1132
g65
I8
sg66
I0
sg67
I0
ssI33
(dp1133
g65
I6
sg66
I0
sg67
I2
ssI36
(dp1134
g65
I7
sg66
I0
sg67
I6
ssI37
(dp1135
g65
I8
sg66
I0
sg67
I8
ssI38
(dp1136
g65
I8
sg66
I0
sg67
I9
ssI39
(dp1137
g65
I7
sg66
I0
sg67
I10
ssI41
(dp1138
g65
I7
sg66
I0
sg67
I4
ssI43
(dp1139
g65
I8
sg66
I0
sg67
I10
ssI47
(dp1140
g65
I8
sg66
I0
sg67
I2
ssI48
(dp1141
g65
I6
sg66
I0
sg67
I9
ssI49
(dp1142
g65
I7
sg66
I0
sg67
I8
ssI50
(dp1143
g65
I6
sg66
I0
sg67
I9
sssI30
(dp1144
I2
(dp1145
g65
I7
sg66
I0
sg67
I9
ssI3
(dp1146
g65
I6
sg66
I0
sg67
I4
ssI4
(dp1147
g65
I7
sg66
I0
sg67
I6
ssI5
(dp1148
g65
I5
sg66
I0
sg67
I0
ssI6
(dp1149
g65
I8
sg66
I0
sg67
I4
ssI7
(dp1150
g65
I6
sg66
I0
sg67
I10
ssI9
(dp1151
g65
I7
sg66
I0
sg67
I7
ssI10
(dp1152
g65
I6
sg66
I0
sg67
I3
ssI11
(dp1153
g65
I8
sg66
I0
sg67
I3
ssI12
(dp1154
g65
I7
sg66
I0
sg67
I7
ssI13
(dp1155
g65
I6
sg66
I0
sg67
I0
ssI14
(dp1156
g65
I6
sg66
I0
sg67
I1
ssI15
(dp1157
g65
I7
sg66
I0
sg67
I8
ssI17
(dp1158
g65
I6
sg66
I0
sg67
I7
ssI18
(dp1159
g65
I8
sg66
I0
sg67
I5
ssI20
(dp1160
g65
I5
sg66
I0
sg67
I8
ssI21
(dp1161
g65
I6
sg66
I0
sg67
I8
ssI22
(dp1162
g65
I8
sg66
I0
sg67
I4
ssI23
(dp1163
g65
I6
sg66
I0
sg67
I5
ssI24
(dp1164
g65
I8
sg66
I0
sg67
I7
ssI25
(dp1165
g65
I6
sg66
I0
sg67
I2
ssI26
(dp1166
g65
I6
sg66
I0
sg67
I6
ssI28
(dp1167
g65
I5
sg66
I0
sg67
I0
ssI31
(dp1168
g65
I5
sg66
I0
sg67
I3
ssI32
(dp1169
g65
I6
sg66
I0
sg67
I9
ssI33
(dp1170
g65
I6
sg66
I0
sg67
I8
ssI34
(dp1171
g65
I6
sg66
I0
sg67
I5
ssI37
(dp1172
g65
I6
sg66
I0
sg67
I10
ssI38
(dp1173
g65
I6
sg66
I0
sg67
I10
ssI39
(dp1174
g65
I5
sg66
I0
sg67
I7
ssI40
(dp1175
g65
I8
sg66
I0
sg67
I7
ssI41
(dp1176
g65
I6
sg66
I0
sg67
I8
ssI42
(dp1177
g65
I8
sg66
I0
sg67
I1
ssI43
(dp1178
g65
I6
sg66
I0
sg67
I4
ssI44
(dp1179
g65
I6
sg66
I0
sg67
I9
ssI46
(dp1180
g65
I6
sg66
I0
sg67
I1
ssI47
(dp1181
g65
I5
sg66
I0
sg67
I2
ssI49
(dp1182
g65
I5
sg66
I0
sg67
I7
ssI50
(dp1183
g65
I7
sg66
I0
sg67
I3
sssI31
(dp1184
I1
(dp1185
g65
I6
sg66
I0
sg67
I9
ssI2
(dp1186
g65
I5
sg66
I0
sg67
I9
ssI3
(dp1187
g65
I6
sg66
I0
sg67
I7
ssI5
(dp1188
g65
I8
sg66
I0
sg67
I9
ssI6
(dp1189
g65
I5
sg66
I0
sg67
I3
ssI7
(dp1190
g65
I5
sg66
I0
sg67
I8
ssI8
(dp1191
g65
I6
sg66
I0
sg67
I4
ssI9
(dp1192
g65
I6
sg66
I0
sg67
I3
ssI10
(dp1193
g65
I7
sg66
I0
sg67
I0
ssI11
(dp1194
g65
I6
sg66
I0
sg67
I4
ssI12
(dp1195
g65
I6
sg66
I0
sg67
I9
ssI13
(dp1196
g65
I6
sg66
I0
sg67
I10
ssI15
(dp1197
g65
I5
sg66
I0
sg67
I4
ssI16
(dp1198
g65
I5
sg66
I0
sg67
I6
ssI19
(dp1199
g65
I7
sg66
I0
sg67
I2
ssI20
(dp1200
g65
I7
sg66
I0
sg67
I3
ssI21
(dp1201
g65
I8
sg66
I0
sg67
I10
ssI23
(dp1202
g65
I8
sg66
I0
sg67
I3
ssI24
(dp1203
g65
I8
sg66
I0
sg67
I1
ssI25
(dp1204
g65
I6
sg66
I0
sg67
I3
ssI27
(dp1205
g65
I8
sg66
I0
sg67
I7
ssI28
(dp1206
g65
I6
sg66
I0
sg67
I6
ssI30
(dp1207
g65
I7
sg66
I0
sg67
I5
ssI32
(dp1208
g65
I5
sg66
I0
sg67
I4
ssI33
(dp1209
g65
I8
sg66
I0
sg67
I7
ssI34
(dp1210
g65
I8
sg66
I0
sg67
I4
ssI36
(dp1211
g65
I7
sg66
I0
sg67
I0
ssI37
(dp1212
g65
I5
sg66
I0
sg67
I0
ssI38
(dp1213
g65
I8
sg66
I0
sg67
I8
ssI40
(dp1214
g65
I6
sg66
I0
sg67
I9
ssI42
(dp1215
g65
I8
sg66
I0
sg67
I4
ssI43
(dp1216
g65
I5
sg66
I0
sg67
I6
ssI44
(dp1217
g65
I8
sg66
I0
sg67
I8
ssI45
(dp1218
g65
I6
sg66
I0
sg67
I6
ssI47
(dp1219
g65
I7
sg66
I0
sg67
I3
ssI48
(dp1220
g65
I5
sg66
I0
sg67
I7
ssI49
(dp1221
g65
I6
sg66
I0
sg67
I2
ssI50
(dp1222
g65
I7
sg66
I0
sg67
I8
sssI32
(dp1223
I1
(dp1224
g65
I5
sg66
I0
sg67
I10
ssI3
(dp1225
g65
I6
sg66
I0
sg67
I7
ssI4
(dp1226
g65
I7
sg66
I0
sg67
I7
ssI5
(dp1227
g65
I7
sg66
I0
sg67
I9
ssI6
(dp1228
g65
I8
sg66
I0
sg67
I3
ssI7
(dp1229
g65
I5
sg66
I0
sg67
I5
ssI8
(dp1230
g65
I8
sg66
I0
sg67
I8
ssI9
(dp1231
g65
I5
sg66
I0
sg67
I9
ssI10
(dp1232
g65
I7
sg66
I0
sg67
I6
ssI12
(dp1233
g65
I5
sg66
I0
sg67
I6
ssI13
(dp1234
g65
I6
sg66
I0
sg67
I10
ssI14
(dp1235
g65
I6
sg66
I0
sg67
I9
ssI16
(dp1236
g65
I5
sg66
I0
sg67
I10
ssI19
(dp1237
g65
I5
sg66
I0
sg67
I3
ssI20
(dp1238
g65
I5
sg66
I0
sg67
I2
ssI21
(dp1239
g65
I5
sg66
I0
sg67
I10
ssI22
(dp1240
g65
I7
sg66
I0
sg67
I7
ssI24
(dp1241
g65
I8
sg66
I0
sg67
I1
ssI25
(dp1242
g65
I8
sg66
I0
sg67
I4
ssI26
(dp1243
g65
I5
sg66
I0
sg67
I2
ssI27
(dp1244
g65
I5
sg66
I0
sg67
I5
ssI28
(dp1245
g65
I6
sg66
I0
sg67
I1
ssI31
(dp1246
g65
I7
sg66
I0
sg67
I4
ssI33
(dp1247
g65
I6
sg66
I0
sg67
I6
ssI36
(dp1248
g65
I5
sg66
I0
sg67
I6
ssI38
(dp1249
g65
I5
sg66
I0
sg67
I3
ssI39
(dp1250
g65
I8
sg66
I0
sg67
I0
ssI42
(dp1251
g65
I8
sg66
I0
sg67
I3
ssI44
(dp1252
g65
I5
sg66
I0
sg67
I1
ssI45
(dp1253
g65
I5
sg66
I0
sg67
I10
ssI46
(dp1254
g65
I7
sg66
I0
sg67
I8
ssI47
(dp1255
g65
I6
sg66
I0
sg67
I4
ssI48
(dp1256
g65
I6
sg66
I0
sg67
I6
ssI49
(dp1257
g65
I5
sg66
I0
sg67
I1
sssI33
(dp1258
I1
(dp1259
g65
I7
sg66
I0
sg67
I5
ssI2
(dp1260
g65
I5
sg66
I0
sg67
I6
ssI5
(dp1261
g65
I7
sg66
I0
sg67
I8
ssI6
(dp1262
g65
I8
sg66
I0
sg67
I2
ssI7
(dp1263
g65
I8
sg66
I0
sg67
I1
ssI8
(dp1264
g65
I7
sg66
I0
sg67
I10
ssI9
(dp1265
g65
I7
sg66
I0
sg67
I7
ssI12
(dp1266
g65
I6
sg66
I0
sg67
I6
ssI13
(dp1267
g65
I8
sg66
I0
sg67
I8
ssI16
(dp1268
g65
I8
sg66
I0
sg67
I5
ssI18
(dp1269
g65
I8
sg66
I0
sg67
I0
ssI20
(dp1270
g65
I8
sg66
I0
sg67
I3
ssI21
(dp1271
g65
I7
sg66
I0
sg67
I6
ssI22
(dp1272
g65
I5
sg66
I0
sg67
I7
ssI23
(dp1273
g65
I5
sg66
I0
sg67
I3
ssI24
(dp1274
g65
I8
sg66
I0
sg67
I9
ssI25
(dp1275
g65
I8
sg66
I0
sg67
I2
ssI26
(dp1276
g65
I6
sg66
I0
sg67
I7
ssI27
(dp1277
g65
I5
sg66
I0
sg67
I1
ssI29
(dp1278
g65
I8
sg66
I0
sg67
I8
ssI31
(dp1279
g65
I6
sg66
I0
sg67
I9
ssI32
(dp1280
g65
I6
sg66
I0
sg67
I1
ssI34
(dp1281
g65
I6
sg66
I0
sg67
I9
ssI37
(dp1282
g65
I5
sg66
I0
sg67
I3
ssI38
(dp1283
g65
I6
sg66
I0
sg67
I3
ssI39
(dp1284
g65
I7
sg66
I0
sg67
I7
ssI40
(dp1285
g65
I8
sg66
I0
sg67
I8
ssI41
(dp1286
g65
I7
sg66
I0
sg67
I0
ssI42
(dp1287
g65
I6
sg66
I0
sg67
I3
ssI43
(dp1288
g65
I5
sg66
I0
sg67
I10
ssI44
(dp1289
g65
I7
sg66
I0
sg67
I1
ssI46
(dp1290
g65
I8
sg66
I0
sg67
I5
ssI47
(dp1291
g65
I7
sg66
I0
sg67
I6
ssI48
(dp1292
g65
I7
sg66
I0
sg67
I0
sssI34
(dp1293
I1
(dp1294
g65
I7
sg66
I0
sg67
I9
ssI3
(dp1295
g65
I8
sg66
I0
sg67
I1
ssI4
(dp1296
g65
I6
sg66
I0
sg67
I3
ssI7
(dp1297
g65
I6
sg66
I0
sg67
I7
ssI8
(dp1298
g65
I8
sg66
I0
sg67
I3
ssI9
(dp1299
g65
I6
sg66
I0
sg67
I5
ssI10
(dp1300
g65
I5
sg66
I0
sg67
I2
ssI11
(dp1301
g65
I7
sg66
I0
sg67
I0
ssI12
(dp1302
g65
I5
sg66
I0
sg67
I8
ssI13
(dp1303
g65
I8
sg66
I0
sg67
I3
ssI14
(dp1304
g65
I6
sg66
I0
sg67
I7
ssI15
(dp1305
g65
I6
sg66
I0
sg67
I8
ssI16
(dp1306
g65
I7
sg66
I0
sg67
I9
ssI18
(dp1307
g65
I5
sg66
I0
sg67
I3
ssI19
(dp1308
g65
I7
sg66
I0
sg67
I10
ssI20
(dp1309
g65
I6
sg66
I0
sg67
I5
ssI21
(dp1310
g65
I8
sg66
I0
sg67
I1
ssI22
(dp1311
g65
I6
sg66
I0
sg67
I1
ssI23
(dp1312
g65
I8
sg66
I0
sg67
I4
ssI24
(dp1313
g65
I8
sg66
I0
sg67
I8
ssI25
(dp1314
g65
I7
sg66
I0
sg67
I8
ssI26
(dp1315
g65
I5
sg66
I0
sg67
I7
ssI29
(dp1316
g65
I5
sg66
I0
sg67
I8
ssI30
(dp1317
g65
I7
sg66
I0
sg67
I8
ssI32
(dp1318
g65
I8
sg66
I0
sg67
I0
ssI33
(dp1319
g65
I6
sg66
I0
sg67
I6
ssI36
(dp1320
g65
I6
sg66
I0
sg67
I3
ssI37
(dp1321
g65
I8
sg66
I0
sg67
I10
ssI38
(dp1322
g65
I6
sg66
I0
sg67
I8
ssI39
(dp1323
g65
I5
sg66
I0
sg67
I1
ssI40
(dp1324
g65
I5
sg66
I0
sg67
I0
ssI41
(dp1325
g65
I8
sg66
I0
sg67
I10
ssI43
(dp1326
g65
I7
sg66
I0
sg67
I6
ssI44
(dp1327
g65
I5
sg66
I0
sg67
I3
ssI45
(dp1328
g65
I8
sg66
I0
sg67
I3
ssI46
(dp1329
g65
I7
sg66
I0
sg67
I4
ssI47
(dp1330
g65
I8
sg66
I0
sg67
I0
ssI48
(dp1331
g65
I5
sg66
I0
sg67
I6
ssI49
(dp1332
g65
I6
sg66
I0
sg67
I10
ssI50
(dp1333
g65
I8
sg66
I0
sg67
I10
sssI35
(dp1334
I1
(dp1335
g65
I5
sg66
I0
sg67
I0
ssI2
(dp1336
g65
I7
sg66
I0
sg67
I2
ssI3
(dp1337
g65
I6
sg66
I0
sg67
I9
ssI4
(dp1338
g65
I6
sg66
I0
sg67
I8
ssI6
(dp1339
g65
I6
sg66
I0
sg67
I10
ssI7
(dp1340
g65
I8
sg66
I0
sg67
I4
ssI8
(dp1341
g65
I7
sg66
I0
sg67
I10
ssI9
(dp1342
g65
I8
sg66
I0
sg67
I2
ssI10
(dp1343
g65
I5
sg66
I0
sg67
I7
ssI12
(dp1344
g65
I5
sg66
I0
sg67
I1
ssI13
(dp1345
g65
I8
sg66
I0
sg67
I5
ssI14
(dp1346
g65
I8
sg66
I0
sg67
I6
ssI15
(dp1347
g65
I7
sg66
I0
sg67
I1
ssI16
(dp1348
g65
I6
sg66
I0
sg67
I1
ssI17
(dp1349
g65
I8
sg66
I0
sg67
I10
ssI18
(dp1350
g65
I7
sg66
I0
sg67
I2
ssI19
(dp1351
g65
I7
sg66
I0
sg67
I5
ssI22
(dp1352
g65
I7
sg66
I0
sg67
I1
ssI23
(dp1353
g65
I6
sg66
I0
sg67
I8
ssI24
(dp1354
g65
I8
sg66
I0
sg67
I3
ssI25
(dp1355
g65
I5
sg66
I0
sg67
I3
ssI27
(dp1356
g65
I6
sg66
I0
sg67
I3
ssI28
(dp1357
g65
I6
sg66
I0
sg67
I9
ssI29
(dp1358
g65
I6
sg66
I0
sg67
I8
ssI30
(dp1359
g65
I5
sg66
I0
sg67
I7
ssI31
(dp1360
g65
I5
sg66
I0
sg67
I7
ssI33
(dp1361
g65
I6
sg66
I0
sg67
I5
ssI34
(dp1362
g65
I6
sg66
I0
sg67
I3
ssI36
(dp1363
g65
I6
sg66
I0
sg67
I5
ssI37
(dp1364
g65
I7
sg66
I0
sg67
I10
ssI39
(dp1365
g65
I7
sg66
I0
sg67
I8
ssI40
(dp1366
g65
I6
sg66
I0
sg67
I7
ssI42
(dp1367
g65
I8
sg66
I0
sg67
I4
ssI43
(dp1368
g65
I8
sg66
I0
sg67
I2
ssI44
(dp1369
g65
I5
sg66
I0
sg67
I8
ssI45
(dp1370
g65
I5
sg66
I0
sg67
I10
ssI46
(dp1371
g65
I5
sg66
I0
sg67
I4
ssI47
(dp1372
g65
I8
sg66
I0
sg67
I1
ssI49
(dp1373
g65
I6
sg66
I0
sg67
I6
sssI36
(dp1374
I1
(dp1375
g65
I8
sg66
I0
sg67
I1
ssI2
(dp1376
g65
I6
sg66
I0
sg67
I4
ssI3
(dp1377
g65
I6
sg66
I0
sg67
I0
ssI5
(dp1378
g65
I8
sg66
I0
sg67
I0
ssI7
(dp1379
g65
I6
sg66
I0
sg67
I4
ssI8
(dp1380
g65
I5
sg66
I0
sg67
I9
ssI10
(dp1381
g65
I8
sg66
I0
sg67
I6
ssI11
(dp1382
g65
I5
sg66
I0
sg67
I5
ssI12
(dp1383
g65
I7
sg66
I0
sg67
I4
ssI13
(dp1384
g65
I5
sg66
I0
sg67
I0
ssI14
(dp1385
g65
I5
sg66
I0
sg67
I5
ssI16
(dp1386
g65
I6
sg66
I0
sg67
I9
ssI17
(dp1387
g65
I6
sg66
I0
sg67
I2
ssI18
(dp1388
g65
I6
sg66
I0
sg67
I4
ssI20
(dp1389
g65
I5
sg66
I0
sg67
I8
ssI23
(dp1390
g65
I6
sg66
I0
sg67
I6
ssI24
(dp1391
g65
I7
sg66
I0
sg67
I10
ssI25
(dp1392
g65
I7
sg66
I0
sg67
I4
ssI26
(dp1393
g65
I5
sg66
I0
sg67
I10
ssI27
(dp1394
g65
I6
sg66
I0
sg67
I3
ssI28
(dp1395
g65
I7
sg66
I0
sg67
I10
ssI29
(dp1396
g65
I6
sg66
I0
sg67
I4
ssI30
(dp1397
g65
I8
sg66
I0
sg67
I9
ssI32
(dp1398
g65
I6
sg66
I0
sg67
I9
ssI33
(dp1399
g65
I8
sg66
I0
sg67
I10
ssI34
(dp1400
g65
I5
sg66
I0
sg67
I1
ssI37
(dp1401
g65
I8
sg66
I0
sg67
I2
ssI38
(dp1402
g65
I6
sg66
I0
sg67
I4
ssI39
(dp1403
g65
I6
sg66
I0
sg67
I8
ssI40
(dp1404
g65
I5
sg66
I0
sg67
I8
ssI41
(dp1405
g65
I6
sg66
I0
sg67
I7
ssI44
(dp1406
g65
I5
sg66
I0
sg67
I7
ssI45
(dp1407
g65
I8
sg66
I0
sg67
I1
ssI46
(dp1408
g65
I8
sg66
I0
sg67
I1
ssI49
(dp1409
g65
I8
sg66
I0
sg67
I9
ssI50
(dp1410
g65
I6
sg66
I0
sg67
I3
sssI37
(dp1411
I1
(dp1412
g65
I8
sg66
I0
sg67
I10
ssI2
(dp1413
g65
I8
sg66
I0
sg67
I6
ssI3
(dp1414
g65
I5
sg66
I0
sg67
I4
ssI4
(dp1415
g65
I6
sg66
I0
sg67
I7
ssI5
(dp1416
g65
I7
sg66
I0
sg67
I10
ssI7
(dp1417
g65
I7
sg66
I0
sg67
I2
ssI8
(dp1418
g65
I5
sg66
I0
sg67
I9
ssI9
(dp1419
g65
I6
sg66
I0
sg67
I4
ssI10
(dp1420
g65
I8
sg66
I0
sg67
I2
ssI11
(dp1421
g65
I7
sg66
I0
sg67
I7
ssI12
(dp1422
g65
I6
sg66
I0
sg67
I1
ssI13
(dp1423
g65
I7
sg66
I0
sg67
I6
ssI16
(dp1424
g65
I6
sg66
I0
sg67
I10
ssI17
(dp1425
g65
I8
sg66
I0
sg67
I9
ssI18
(dp1426
g65
I7
sg66
I0
sg67
I10
ssI19
(dp1427
g65
I8
sg66
I0
sg67
I9
ssI20
(dp1428
g65
I7
sg66
I0
sg67
I5
ssI22
(dp1429
g65
I7
sg66
I0
sg67
I3
ssI23
(dp1430
g65
I7
sg66
I0
sg67
I6
ssI24
(dp1431
g65
I7
sg66
I0
sg67
I8
ssI25
(dp1432
g65
I5
sg66
I0
sg67
I9
ssI26
(dp1433
g65
I5
sg66
I0
sg67
I4
ssI27
(dp1434
g65
I5
sg66
I0
sg67
I0
ssI28
(dp1435
g65
I6
sg66
I0
sg67
I7
ssI29
(dp1436
g65
I8
sg66
I0
sg67
I4
ssI30
(dp1437
g65
I5
sg66
I0
sg67
I7
ssI31
(dp1438
g65
I5
sg66
I0
sg67
I2
ssI32
(dp1439
g65
I6
sg66
I0
sg67
I8
ssI33
(dp1440
g65
I7
sg66
I0
sg67
I8
ssI34
(dp1441
g65
I6
sg66
I0
sg67
I3
ssI35
(dp1442
g65
I6
sg66
I0
sg67
I0
ssI36
(dp1443
g65
I7
sg66
I0
sg67
I5
ssI39
(dp1444
g65
I6
sg66
I0
sg67
I7
ssI40
(dp1445
g65
I7
sg66
I0
sg67
I3
ssI41
(dp1446
g65
I7
sg66
I0
sg67
I6
ssI44
(dp1447
g65
I7
sg66
I0
sg67
I8
ssI45
(dp1448
g65
I6
sg66
I0
sg67
I1
ssI46
(dp1449
g65
I5
sg66
I0
sg67
I0
ssI48
(dp1450
g65
I5
sg66
I0
sg67
I2
ssI49
(dp1451
g65
I5
sg66
I0
sg67
I5
ssI50
(dp1452
g65
I5
sg66
I0
sg67
I6
sssI38
(dp1453
I1
(dp1454
g65
I6
sg66
I0
sg67
I6
ssI2
(dp1455
g65
I5
sg66
I0
sg67
I9
ssI3
(dp1456
g65
I5
sg66
I0
sg67
I0
ssI4
(dp1457
g65
I6
sg66
I0
sg67
I2
ssI5
(dp1458
g65
I8
sg66
I0
sg67
I2
ssI6
(dp1459
g65
I5
sg66
I0
sg67
I7
ssI7
(dp1460
g65
I8
sg66
I0
sg67
I7
ssI8
(dp1461
g65
I5
sg66
I0
sg67
I8
ssI9
(dp1462
g65
I8
sg66
I0
sg67
I6
ssI10
(dp1463
g65
I8
sg66
I0
sg67
I6
ssI11
(dp1464
g65
I7
sg66
I0
sg67
I7
ssI12
(dp1465
g65
I8
sg66
I0
sg67
I10
ssI13
(dp1466
g65
I5
sg66
I0
sg67
I3
ssI14
(dp1467
g65
I8
sg66
I0
sg67
I6
ssI17
(dp1468
g65
I7
sg66
I0
sg67
I10
ssI18
(dp1469
g65
I6
sg66
I0
sg67
I5
ssI20
(dp1470
g65
I8
sg66
I0
sg67
I9
ssI21
(dp1471
g65
I7
sg66
I0
sg67
I3
ssI22
(dp1472
g65
I5
sg66
I0
sg67
I3
ssI23
(dp1473
g65
I5
sg66
I0
sg67
I10
ssI24
(dp1474
g65
I7
sg66
I0
sg67
I5
ssI25
(dp1475
g65
I5
sg66
I0
sg67
I1
ssI26
(dp1476
g65
I5
sg66
I0
sg67
I2
ssI28
(dp1477
g65
I8
sg66
I0
sg67
I5
ssI29
(dp1478
g65
I7
sg66
I0
sg67
I2
ssI31
(dp1479
g65
I6
sg66
I0
sg67
I0
ssI32
(dp1480
g65
I8
sg66
I0
sg67
I1
ssI33
(dp1481
g65
I7
sg66
I0
sg67
I1
ssI34
(dp1482
g65
I5
sg66
I0
sg67
I9
ssI35
(dp1483
g65
I8
sg66
I0
sg67
I4
ssI36
(dp1484
g65
I6
sg66
I0
sg67
I5
ssI37
(dp1485
g65
I5
sg66
I0
sg67
I10
ssI39
(dp1486
g65
I7
sg66
I0
sg67
I3
ssI40
(dp1487
g65
I6
sg66
I0
sg67
I3
ssI41
(dp1488
g65
I7
sg66
I0
sg67
I3
ssI42
(dp1489
g65
I6
sg66
I0
sg67
I6
ssI43
(dp1490
g65
I5
sg66
I0
sg67
I8
ssI45
(dp1491
g65
I6
sg66
I0
sg67
I3
ssI46
(dp1492
g65
I8
sg66
I0
sg67
I2
ssI47
(dp1493
g65
I8
sg66
I0
sg67
I0
ssI49
(dp1494
g65
I6
sg66
I0
sg67
I8
sssI39
(dp1495
I1
(dp1496
g65
I8
sg66
I0
sg67
I5
ssI2
(dp1497
g65
I8
sg66
I0
sg67
I10
ssI3
(dp1498
g65
I8
sg66
I0
sg67
I9
ssI4
(dp1499
g65
I7
sg66
I0
sg67
I10
ssI5
(dp1500
g65
I8
sg66
I0
sg67
I0
ssI8
(dp1501
g65
I5
sg66
I0
sg67
I8
ssI9
(dp1502
g65
I6
sg66
I0
sg67
I4
ssI12
(dp1503
g65
I8
sg66
I0
sg67
I5
ssI13
(dp1504
g65
I5
sg66
I0
sg67
I6
ssI14
(dp1505
g65
I8
sg66
I0
sg67
I8
ssI15
(dp1506
g65
I6
sg66
I0
sg67
I9
ssI16
(dp1507
g65
I7
sg66
I0
sg67
I10
ssI17
(dp1508
g65
I8
sg66
I0
sg67
I7
ssI18
(dp1509
g65
I5
sg66
I0
sg67
I7
ssI21
(dp1510
g65
I7
sg66
I0
sg67
I7
ssI22
(dp1511
g65
I5
sg66
I0
sg67
I8
ssI23
(dp1512
g65
I7
sg66
I0
sg67
I8
ssI24
(dp1513
g65
I7
sg66
I0
sg67
I6
ssI25
(dp1514
g65
I8
sg66
I0
sg67
I3
ssI26
(dp1515
g65
I6
sg66
I0
sg67
I4
ssI27
(dp1516
g65
I6
sg66
I0
sg67
I3
ssI28
(dp1517
g65
I8
sg66
I0
sg67
I4
ssI29
(dp1518
g65
I5
sg66
I0
sg67
I8
ssI30
(dp1519
g65
I8
sg66
I0
sg67
I1
ssI31
(dp1520
g65
I5
sg66
I0
sg67
I10
ssI32
(dp1521
g65
I5
sg66
I0
sg67
I3
ssI33
(dp1522
g65
I7
sg66
I0
sg67
I10
ssI35
(dp1523
g65
I7
sg66
I0
sg67
I7
ssI36
(dp1524
g65
I6
sg66
I0
sg67
I6
ssI38
(dp1525
g65
I8
sg66
I0
sg67
I5
ssI40
(dp1526
g65
I8
sg66
I0
sg67
I10
ssI43
(dp1527
g65
I6
sg66
I0
sg67
I4
ssI44
(dp1528
g65
I6
sg66
I0
sg67
I9
ssI45
(dp1529
g65
I6
sg66
I0
sg67
I4
ssI46
(dp1530
g65
I5
sg66
I0
sg67
I3
ssI48
(dp1531
g65
I7
sg66
I0
sg67
I0
ssI49
(dp1532
g65
I6
sg66
I0
sg67
I2
ssI50
(dp1533
g65
I6
sg66
I0
sg67
I0
sssI40
(dp1534
I2
(dp1535
g65
I7
sg66
I0
sg67
I2
ssI3
(dp1536
g65
I7
sg66
I0
sg67
I2
ssI5
(dp1537
g65
I8
sg66
I0
sg67
I8
ssI6
(dp1538
g65
I6
sg66
I0
sg67
I8
ssI7
(dp1539
g65
I8
sg66
I0
sg67
I5
ssI9
(dp1540
g65
I6
sg66
I0
sg67
I3
ssI10
(dp1541
g65
I5
sg66
I0
sg67
I9
ssI11
(dp1542
g65
I8
sg66
I0
sg67
I4
ssI12
(dp1543
g65
I8
sg66
I0
sg67
I9
ssI13
(dp1544
g65
I7
sg66
I0
sg67
I8
ssI14
(dp1545
g65
I7
sg66
I0
sg67
I3
ssI15
(dp1546
g65
I7
sg66
I0
sg67
I6
ssI16
(dp1547
g65
I6
sg66
I0
sg67
I3
ssI18
(dp1548
g65
I6
sg66
I0
sg67
I1
ssI19
(dp1549
g65
I7
sg66
I0
sg67
I9
ssI21
(dp1550
g65
I5
sg66
I0
sg67
I6
ssI22
(dp1551
g65
I8
sg66
I0
sg67
I0
ssI23
(dp1552
g65
I5
sg66
I0
sg67
I2
ssI24
(dp1553
g65
I5
sg66
I0
sg67
I3
ssI25
(dp1554
g65
I7
sg66
I0
sg67
I4
ssI26
(dp1555
g65
I7
sg66
I0
sg67
I0
ssI27
(dp1556
g65
I6
sg66
I0
sg67
I9
ssI28
(dp1557
g65
I8
sg66
I0
sg67
I5
ssI29
(dp1558
g65
I7
sg66
I0
sg67
I4
ssI30
(dp1559
g65
I8
sg66
I0
sg67
I0
ssI31
(dp1560
g65
I5
sg66
I0
sg67
I8
ssI32
(dp1561
g65
I6
sg66
I0
sg67
I7
ssI33
(dp1562
g65
I6
sg66
I0
sg67
I10
ssI34
(dp1563
g65
I7
sg66
I0
sg67
I7
ssI35
(dp1564
g65
I6
sg66
I0
sg67
I5
ssI36
(dp1565
g65
I6
sg66
I0
sg67
I9
ssI37
(dp1566
g65
I8
sg66
I0
sg67
I7
ssI39
(dp1567
g65
I6
sg66
I0
sg67
I1
ssI41
(dp1568
g65
I7
sg66
I0
sg67
I9
ssI43
(dp1569
g65
I6
sg66
I0
sg67
I9
ssI44
(dp1570
g65
I7
sg66
I0
sg67
I7
ssI46
(dp1571
g65
I7
sg66
I0
sg67
I2
ssI48
(dp1572
g65
I5
sg66
I0
sg67
I2
ssI50
(dp1573
g65
I7
sg66
I0
sg67
I5
sssI41
(dp1574
I1
(dp1575
g65
I6
sg66
I0
sg67
I0
ssI3
(dp1576
g65
I8
sg66
I0
sg67
I3
ssI5
(dp1577
g65
I7
sg66
I0
sg67
I9
ssI7
(dp1578
g65
I7
sg66
I0
sg67
I6
ssI8
(dp1579
g65
I8
sg66
I0
sg67
I9
ssI10
(dp1580
g65
I5
sg66
I0
sg67
I1
ssI11
(dp1581
g65
I8
sg66
I0
sg67
I3
ssI12
(dp1582
g65
I5
sg66
I0
sg67
I1
ssI14
(dp1583
g65
I8
sg66
I0
sg67
I9
ssI15
(dp1584
g65
I5
sg66
I0
sg67
I8
ssI16
(dp1585
g65
I8
sg66
I0
sg67
I6
ssI17
(dp1586
g65
I5
sg66
I0
sg67
I1
ssI18
(dp1587
g65
I6
sg66
I0
sg67
I2
ssI19
(dp1588
g65
I7
sg66
I0
sg67
I9
ssI21
(dp1589
g65
I8
sg66
I0
sg67
I6
ssI22
(dp1590
g65
I6
sg66
I0
sg67
I1
ssI23
(dp1591
g65
I7
sg66
I0
sg67
I10
ssI25
(dp1592
g65
I7
sg66
I0
sg67
I6
ssI26
(dp1593
g65
I8
sg66
I0
sg67
I6
ssI27
(dp1594
g65
I7
sg66
I0
sg67
I9
ssI29
(dp1595
g65
I8
sg66
I0
sg67
I6
ssI30
(dp1596
g65
I8
sg66
I0
sg67
I4
ssI31
(dp1597
g65
I5
sg66
I0
sg67
I0
ssI32
(dp1598
g65
I6
sg66
I0
sg67
I9
ssI33
(dp1599
g65
I7
sg66
I0
sg67
I5
ssI35
(dp1600
g65
I6
sg66
I0
sg67
I2
ssI37
(dp1601
g65
I6
sg66
I0
sg67
I8
ssI39
(dp1602
g65
I8
sg66
I0
sg67
I2
ssI40
(dp1603
g65
I5
sg66
I0
sg67
I5
ssI42
(dp1604
g65
I5
sg66
I0
sg67
I7
ssI43
(dp1605
g65
I8
sg66
I0
sg67
I6
ssI44
(dp1606
g65
I5
sg66
I0
sg67
I2
ssI47
(dp1607
g65
I8
sg66
I0
sg67
I9
ssI48
(dp1608
g65
I6
sg66
I0
sg67
I7
ssI49
(dp1609
g65
I7
sg66
I0
sg67
I7
ssI50
(dp1610
g65
I7
sg66
I0
sg67
I5
sssI42
(dp1611
I1
(dp1612
g65
I5
sg66
I0
sg67
I10
ssI2
(dp1613
g65
I6
sg66
I0
sg67
I6
ssI3
(dp1614
g65
I8
sg66
I0
sg67
I8
ssI4
(dp1615
g65
I8
sg66
I0
sg67
I3
ssI5
(dp1616
g65
I6
sg66
I0
sg67
I10
ssI7
(dp1617
g65
I6
sg66
I0
sg67
I1
ssI8
(dp1618
g65
I8
sg66
I0
sg67
I4
ssI9
(dp1619
g65
I6
sg66
I0
sg67
I8
ssI10
(dp1620
g65
I8
sg66
I0
sg67
I0
ssI11
(dp1621
g65
I5
sg66
I0
sg67
I4
ssI12
(dp1622
g65
I5
sg66
I0
sg67
I3
ssI13
(dp1623
g65
I5
sg66
I0
sg67
I5
ssI14
(dp1624
g65
I5
sg66
I0
sg67
I9
ssI15
(dp1625
g65
I6
sg66
I0
sg67
I3
ssI16
(dp1626
g65
I8
sg66
I0
sg67
I10
ssI18
(dp1627
g65
I6
sg66
I0
sg67
I8
ssI19
(dp1628
g65
I6
sg66
I0
sg67
I3
ssI20
(dp1629
g65
I8
sg66
I0
sg67
I1
ssI22
(dp1630
g65
I7
sg66
I0
sg67
I4
ssI24
(dp1631
g65
I7
sg66
I0
sg67
I8
ssI25
(dp1632
g65
I6
sg66
I0
sg67
I9
ssI26
(dp1633
g65
I5
sg66
I0
sg67
I7
ssI28
(dp1634
g65
I6
sg66
I0
sg67
I6
ssI30
(dp1635
g65
I8
sg66
I0
sg67
I10
ssI31
(dp1636
g65
I8
sg66
I0
sg67
I6
ssI33
(dp1637
g65
I6
sg66
I0
sg67
I1
ssI35
(dp1638
g65
I5
sg66
I0
sg67
I0
ssI36
(dp1639
g65
I6
sg66
I0
sg67
I5
ssI37
(dp1640
g65
I5
sg66
I0
sg67
I10
ssI43
(dp1641
g65
I8
sg66
I0
sg67
I1
ssI44
(dp1642
g65
I8
sg66
I0
sg67
I4
ssI45
(dp1643
g65
I7
sg66
I0
sg67
I1
ssI46
(dp1644
g65
I7
sg66
I0
sg67
I4
ssI47
(dp1645
g65
I8
sg66
I0
sg67
I8
ssI49
(dp1646
g65
I8
sg66
I0
sg67
I4
sssI43
(dp1647
I4
(dp1648
g65
I8
sg66
I0
sg67
I8
ssI5
(dp1649
g65
I5
sg66
I0
sg67
I7
ssI6
(dp1650
g65
I6
sg66
I0
sg67
I1
ssI7
(dp1651
g65
I5
sg66
I0
sg67
I5
ssI9
(dp1652
g65
I7
sg66
I0
sg67
I8
ssI10
(dp1653
g65
I7
sg66
I0
sg67
I5
ssI11
(dp1654
g65
I5
sg66
I0
sg67
I0
ssI14
(dp1655
g65
I7
sg66
I0
sg67
I7
ssI15
(dp1656
g65
I8
sg66
I0
sg67
I0
ssI17
(dp1657
g65
I5
sg66
I0
sg67
I0
ssI19
(dp1658
g65
I6
sg66
I0
sg67
I6
ssI20
(dp1659
g65
I8
sg66
I0
sg67
I0
ssI21
(dp1660
g65
I8
sg66
I0
sg67
I10
ssI22
(dp1661
g65
I5
sg66
I0
sg67
I0
ssI23
(dp1662
g65
I6
sg66
I0
sg67
I0
ssI24
(dp1663
g65
I7
sg66
I0
sg67
I8
ssI25
(dp1664
g65
I8
sg66
I0
sg67
I2
ssI26
(dp1665
g65
I5
sg66
I0
sg67
I7
ssI27
(dp1666
g65
I6
sg66
I0
sg67
I3
ssI28
(dp1667
g65
I5
sg66
I0
sg67
I0
ssI29
(dp1668
g65
I8
sg66
I0
sg67
I7
ssI30
(dp1669
g65
I5
sg66
I0
sg67
I0
ssI31
(dp1670
g65
I8
sg66
I0
sg67
I4
ssI32
(dp1671
g65
I5
sg66
I0
sg67
I7
ssI34
(dp1672
g65
I6
sg66
I0
sg67
I5
ssI35
(dp1673
g65
I6
sg66
I0
sg67
I4
ssI36
(dp1674
g65
I6
sg66
I0
sg67
I3
ssI37
(dp1675
g65
I5
sg66
I0
sg67
I10
ssI38
(dp1676
g65
I8
sg66
I0
sg67
I7
ssI40
(dp1677
g65
I6
sg66
I0
sg67
I8
ssI44
(dp1678
g65
I8
sg66
I0
sg67
I8
ssI45
(dp1679
g65
I7
sg66
I0
sg67
I3
ssI46
(dp1680
g65
I5
sg66
I0
sg67
I9
ssI47
(dp1681
g65
I5
sg66
I0
sg67
I5
ssI49
(dp1682
g65
I8
sg66
I0
sg67
I0
ssI50
(dp1683
g65
I5
sg66
I0
sg67
I1
sssI44
(dp1684
I1
(dp1685
g65
I6
sg66
I0
sg67
I3
ssI3
(dp1686
g65
I8
sg66
I0
sg67
I10
ssI4
(dp1687
g65
I5
sg66
I0
sg67
I8
ssI5
(dp1688
g65
I5
sg66
I0
sg67
I2
ssI6
(dp1689
g65
I7
sg66
I0
sg67
I10
ssI8
(dp1690
g65
I5
sg66
I0
sg67
I10
ssI10
(dp1691
g65
I8
sg66
I0
sg67
I9
ssI11
(dp1692
g65
I5
sg66
I0
sg67
I10
ssI12
(dp1693
g65
I8
sg66
I0
sg67
I7
ssI16
(dp1694
g65
I8
sg66
I0
sg67
I6
ssI17
(dp1695
g65
I7
sg66
I0
sg67
I6
ssI18
(dp1696
g65
I6
sg66
I0
sg67
I1
ssI19
(dp1697
g65
I8
sg66
I0
sg67
I2
ssI20
(dp1698
g65
I8
sg66
I0
sg67
I3
ssI22
(dp1699
g65
I7
sg66
I0
sg67
I3
ssI23
(dp1700
g65
I5
sg66
I0
sg67
I3
ssI25
(dp1701
g65
I5
sg66
I0
sg67
I1
ssI26
(dp1702
g65
I6
sg66
I0
sg67
I6
ssI27
(dp1703
g65
I8
sg66
I0
sg67
I5
ssI29
(dp1704
g65
I8
sg66
I0
sg67
I4
ssI30
(dp1705
g65
I6
sg66
I0
sg67
I6
ssI31
(dp1706
g65
I5
sg66
I0
sg67
I3
ssI32
(dp1707
g65
I6
sg66
I0
sg67
I3
ssI33
(dp1708
g65
I8
sg66
I0
sg67
I4
ssI34
(dp1709
g65
I5
sg66
I0
sg67
I7
ssI36
(dp1710
g65
I5
sg66
I0
sg67
I10
ssI37
(dp1711
g65
I8
sg66
I0
sg67
I3
ssI38
(dp1712
g65
I5
sg66
I0
sg67
I7
ssI39
(dp1713
g65
I6
sg66
I0
sg67
I7
ssI40
(dp1714
g65
I8
sg66
I0
sg67
I6
ssI41
(dp1715
g65
I6
sg66
I0
sg67
I10
ssI42
(dp1716
g65
I7
sg66
I0
sg67
I7
ssI43
(dp1717
g65
I7
sg66
I0
sg67
I6
ssI45
(dp1718
g65
I7
sg66
I0
sg67
I6
ssI46
(dp1719
g65
I7
sg66
I0
sg67
I1
ssI47
(dp1720
g65
I5
sg66
I0
sg67
I6
ssI48
(dp1721
g65
I7
sg66
I0
sg67
I2
ssI49
(dp1722
g65
I6
sg66
I0
sg67
I6
ssI50
(dp1723
g65
I6
sg66
I0
sg67
I2
sssI45
(dp1724
I1
(dp1725
g65
I8
sg66
I0
sg67
I5
ssI2
(dp1726
g65
I6
sg66
I0
sg67
I8
ssI3
(dp1727
g65
I5
sg66
I0
sg67
I5
ssI4
(dp1728
g65
I8
sg66
I0
sg67
I0
ssI5
(dp1729
g65
I5
sg66
I0
sg67
I4
ssI7
(dp1730
g65
I5
sg66
I0
sg67
I6
ssI8
(dp1731
g65
I7
sg66
I0
sg67
I9
ssI9
(dp1732
g65
I8
sg66
I0
sg67
I2
ssI10
(dp1733
g65
I7
sg66
I0
sg67
I8
ssI11
(dp1734
g65
I7
sg66
I0
sg67
I1
ssI13
(dp1735
g65
I5
sg66
I0
sg67
I7
ssI14
(dp1736
g65
I7
sg66
I0
sg67
I5
ssI15
(dp1737
g65
I7
sg66
I0
sg67
I4
ssI16
(dp1738
g65
I5
sg66
I0
sg67
I5
ssI18
(dp1739
g65
I5
sg66
I0
sg67
I6
ssI19
(dp1740
g65
I8
sg66
I0
sg67
I6
ssI20
(dp1741
g65
I8
sg66
I0
sg67
I10
ssI21
(dp1742
g65
I7
sg66
I0
sg67
I1
ssI22
(dp1743
g65
I6
sg66
I0
sg67
I7
ssI23
(dp1744
g65
I6
sg66
I0
sg67
I5
ssI24
(dp1745
g65
I7
sg66
I0
sg67
I8
ssI25
(dp1746
g65
I8
sg66
I0
sg67
I1
ssI26
(dp1747
g65
I7
sg66
I0
sg67
I6
ssI27
(dp1748
g65
I8
sg66
I0
sg67
I6
ssI28
(dp1749
g65
I7
sg66
I0
sg67
I10
ssI29
(dp1750
g65
I8
sg66
I0
sg67
I9
ssI30
(dp1751
g65
I8
sg66
I0
sg67
I7
ssI31
(dp1752
g65
I5
sg66
I0
sg67
I9
ssI33
(dp1753
g65
I6
sg66
I0
sg67
I9
ssI35
(dp1754
g65
I5
sg66
I0
sg67
I2
ssI36
(dp1755
g65
I5
sg66
I0
sg67
I8
ssI38
(dp1756
g65
I7
sg66
I0
sg67
I6
ssI39
(dp1757
g65
I8
sg66
I0
sg67
I8
ssI41
(dp1758
g65
I8
sg66
I0
sg67
I10
ssI44
(dp1759
g65
I6
sg66
I0
sg67
I4
ssI46
(dp1760
g65
I8
sg66
I0
sg67
I1
ssI47
(dp1761
g65
I6
sg66
I0
sg67
I3
ssI48
(dp1762
g65
I7
sg66
I0
sg67
I9
ssI50
(dp1763
g65
I7
sg66
I0
sg67
I0
sssI46
(dp1764
I1
(dp1765
g65
I5
sg66
I0
sg67
I2
ssI2
(dp1766
g65
I7
sg66
I0
sg67
I8
ssI3
(dp1767
g65
I5
sg66
I0
sg67
I6
ssI4
(dp1768
g65
I6
sg66
I0
sg67
I1
ssI5
(dp1769
g65
I5
sg66
I0
sg67
I8
ssI6
(dp1770
g65
I6
sg66
I0
sg67
I5
ssI7
(dp1771
g65
I7
sg66
I0
sg67
I1
ssI8
(dp1772
g65
I6
sg66
I0
sg67
I6
ssI9
(dp1773
g65
I7
sg66
I0
sg67
I9
ssI10
(dp1774
g65
I5
sg66
I0
sg67
I3
ssI11
(dp1775
g65
I6
sg66
I0
sg67
I8
ssI13
(dp1776
g65
I8
sg66
I0
sg67
I10
ssI14
(dp1777
g65
I7
sg66
I0
sg67
I5
ssI15
(dp1778
g65
I5
sg66
I0
sg67
I5
ssI16
(dp1779
g65
I5
sg66
I0
sg67
I8
ssI18
(dp1780
g65
I8
sg66
I0
sg67
I8
ssI19
(dp1781
g65
I6
sg66
I0
sg67
I8
ssI20
(dp1782
g65
I7
sg66
I0
sg67
I9
ssI24
(dp1783
g65
I5
sg66
I0
sg67
I4
ssI26
(dp1784
g65
I8
sg66
I0
sg67
I6
ssI27
(dp1785
g65
I6
sg66
I0
sg67
I10
ssI29
(dp1786
g65
I5
sg66
I0
sg67
I0
ssI30
(dp1787
g65
I7
sg66
I0
sg67
I7
ssI32
(dp1788
g65
I5
sg66
I0
sg67
I8
ssI33
(dp1789
g65
I7
sg66
I0
sg67
I6
ssI34
(dp1790
g65
I6
sg66
I0
sg67
I10
ssI35
(dp1791
g65
I7
sg66
I0
sg67
I1
ssI36
(dp1792
g65
I5
sg66
I0
sg67
I3
ssI37
(dp1793
g65
I7
sg66
I0
sg67
I5
ssI38
(dp1794
g65
I8
sg66
I0
sg67
I0
ssI39
(dp1795
g65
I8
sg66
I0
sg67
I7
ssI40
(dp1796
g65
I8
sg66
I0
sg67
I10
ssI41
(dp1797
g65
I7
sg66
I0
sg67
I3
ssI43
(dp1798
g65
I6
sg66
I0
sg67
I6
ssI44
(dp1799
g65
I8
sg66
I0
sg67
I9
ssI45
(dp1800
g65
I6
sg66
I0
sg67
I3
ssI49
(dp1801
g65
I7
sg66
I0
sg67
I9
sssI47
(dp1802
I2
(dp1803
g65
I8
sg66
I0
sg67
I6
ssI3
(dp1804
g65
I7
sg66
I0
sg67
I10
ssI6
(dp1805
g65
I7
sg66
I0
sg67
I5
ssI8
(dp1806
g65
I7
sg66
I0
sg67
I4
ssI11
(dp1807
g65
I7
sg66
I0
sg67
I3
ssI12
(dp1808
g65
I8
sg66
I0
sg67
I6
ssI13
(dp1809
g65
I5
sg66
I0
sg67
I6
ssI14
(dp1810
g65
I6
sg66
I0
sg67
I9
ssI15
(dp1811
g65
I5
sg66
I0
sg67
I6
ssI17
(dp1812
g65
I7
sg66
I0
sg67
I6
ssI18
(dp1813
g65
I5
sg66
I0
sg67
I10
ssI19
(dp1814
g65
I7
sg66
I0
sg67
I5
ssI20
(dp1815
g65
I8
sg66
I0
sg67
I2
ssI21
(dp1816
g65
I5
sg66
I0
sg67
I9
ssI23
(dp1817
g65
I5
sg66
I0
sg67
I1
ssI24
(dp1818
g65
I6
sg66
I0
sg67
I2
ssI25
(dp1819
g65
I7
sg66
I0
sg67
I10
ssI27
(dp1820
g65
I8
sg66
I0
sg67
I5
ssI28
(dp1821
g65
I6
sg66
I0
sg67
I5
ssI29
(dp1822
g65
I7
sg66
I0
sg67
I9
ssI30
(dp1823
g65
I6
sg66
I0
sg67
I9
ssI31
(dp1824
g65
I7
sg66
I0
sg67
I6
ssI32
(dp1825
g65
I8
sg66
I0
sg67
I9
ssI33
(dp1826
g65
I7
sg66
I0
sg67
I6
ssI34
(dp1827
g65
I8
sg66
I0
sg67
I9
ssI35
(dp1828
g65
I7
sg66
I0
sg67
I3
ssI36
(dp1829
g65
I8
sg66
I0
sg67
I6
ssI40
(dp1830
g65
I7
sg66
I0
sg67
I4
ssI44
(dp1831
g65
I6
sg66
I0
sg67
I1
ssI46
(dp1832
g65
I7
sg66
I0
sg67
I8
ssI48
(dp1833
g65
I6
sg66
I0
sg67
I4
ssI49
(dp1834
g65
I8
sg66
I0
sg67
I7
ssI50
(dp1835
g65
I7
sg66
I0
sg67
I4
sssI48
(dp1836
I1
(dp1837
g65
I6
sg66
I0
sg67
I4
ssI2
(dp1838
g65
I5
sg66
I0
sg67
I10
ssI3
(dp1839
g65
I8
sg66
I0
sg67
I5
ssI5
(dp1840
g65
I7
sg66
I0
sg67
I9
ssI6
(dp1841
g65
I7
sg66
I0
sg67
I9
ssI7
(dp1842
g65
I5
sg66
I0
sg67
I10
ssI8
(dp1843
g65
I5
sg66
I0
sg67
I2
ssI9
(dp1844
g65
I6
sg66
I0
sg67
I0
ssI10
(dp1845
g65
I6
sg66
I0
sg67
I9
ssI11
(dp1846
g65
I5
sg66
I0
sg67
I7
ssI12
(dp1847
g65
I6
sg66
I0
sg67
I7
ssI14
(dp1848
g65
I5
sg66
I0
sg67
I2
ssI17
(dp1849
g65
I6
sg66
I0
sg67
I10
ssI18
(dp1850
g65
I7
sg66
I0
sg67
I6
ssI19
(dp1851
g65
I7
sg66
I0
sg67
I8
ssI21
(dp1852
g65
I8
sg66
I0
sg67
I4
ssI22
(dp1853
g65
I8
sg66
I0
sg67
I1
ssI23
(dp1854
g65
I7
sg66
I0
sg67
I10
ssI24
(dp1855
g65
I6
sg66
I0
sg67
I2
ssI26
(dp1856
g65
I7
sg66
I0
sg67
I4
ssI27
(dp1857
g65
I6
sg66
I0
sg67
I10
ssI29
(dp1858
g65
I6
sg66
I0
sg67
I10
ssI30
(dp1859
g65
I5
sg66
I0
sg67
I9
ssI31
(dp1860
g65
I6
sg66
I0
sg67
I2
ssI32
(dp1861
g65
I7
sg66
I0
sg67
I8
ssI33
(dp1862
g65
I6
sg66
I0
sg67
I5
ssI36
(dp1863
g65
I5
sg66
I0
sg67
I0
ssI37
(dp1864
g65
I5
sg66
I0
sg67
I8
ssI38
(dp1865
g65
I6
sg66
I0
sg67
I7
ssI40
(dp1866
g65
I6
sg66
I0
sg67
I4
ssI43
(dp1867
g65
I6
sg66
I0
sg67
I2
ssI44
(dp1868
g65
I8
sg66
I0
sg67
I5
ssI45
(dp1869
g65
I6
sg66
I0
sg67
I4
ssI46
(dp1870
g65
I7
sg66
I0
sg67
I8
ssI47
(dp1871
g65
I7
sg66
I0
sg67
I4
ssI49
(dp1872
g65
I5
sg66
I0
sg67
I4
ssI50
(dp1873
g65
I5
sg66
I0
sg67
I10
sssI49
(dp1874
I1
(dp1875
g65
I7
sg66
I0
sg67
I9
ssI2
(dp1876
g65
I5
sg66
I0
sg67
I5
ssI3
(dp1877
g65
I7
sg66
I0
sg67
I3
ssI4
(dp1878
g65
I6
sg66
I0
sg67
I6
ssI5
(dp1879
g65
I6
sg66
I0
sg67
I7
ssI8
(dp1880
g65
I7
sg66
I0
sg67
I9
ssI9
(dp1881
g65
I6
sg66
I0
sg67
I4
ssI10
(dp1882
g65
I5
sg66
I0
sg67
I4
ssI11
(dp1883
g65
I8
sg66
I0
sg67
I7
ssI12
(dp1884
g65
I8
sg66
I0
sg67
I2
ssI14
(dp1885
g65
I5
sg66
I0
sg67
I4
ssI15
(dp1886
g65
I5
sg66
I0
sg67
I1
ssI16
(dp1887
g65
I5
sg66
I0
sg67
I7
ssI17
(dp1888
g65
I6
sg66
I0
sg67
I7
ssI18
(dp1889
g65
I6
sg66
I0
sg67
I5
ssI21
(dp1890
g65
I6
sg66
I0
sg67
I1
ssI23
(dp1891
g65
I6
sg66
I0
sg67
I4
ssI24
(dp1892
g65
I7
sg66
I0
sg67
I9
ssI26
(dp1893
g65
I5
sg66
I0
sg67
I4
ssI28
(dp1894
g65
I7
sg66
I0
sg67
I10
ssI30
(dp1895
g65
I7
sg66
I0
sg67
I6
ssI31
(dp1896
g65
I7
sg66
I0
sg67
I3
ssI32
(dp1897
g65
I7
sg66
I0
sg67
I1
ssI33
(dp1898
g65
I6
sg66
I0
sg67
I2
ssI34
(dp1899
g65
I5
sg66
I0
sg67
I10
ssI35
(dp1900
g65
I7
sg66
I0
sg67
I3
ssI36
(dp1901
g65
I5
sg66
I0
sg67
I1
ssI37
(dp1902
g65
I7
sg66
I0
sg67
I2
ssI38
(dp1903
g65
I6
sg66
I0
sg67
I2
ssI39
(dp1904
g65
I6
sg66
I0
sg67
I9
ssI41
(dp1905
g65
I6
sg66
I0
sg67
I5
ssI42
(dp1906
g65
I8
sg66
I0
sg67
I4
ssI43
(dp1907
g65
I8
sg66
I0
sg67
I9
ssI44
(dp1908
g65
I6
sg66
I0
sg67
I3
ssI47
(dp1909
g65
I7
sg66
I0
sg67
I2
ssI50
(dp1910
g65
I7
sg66
I0
sg67
I10
sssI50
(dp1911
I1
(dp1912
g65
I5
sg66
I0
sg67
I0
ssI2
(dp1913
g65
I6
sg66
I0
sg67
I10
ssI3
(dp1914
g65
I5
sg66
I0
sg67
I7
ssI4
(dp1915
g65
I7
sg66
I0
sg67
I2
ssI5
(dp1916
g65
I7
sg66
I0
sg67
I10
ssI6
(dp1917
g65
I5
sg66
I0
sg67
I6
ssI7
(dp1918
g65
I7
sg66
I0
sg67
I6
ssI8
(dp1919
g65
I6
sg66
I0
sg67
I1
ssI9
(dp1920
g65
I8
sg66
I0
sg67
I10
ssI11
(dp1921
g65
I5
sg66
I0
sg67
I5
ssI12
(dp1922
g65
I7
sg66
I0
sg67
I5
ssI13
(dp1923
g65
I5
sg66
I0
sg67
I3
ssI14
(dp1924
g65
I7
sg66
I0
sg67
I6
ssI15
(dp1925
g65
I6
sg66
I0
sg67
I0
ssI16
(dp1926
g65
I6
sg66
I0
sg67
I5
ssI17
(dp1927
g65
I7
sg66
I0
sg67
I8
ssI18
(dp1928
g65
I7
sg66
I0
sg67
I8
ssI20
(dp1929
g65
I5
sg66
I0
sg67
I1
ssI21
(dp1930
g65
I6
sg66
I0
sg67
I5
ssI22
(dp1931
g65
I6
sg66
I0
sg67
I5
ssI23
(dp1932
g65
I7
sg66
I0
sg67
I4
ssI26
(dp1933
g65
I5
sg66
I0
sg67
I8
ssI27
(dp1934
g65
I6
sg66
I0
sg67
I3
ssI28
(dp1935
g65
I7
sg66
I0
sg67
I3
ssI29
(dp1936
g65
I7
sg66
I0
sg67
I10
ssI31
(dp1937
g65
I5
sg66
I0
sg67
I2
ssI32
(dp1938
g65
I7
sg66
I0
sg67
I3
ssI33
(dp1939
g65
I5
sg66
I0
sg67
I1
ssI34
(dp1940
g65
I7
sg66
I0
sg67
I9
ssI35
(dp1941
g65
I8
sg66
I0
sg67
I5
ssI36
(dp1942
g65
I6
sg66
I0
sg67
I3
ssI37
(dp1943
g65
I8
sg66
I0
sg67
I6
ssI38
(dp1944
g65
I7
sg66
I0
sg67
I3
ssI39
(dp1945
g65
I5
sg66
I0
sg67
I6
ssI40
(dp1946
g65
I8
sg66
I0
sg67
I5
ssI42
(dp1947
g65
I7
sg66
I0
sg67
I2
ssI43
(dp1948
g65
I8
sg66
I0
sg67
I2
ssI44
(dp1949
g65
I7
sg66
I0
sg67
I1
ssI45
(dp1950
g65
I6
sg66
I0
sg67
I7
ssI46
(dp1951
g65
I7
sg66
I0
sg67
I3
ssI47
(dp1952
g65
I7
sg66
I0
sg67
I10
ssssS'edge'
p1953
g62
sS'pred'
p1954
(dp1955
I1
(dp1956
I2
g101
sI4
g172
sI6
g252
sI8
g320
sI9
g362
sI10
g400
sI11
g434
sI12
g471
sI13
g507
sI14
g544
sI15
g580
sI16
g615
sI17
g651
sI19
g728
sI20
g765
sI22
g840
sI23
g879
sI25
g957
sI26
g995
sI27
g1035
sI28
g1069
sI29
g1109
sI31
g1185
sI32
g1224
sI33
g1259
sI34
g1294
sI35
g1335
sI36
g1375
sI37
g1412
sI38
g1454
sI39
g1496
sI41
g1575
sI42
g1612
sI44
g1685
sI45
g1725
sI46
g1765
sI48
g1837
sI49
g1875
sI50
g1912
ssI2
(dp1957
I3
g137
sI4
g173
sI5
g213
sI6
g253
sI7
g289
sI12
g472
sI14
g545
sI15
g581
sI16
g616
sI17
g652
sI18
g689
sI20
g766
sI21
g802
sI22
g841
sI23
g880
sI24
g920
sI25
g958
sI27
g1036
sI28
g1070
sI30
g1145
sI31
g1186
sI33
g1260
sI35
g1336
sI36
g1376
sI37
g1413
sI38
g1455
sI39
g1497
sI40
g1535
sI42
g1613
sI45
g1726
sI46
g1766
sI47
g1803
sI48
g1838
sI49
g1876
sI50
g1913
ssI3
(dp1958
I1
g64
sI2
g102
sI4
g174
sI5
g214
sI9
g363
sI10
g401
sI11
g435
sI12
g473
sI13
g508
sI14
g546
sI15
g582
sI16
g617
sI17
g653
sI18
g690
sI19
g729
sI20
g767
sI21
g803
sI22
g842
sI23
g881
sI24
g921
sI25
g959
sI27
g1037
sI28
g1071
sI30
g1146
sI31
g1187
sI32
g1225
sI34
g1295
sI35
g1337
sI36
g1377
sI37
g1414
sI38
g1456
sI39
g1498
sI40
g1536
sI41
g1576
sI42
g1614
sI44
g1686
sI45
g1727
sI46
g1767
sI47
g1804
sI48
g1839
sI49
g1877
sI50
g1914
ssI4
(dp1959
I1
g68
sI5
g215
sI6
g254
sI7
g290
sI8
g321
sI11
g436
sI13
g509
sI14
g547
sI16
g618
sI17
g654
sI18
g691
sI19
g730
sI20
g768
sI21
g804
sI22
g843
sI24
g922
sI25
g960
sI26
g996
sI28
g1072
sI29
g1110
sI30
g1147
sI32
g1226
sI34
g1296
sI35
g1338
sI37
g1415
sI38
g1457
sI39
g1499
sI42
g1615
sI43
g1648
sI44
g1687
sI45
g1728
sI46
g1768
sI49
g1878
sI50
g1915
ssI5
(dp1960
I1
g69
sI2
g103
sI3
g138
sI4
g175
sI6
g255
sI8
g322
sI9
g364
sI10
g402
sI13
g510
sI14
g548
sI15
g583
sI17
g655
sI18
g692
sI20
g769
sI23
g882
sI25
g961
sI26
g997
sI27
g1038
sI28
g1073
sI29
g1111
sI30
g1148
sI31
g1188
sI32
g1227
sI33
g1261
sI36
g1378
sI37
g1416
sI38
g1458
sI39
g1500
sI40
g1537
sI41
g1577
sI42
g1616
sI43
g1649
sI44
g1688
sI45
g1729
sI46
g1769
sI48
g1840
sI49
g1879
sI50
g1916
ssI6
(dp1961
I1
g70
sI3
g139
sI8
g323
sI9
g365
sI10
g403
sI11
g437
sI12
g474
sI13
g511
sI14
g549
sI17
g656
sI19
g731
sI21
g805
sI22
g844
sI25
g962
sI26
g998
sI29
g1112
sI30
g1149
sI31
g1189
sI32
g1228
sI33
g1262
sI35
g1339
sI38
g1459
sI40
g1538
sI43
g1650
sI44
g1689
sI46
g1770
sI47
g1805
sI48
g1841
sI50
g1917
ssI7
(dp1962
I1
g71
sI2
g104
sI3
g140
sI4
g176
sI5
g216
sI6
g256
sI8
g324
sI9
g366
sI11
g438
sI12
g475
sI14
g550
sI16
g619
sI19
g732
sI23
g883
sI24
g923
sI26
g999
sI27
g1039
sI28
g1074
sI29
g1113
sI30
g1150
sI31
g1190
sI32
g1229
sI33
g1263
sI34
g1297
sI35
g1340
sI36
g1379
sI37
g1417
sI38
g1460
sI40
g1539
sI41
g1578
sI42
g1617
sI43
g1651
sI45
g1730
sI46
g1771
sI48
g1842
sI50
g1918
ssI8
(dp1963
I1
g72
sI2
g105
sI3
g141
sI4
g177
sI5
g217
sI7
g291
sI9
g367
sI10
g404
sI11
g439
sI12
g476
sI13
g512
sI15
g584
sI16
g620
sI19
g733
sI20
g770
sI21
g806
sI22
g845
sI23
g884
sI24
g924
sI25
g963
sI28
g1075
sI29
g1114
sI31
g1191
sI32
g1230
sI33
g1264
sI34
g1298
sI35
g1341
sI36
g1380
sI37
g1418
sI38
g1461
sI39
g1501
sI41
g1579
sI42
g1618
sI44
g1690
sI45
g1731
sI46
g1772
sI47
g1806
sI48
g1843
sI49
g1880
sI50
g1919
ssI9
(dp1964
I1
g73
sI2
g106
sI5
g218
sI6
g257
sI8
g325
sI10
g405
sI12
g477
sI13
g513
sI14
g551
sI15
g585
sI16
g621
sI17
g657
sI18
g693
sI19
g734
sI20
g771
sI21
g807
sI22
g846
sI23
g885
sI25
g964
sI26
g1000
sI29
g1115
sI30
g1151
sI31
g1192
sI32
g1231
sI33
g1265
sI34
g1299
sI35
g1342
sI37
g1419
sI38
g1462
sI39
g1502
sI40
g1540
sI42
g1619
sI43
g1652
sI45
g1732
sI46
g1773
sI48
g1844
sI49
g1881
sI50
g1920
ssI10
(dp1965
I1
g74
sI2
g107
sI3
g142
sI4
g178
sI5
g219
sI6
g258
sI7
g292
sI8
g326
sI9
g368
sI12
g478
sI16
g622
sI17
g658
sI18
g694
sI21
g808
sI22
g847
sI23
g886
sI26
g1001
sI27
g1040
sI28
g1076
sI29
g1116
sI30
g1152
sI31
g1193
sI32
g1232
sI34
g1300
sI35
g1343
sI36
g1381
sI37
g1420
sI38
g1463
sI40
g1541
sI41
g1580
sI42
g1620
sI43
g1653
sI44
g1691
sI45
g1733
sI46
g1774
sI48
g1845
sI49
g1882
ssI11
(dp1966
I1
g75
sI2
g108
sI4
g179
sI5
g220
sI7
g293
sI8
g327
sI9
g369
sI10
g406
sI13
g514
sI14
g552
sI15
g586
sI18
g695
sI19
g735
sI21
g809
sI22
g848
sI23
g887
sI26
g1002
sI27
g1041
sI28
g1077
sI29
g1117
sI30
g1153
sI31
g1194
sI34
g1301
sI36
g1382
sI37
g1421
sI38
g1464
sI40
g1542
sI41
g1581
sI42
g1621
sI43
g1654
sI44
g1692
sI45
g1734
sI46
g1775
sI47
g1807
sI48
g1846
sI49
g1883
sI50
g1921
ssI12
(dp1967
I1
g76
sI3
g143
sI4
g180
sI6
g259
sI7
g294
sI8
g328
sI10
g407
sI11
g440
sI13
g515
sI15
g587
sI17
g659
sI18
g696
sI19
g736
sI23
g888
sI24
g925
sI25
g965
sI26
g1003
sI27
g1042
sI28
g1078
sI30
g1154
sI31
g1195
sI32
g1233
sI33
g1266
sI34
g1302
sI35
g1344
sI36
g1383
sI37
g1422
sI38
g1465
sI39
g1503
sI40
g1543
sI41
g1582
sI42
g1622
sI44
g1693
sI47
g1808
sI48
g1847
sI49
g1884
sI50
g1922
ssI13
(dp1968
I1
g77
sI2
g109
sI3
g144
sI4
g181
sI6
g260
sI8
g329
sI9
g370
sI11
g441
sI12
g479
sI14
g553
sI16
g623
sI20
g772
sI21
g810
sI22
g849
sI24
g926
sI25
g966
sI26
g1004
sI27
g1043
sI28
g1079
sI29
g1118
sI30
g1155
sI31
g1196
sI32
g1234
sI33
g1267
sI34
g1303
sI35
g1345
sI36
g1384
sI37
g1423
sI38
g1466
sI39
g1504
sI40
g1544
sI42
g1623
sI45
g1735
sI46
g1776
sI47
g1809
sI50
g1923
ssI14
(dp1969
I2
g110
sI3
g145
sI4
g182
sI5
g221
sI7
g295
sI8
g330
sI9
g371
sI10
g408
sI11
g442
sI12
g480
sI13
g516
sI15
g588
sI16
g624
sI17
g660
sI18
g697
sI20
g773
sI22
g850
sI23
g889
sI24
g927
sI25
g967
sI26
g1005
sI27
g1044
sI28
g1080
sI29
g1119
sI30
g1156
sI32
g1235
sI34
g1304
sI35
g1346
sI36
g1385
sI38
g1467
sI39
g1505
sI40
g1545
sI41
g1583
sI42
g1624
sI43
g1655
sI45
g1736
sI46
g1777
sI47
g1810
sI48
g1848
sI49
g1885
sI50
g1924
ssI15
(dp1970
I1
g78
sI2
g111
sI3
g146
sI4
g183
sI5
g222
sI6
g261
sI7
g296
sI8
g331
sI9
g372
sI11
g443
sI12
g481
sI13
g517
sI14
g554
sI16
g625
sI17
g661
sI18
g698
sI19
g737
sI23
g890
sI24
g928
sI26
g1006
sI27
g1045
sI28
g1081
sI30
g1157
sI31
g1197
sI34
g1305
sI35
g1347
sI39
g1506
sI40
g1546
sI41
g1584
sI42
g1625
sI43
g1656
sI45
g1737
sI46
g1778
sI47
g1811
sI49
g1886
sI50
g1925
ssI16
(dp1971
I2
g112
sI3
g147
sI4
g184
sI5
g223
sI6
g262
sI8
g332
sI9
g373
sI10
g409
sI12
g482
sI14
g555
sI15
g589
sI18
g699
sI19
g738
sI20
g774
sI21
g811
sI22
g851
sI23
g891
sI24
g929
sI27
g1046
sI28
g1082
sI29
g1120
sI31
g1198
sI32
g1236
sI33
g1268
sI34
g1306
sI35
g1348
sI36
g1386
sI37
g1424
sI39
g1507
sI40
g1547
sI41
g1585
sI42
g1626
sI44
g1694
sI45
g1738
sI46
g1779
sI49
g1887
sI50
g1926
ssI17
(dp1972
I1
g79
sI3
g148
sI4
g185
sI5
g224
sI6
g263
sI7
g297
sI8
g333
sI9
g374
sI10
g410
sI11
g444
sI12
g483
sI13
g518
sI15
g590
sI16
g626
sI18
g700
sI19
g739
sI20
g775
sI21
g812
sI22
g852
sI23
g892
sI25
g968
sI26
g1007
sI27
g1047
sI29
g1121
sI30
g1158
sI35
g1349
sI36
g1387
sI37
g1425
sI38
g1468
sI39
g1508
sI41
g1586
sI43
g1657
sI44
g1695
sI47
g1812
sI48
g1849
sI49
g1888
sI50
g1927
ssI18
(dp1973
I1
g80
sI2
g113
sI3
g149
sI4
g186
sI5
g225
sI6
g264
sI7
g298
sI8
g334
sI9
g375
sI10
g411
sI11
g445
sI15
g591
sI17
g662
sI19
g740
sI20
g776
sI21
g813
sI23
g893
sI24
g930
sI25
g969
sI27
g1048
sI28
g1083
sI29
g1122
sI30
g1159
sI33
g1269
sI34
g1307
sI35
g1350
sI36
g1388
sI37
g1426
sI38
g1469
sI39
g1509
sI40
g1548
sI41
g1587
sI42
g1627
sI44
g1696
sI45
g1739
sI46
g1780
sI47
g1813
sI48
g1850
sI49
g1889
sI50
g1928
ssI19
(dp1974
I2
g114
sI4
g187
sI5
g226
sI6
g265
sI7
g299
sI9
g376
sI10
g412
sI11
g446
sI12
g484
sI13
g519
sI15
g592
sI16
g627
sI17
g663
sI18
g701
sI20
g777
sI21
g814
sI23
g894
sI25
g970
sI26
g1008
sI28
g1084
sI31
g1199
sI32
g1237
sI34
g1308
sI35
g1351
sI37
g1427
sI40
g1549
sI41
g1588
sI42
g1628
sI43
g1658
sI44
g1697
sI45
g1740
sI46
g1781
sI47
g1814
sI48
g1851
ssI20
(dp1975
I3
g150
sI4
g188
sI5
g227
sI7
g300
sI8
g335
sI9
g377
sI12
g485
sI13
g520
sI14
g556
sI15
g593
sI16
g628
sI17
g664
sI18
g702
sI21
g815
sI22
g853
sI23
g895
sI26
g1009
sI28
g1085
sI30
g1160
sI31
g1200
sI32
g1238
sI33
g1270
sI34
g1309
sI36
g1389
sI37
g1428
sI38
g1470
sI42
g1629
sI43
g1659
sI44
g1698
sI45
g1741
sI46
g1782
sI47
g1815
sI50
g1929
ssI21
(dp1976
I3
g151
sI4
g189
sI5
g228
sI6
g266
sI7
g301
sI8
g336
sI9
g378
sI10
g413
sI11
g447
sI13
g521
sI14
g557
sI16
g629
sI17
g665
sI18
g703
sI20
g778
sI23
g896
sI24
g931
sI25
g971
sI26
g1010
sI27
g1049
sI29
g1123
sI30
g1161
sI31
g1201
sI32
g1239
sI33
g1271
sI34
g1310
sI38
g1471
sI39
g1510
sI40
g1550
sI41
g1589
sI43
g1660
sI45
g1742
sI47
g1816
sI48
g1852
sI49
g1890
sI50
g1930
ssI22
(dp1977
I1
g81
sI2
g115
sI4
g190
sI5
g229
sI6
g267
sI7
g302
sI8
g337
sI9
g379
sI10
g414
sI11
g448
sI12
g486
sI14
g558
sI15
g594
sI17
g666
sI18
g704
sI19
g741
sI20
g779
sI21
g816
sI23
g897
sI24
g932
sI26
g1011
sI28
g1086
sI29
g1124
sI30
g1162
sI32
g1240
sI33
g1272
sI34
g1311
sI35
g1352
sI37
g1429
sI38
g1472
sI39
g1511
sI40
g1551
sI41
g1590
sI42
g1630
sI43
g1661
sI44
g1699
sI45
g1743
sI48
g1853
sI50
g1931
ssI23
(dp1978
I1
g82
sI4
g191
sI5
g230
sI7
g303
sI8
g338
sI9
g380
sI10
g415
sI11
g449
sI12
g487
sI13
g522
sI14
g559
sI16
g630
sI17
g667
sI18
g705
sI19
g742
sI20
g780
sI22
g854
sI24
g933
sI25
g972
sI26
g1012
sI28
g1087
sI30
g1163
sI31
g1202
sI33
g1273
sI34
g1312
sI35
g1353
sI36
g1390
sI37
g1430
sI38
g1473
sI39
g1512
sI40
g1552
sI41
g1591
sI43
g1662
sI44
g1700
sI45
g1744
sI47
g1817
sI48
g1854
sI49
g1891
sI50
g1932
ssI24
(dp1979
I1
g83
sI3
g152
sI5
g231
sI6
g268
sI7
g304
sI8
g339
sI9
g381
sI10
g416
sI11
g450
sI12
g488
sI13
g523
sI14
g560
sI15
g595
sI16
g631
sI18
g706
sI19
g743
sI20
g781
sI22
g855
sI23
g898
sI26
g1013
sI28
g1088
sI29
g1125
sI30
g1164
sI31
g1203
sI32
g1241
sI33
g1274
sI34
g1313
sI35
g1354
sI36
g1391
sI37
g1431
sI38
g1474
sI39
g1513
sI40
g1553
sI42
g1631
sI43
g1663
sI45
g1745
sI46
g1783
sI47
g1818
sI48
g1855
sI49
g1892
ssI25
(dp1980
I1
g84
sI2
g116
sI3
g153
sI4
g192
sI6
g269
sI7
g305
sI11
g451
sI12
g489
sI14
g561
sI15
g596
sI16
g632
sI17
g668
sI19
g744
sI20
g782
sI21
g817
sI22
g856
sI23
g899
sI24
g934
sI26
g1014
sI27
g1050
sI28
g1089
sI29
g1126
sI30
g1165
sI31
g1204
sI32
g1242
sI33
g1275
sI34
g1314
sI35
g1355
sI36
g1392
sI37
g1432
sI38
g1475
sI39
g1514
sI40
g1554
sI41
g1592
sI42
g1632
sI43
g1664
sI44
g1701
sI45
g1746
sI47
g1819
ssI26
(dp1981
I2
g117
sI3
g154
sI5
g232
sI7
g306
sI8
g340
sI11
g452
sI12
g490
sI13
g524
sI18
g707
sI19
g745
sI20
g783
sI22
g857
sI23
g900
sI25
g973
sI27
g1051
sI28
g1090
sI29
g1127
sI30
g1166
sI32
g1243
sI33
g1276
sI34
g1315
sI36
g1393
sI37
g1433
sI38
g1476
sI39
g1515
sI40
g1555
sI41
g1593
sI42
g1633
sI43
g1665
sI44
g1702
sI45
g1747
sI46
g1784
sI48
g1856
sI49
g1893
sI50
g1933
ssI27
(dp1982
I1
g85
sI2
g118
sI3
g155
sI5
g233
sI6
g270
sI8
g341
sI10
g417
sI11
g453
sI12
g491
sI13
g525
sI14
g562
sI17
g669
sI18
g708
sI19
g746
sI23
g901
sI24
g935
sI25
g974
sI28
g1091
sI29
g1128
sI31
g1205
sI32
g1244
sI33
g1277
sI35
g1356
sI36
g1394
sI37
g1434
sI39
g1516
sI40
g1556
sI41
g1594
sI43
g1666
sI44
g1703
sI45
g1748
sI46
g1785
sI47
g1820
sI48
g1857
sI50
g1934
ssI28
(dp1983
I2
g119
sI4
g193
sI6
g271
sI9
g382
sI11
g454
sI13
g526
sI14
g563
sI15
g597
sI16
g633
sI18
g709
sI19
g747
sI21
g818
sI22
g858
sI23
g902
sI24
g936
sI25
g975
sI26
g1015
sI27
g1052
sI29
g1129
sI30
g1167
sI31
g1206
sI32
g1245
sI35
g1357
sI36
g1395
sI37
g1435
sI38
g1477
sI39
g1517
sI40
g1557
sI42
g1634
sI43
g1667
sI45
g1749
sI47
g1821
sI49
g1894
sI50
g1935
ssI29
(dp1984
I2
g120
sI3
g156
sI4
g194
sI6
g272
sI8
g342
sI9
g383
sI10
g418
sI11
g455
sI12
g492
sI13
g527
sI15
g598
sI16
g634
sI17
g670
sI18
g710
sI19
g748
sI22
g859
sI24
g937
sI25
g976
sI26
g1016
sI27
g1053
sI33
g1278
sI34
g1316
sI35
g1358
sI36
g1396
sI37
g1436
sI38
g1478
sI39
g1518
sI40
g1558
sI41
g1595
sI43
g1668
sI44
g1704
sI45
g1750
sI46
g1786
sI47
g1822
sI48
g1858
sI50
g1936
ssI30
(dp1985
I1
g86
sI3
g157
sI4
g195
sI8
g343
sI10
g419
sI11
g456
sI12
g493
sI13
g528
sI14
g564
sI16
g635
sI17
g671
sI18
g711
sI19
g749
sI20
g784
sI21
g819
sI23
g903
sI24
g938
sI26
g1017
sI27
g1054
sI28
g1092
sI29
g1130
sI31
g1207
sI34
g1317
sI35
g1359
sI36
g1397
sI37
g1437
sI39
g1519
sI40
g1559
sI41
g1596
sI42
g1635
sI43
g1669
sI44
g1705
sI45
g1751
sI46
g1787
sI47
g1823
sI48
g1859
sI49
g1895
ssI31
(dp1986
I1
g87
sI2
g121
sI4
g196
sI5
g234
sI6
g273
sI7
g307
sI8
g344
sI9
g384
sI10
g420
sI12
g494
sI13
g529
sI14
g565
sI16
g636
sI17
g672
sI19
g750
sI21
g820
sI23
g904
sI24
g939
sI26
g1018
sI28
g1093
sI29
g1131
sI30
g1168
sI32
g1246
sI33
g1279
sI35
g1360
sI37
g1438
sI38
g1479
sI39
g1520
sI40
g1560
sI41
g1597
sI42
g1636
sI43
g1670
sI44
g1706
sI45
g1752
sI47
g1824
sI48
g1860
sI49
g1896
sI50
g1937
ssI32
(dp1987
I2
g122
sI3
g158
sI4
g197
sI5
g235
sI7
g308
sI8
g345
sI9
g385
sI10
g421
sI11
g457
sI12
g495
sI13
g530
sI17
g673
sI20
g785
sI21
g821
sI22
g860
sI23
g905
sI24
g940
sI25
g977
sI26
g1019
sI27
g1055
sI29
g1132
sI30
g1169
sI31
g1208
sI33
g1280
sI34
g1318
sI36
g1398
sI37
g1439
sI38
g1480
sI39
g1521
sI40
g1561
sI41
g1598
sI43
g1671
sI44
g1707
sI46
g1788
sI47
g1825
sI48
g1861
sI49
g1897
sI50
g1938
ssI33
(dp1988
I1
g88
sI2
g123
sI3
g159
sI6
g274
sI8
g346
sI9
g386
sI11
g458
sI12
g496
sI14
g566
sI16
g637
sI17
g674
sI19
g751
sI20
g786
sI21
g822
sI22
g861
sI24
g941
sI25
g978
sI28
g1094
sI29
g1133
sI30
g1170
sI31
g1209
sI32
g1247
sI34
g1319
sI35
g1361
sI36
g1399
sI37
g1440
sI38
g1481
sI39
g1522
sI40
g1562
sI41
g1599
sI42
g1637
sI44
g1708
sI45
g1753
sI46
g1789
sI47
g1826
sI48
g1862
sI49
g1898
sI50
g1939
ssI34
(dp1989
I2
g124
sI3
g160
sI4
g198
sI5
g236
sI6
g275
sI7
g309
sI8
g347
sI9
g387
sI10
g422
sI13
g531
sI15
g599
sI17
g675
sI20
g787
sI21
g823
sI22
g862
sI23
g906
sI24
g942
sI25
g979
sI26
g1020
sI27
g1056
sI28
g1095
sI30
g1171
sI31
g1210
sI33
g1281
sI35
g1362
sI36
g1400
sI37
g1441
sI38
g1482
sI40
g1563
sI43
g1672
sI44
g1709
sI46
g1790
sI47
g1827
sI49
g1899
sI50
g1940
ssI35
(dp1990
I1
g89
sI3
g161
sI4
g199
sI5
g237
sI6
g276
sI8
g348
sI9
g388
sI11
g459
sI13
g532
sI15
g600
sI16
g638
sI17
g676
sI18
g712
sI19
g752
sI20
g788
sI21
g824
sI22
g863
sI23
g907
sI24
g943
sI25
g980
sI27
g1057
sI37
g1442
sI38
g1483
sI39
g1523
sI40
g1564
sI41
g1600
sI42
g1638
sI43
g1673
sI45
g1754
sI46
g1791
sI47
g1828
sI49
g1900
sI50
g1941
ssI36
(dp1991
I1
g90
sI4
g200
sI5
g238
sI6
g277
sI8
g349
sI9
g389
sI10
g423
sI12
g497
sI13
g533
sI14
g567
sI16
g639
sI18
g713
sI20
g789
sI21
g825
sI22
g864
sI23
g908
sI24
g944
sI25
g981
sI26
g1021
sI27
g1058
sI28
g1096
sI29
g1134
sI31
g1211
sI32
g1248
sI34
g1320
sI35
g1363
sI37
g1443
sI38
g1484
sI39
g1524
sI40
g1565
sI42
g1639
sI43
g1674
sI44
g1710
sI45
g1755
sI46
g1792
sI47
g1829
sI48
g1863
sI49
g1901
sI50
g1942
ssI37
(dp1992
I1
g91
sI2
g125
sI4
g201
sI5
g239
sI10
g424
sI12
g498
sI14
g568
sI15
g601
sI17
g677
sI18
g714
sI19
g753
sI20
g790
sI21
g826
sI22
g865
sI23
g909
sI24
g945
sI25
g982
sI26
g1022
sI28
g1097
sI29
g1135
sI30
g1172
sI31
g1212
sI33
g1282
sI34
g1321
sI35
g1364
sI36
g1401
sI38
g1485
sI40
g1566
sI41
g1601
sI42
g1640
sI43
g1675
sI44
g1711
sI46
g1793
sI48
g1864
sI49
g1902
sI50
g1943
ssI38
(dp1993
I2
g126
sI3
g162
sI4
g202
sI5
g240
sI6
g278
sI7
g310
sI8
g350
sI9
g390
sI11
g460
sI12
g499
sI13
g534
sI14
g569
sI15
g602
sI16
g640
sI17
g678
sI19
g754
sI20
g791
sI21
g827
sI22
g866
sI23
g910
sI24
g946
sI25
g983
sI26
g1023
sI27
g1059
sI28
g1098
sI29
g1136
sI30
g1173
sI31
g1213
sI32
g1249
sI33
g1283
sI34
g1322
sI36
g1402
sI39
g1525
sI43
g1676
sI44
g1712
sI45
g1756
sI46
g1794
sI48
g1865
sI49
g1903
sI50
g1944
ssI39
(dp1994
I1
g92
sI2
g127
sI4
g203
sI5
g241
sI6
g279
sI9
g391
sI14
g570
sI15
g603
sI16
g641
sI17
g679
sI18
g715
sI19
g755
sI20
g792
sI21
g828
sI22
g867
sI23
g911
sI24
g947
sI25
g984
sI26
g1024
sI27
g1060
sI29
g1137
sI30
g1174
sI32
g1250
sI33
g1284
sI34
g1323
sI35
g1365
sI36
g1403
sI37
g1444
sI38
g1486
sI40
g1567
sI41
g1602
sI44
g1713
sI45
g1757
sI46
g1795
sI49
g1904
sI50
g1945
ssI40
(dp1995
I3
g163
sI4
g204
sI5
g242
sI6
g280
sI9
g392
sI10
g425
sI11
g461
sI13
g535
sI14
g571
sI15
g604
sI16
g642
sI17
g680
sI18
g716
sI19
g756
sI21
g829
sI22
g868
sI24
g948
sI25
g985
sI26
g1025
sI30
g1175
sI31
g1214
sI33
g1285
sI34
g1324
sI35
g1366
sI36
g1404
sI37
g1445
sI38
g1487
sI39
g1526
sI41
g1603
sI43
g1677
sI44
g1714
sI46
g1796
sI47
g1830
sI48
g1866
sI50
g1946
ssI41
(dp1996
I1
g93
sI2
g128
sI3
g164
sI5
g243
sI6
g281
sI7
g311
sI8
g351
sI10
g426
sI12
g500
sI13
g536
sI14
g572
sI15
g605
sI17
g681
sI18
g717
sI21
g830
sI22
g869
sI23
g912
sI24
g949
sI26
g1026
sI29
g1138
sI30
g1176
sI33
g1286
sI34
g1325
sI36
g1405
sI37
g1446
sI38
g1488
sI40
g1568
sI44
g1715
sI45
g1758
sI46
g1797
sI49
g1905
ssI42
(dp1997
I1
g94
sI4
g205
sI5
g244
sI6
g282
sI7
g312
sI8
g352
sI9
g393
sI10
g427
sI11
g462
sI12
g501
sI14
g573
sI15
g606
sI16
g643
sI17
g682
sI18
g718
sI19
g757
sI20
g793
sI21
g831
sI22
g870
sI24
g950
sI26
g1027
sI27
g1061
sI28
g1099
sI30
g1177
sI31
g1215
sI32
g1251
sI33
g1287
sI35
g1367
sI38
g1489
sI41
g1604
sI44
g1716
sI49
g1906
sI50
g1947
ssI43
(dp1998
I2
g129
sI4
g206
sI5
g245
sI7
g313
sI8
g353
sI11
g463
sI13
g537
sI14
g574
sI15
g607
sI16
g644
sI18
g719
sI19
g758
sI20
g794
sI21
g832
sI22
g871
sI23
g913
sI24
g951
sI25
g986
sI26
g1028
sI27
g1062
sI28
g1100
sI29
g1139
sI30
g1178
sI31
g1216
sI33
g1288
sI34
g1326
sI35
g1368
sI38
g1490
sI39
g1527
sI40
g1569
sI41
g1605
sI42
g1641
sI44
g1717
sI46
g1798
sI48
g1867
sI49
g1907
sI50
g1948
ssI44
(dp1999
I1
g95
sI3
g165
sI4
g207
sI6
g283
sI7
g314
sI8
g354
sI9
g394
sI10
g428
sI11
g464
sI12
g502
sI13
g538
sI14
g575
sI15
g608
sI16
g645
sI17
g683
sI18
g720
sI19
g759
sI20
g795
sI21
g833
sI22
g872
sI23
g914
sI25
g987
sI26
g1029
sI28
g1101
sI30
g1179
sI31
g1217
sI32
g1252
sI33
g1289
sI34
g1327
sI35
g1369
sI36
g1406
sI37
g1447
sI39
g1528
sI40
g1570
sI41
g1606
sI42
g1642
sI43
g1678
sI45
g1759
sI46
g1799
sI47
g1831
sI48
g1868
sI49
g1908
sI50
g1949
ssI45
(dp2000
I1
g96
sI2
g130
sI3
g166
sI4
g208
sI5
g246
sI8
g355
sI9
g395
sI10
g429
sI12
g503
sI13
g539
sI14
g576
sI15
g609
sI17
g684
sI18
g721
sI20
g796
sI21
g834
sI22
g873
sI24
g952
sI25
g988
sI27
g1063
sI28
g1102
sI31
g1218
sI32
g1253
sI34
g1328
sI35
g1370
sI36
g1407
sI37
g1448
sI38
g1491
sI39
g1529
sI42
g1643
sI43
g1679
sI44
g1718
sI46
g1800
sI48
g1869
sI50
g1950
ssI46
(dp2001
I1
g97
sI2
g131
sI4
g209
sI5
g247
sI7
g315
sI8
g356
sI11
g465
sI14
g577
sI15
g610
sI16
g646
sI17
g685
sI18
g722
sI20
g797
sI22
g874
sI24
g953
sI25
g989
sI26
g1030
sI28
g1103
sI30
g1180
sI32
g1254
sI33
g1290
sI34
g1329
sI35
g1371
sI36
g1408
sI37
g1449
sI38
g1492
sI39
g1530
sI40
g1571
sI42
g1644
sI43
g1680
sI44
g1719
sI45
g1760
sI47
g1832
sI48
g1870
sI50
g1951
ssI47
(dp2002
I1
g98
sI2
g132
sI3
g167
sI4
g210
sI5
g248
sI6
g284
sI8
g357
sI9
g396
sI11
g466
sI18
g723
sI19
g760
sI20
g798
sI21
g835
sI22
g875
sI23
g915
sI25
g990
sI27
g1064
sI28
g1104
sI29
g1140
sI30
g1181
sI31
g1219
sI32
g1255
sI33
g1291
sI34
g1330
sI35
g1372
sI38
g1493
sI41
g1607
sI42
g1645
sI43
g1681
sI44
g1720
sI45
g1761
sI48
g1871
sI49
g1909
sI50
g1952
ssI48
(dp2003
I1
g99
sI2
g133
sI3
g168
sI5
g249
sI6
g285
sI7
g316
sI8
g358
sI10
g430
sI11
g467
sI12
g504
sI13
g540
sI14
g578
sI15
g611
sI16
g647
sI18
g724
sI19
g761
sI20
g799
sI21
g836
sI22
g876
sI23
g916
sI24
g954
sI25
g991
sI26
g1031
sI27
g1065
sI28
g1105
sI29
g1141
sI31
g1220
sI32
g1256
sI33
g1292
sI34
g1331
sI37
g1450
sI39
g1531
sI40
g1572
sI41
g1608
sI44
g1721
sI45
g1762
sI47
g1833
ssI49
(dp2004
I2
g134
sI3
g169
sI5
g250
sI6
g286
sI7
g317
sI8
g359
sI9
g397
sI10
g431
sI11
g468
sI12
g505
sI13
g541
sI15
g612
sI16
g648
sI17
g686
sI18
g725
sI19
g762
sI21
g837
sI23
g917
sI24
g955
sI25
g992
sI26
g1032
sI27
g1066
sI28
g1106
sI29
g1142
sI30
g1182
sI31
g1221
sI32
g1257
sI34
g1332
sI35
g1373
sI36
g1409
sI37
g1451
sI38
g1494
sI39
g1532
sI41
g1609
sI42
g1646
sI43
g1682
sI44
g1722
sI46
g1801
sI47
g1834
sI48
g1872
ssI50
(dp2005
I2
g135
sI3
g170
sI4
g211
sI6
g287
sI7
g318
sI8
g360
sI9
g398
sI10
g432
sI11
g469
sI13
g542
sI15
g613
sI16
g649
sI17
g687
sI18
g726
sI19
g763
sI20
g800
sI21
g838
sI22
g877
sI23
g918
sI25
g993
sI26
g1033
sI27
g1067
sI28
g1107
sI29
g1143
sI30
g1183
sI31
g1222
sI34
g1333
sI36
g1410
sI37
g1452
sI39
g1533
sI40
g1573
sI41
g1610
sI43
g1683
sI44
g1723
sI45
g1763
sI47
g1835
sI48
g1873
sI49
g1910
sssS'adj'
p2006
g62
sb.