ccopy_reg
_reconstructor
p1
(cnetworkx.classes.digraph
DiGraph
p2
c__builtin__
object
p3
NtRp4
(dp5
S'node'
p6
(dp7
I1
(dp8
S'demand'
p9
I9
ssI2
(dp10
g9
I5
ssI3
(dp11
g9
I14
ssI4
(dp12
g9
I3
ssI5
(dp13
g9
I11
ssI6
(dp14
g9
I12
ssI7
(dp15
g9
I12
ssI8
(dp16
g9
I6
ssI9
(dp17
g9
I5
ssI10
(dp18
g9
I5
ssI11
(dp19
g9
I0
ssI12
(dp20
g9
I0
ssI13
(dp21
g9
I0
ssI14
(dp22
g9
I0
ssI15
(dp23
g9
I0
ssI16
(dp24
g9
I0
ssI17
(dp25
g9
I0
ssI18
(dp26
g9
I0
ssI19
(dp27
g9
I0
ssI20
(dp28
g9
I-82
sssS'graph'
p29
(dp30
sS'succ'
p31
(dp32
I1
(dp33
I2
(dp34
S'capacity'
p35
I7
sS'fluxo'
p36
I0
sS'weight'
p37
I44
ssI3
(dp38
g35
I8
sg36
I0
sg37
I3
ssI5
(dp39
g35
I6
sg36
I0
sg37
I4
ssI6
(dp40
g35
I5
sg36
I0
sg37
I1
ssI7
(dp41
g35
I7
sg36
I0
sg37
I24
ssI8
(dp42
g35
I8
sg36
I0
sg37
I0
ssI9
(dp43
g35
I5
sg36
I0
sg37
I38
ssI13
(dp44
g35
I8
sg36
I0
sg37
I1
ssI14
(dp45
g35
I5
sg36
I0
sg37
I45
ssI18
(dp46
g35
I7
sg36
I0
sg37
I49
ssI19
(dp47
g35
I6
sg36
I0
sg37
I35
sssI2
(dp48
I1
(dp49
g35
I7
sg36
I0
sg37
I22
ssI3
(dp50
g35
I8
sg36
I0
sg37
I7
ssI4
(dp51
g35
I7
sg36
I0
sg37
I47
ssI5
(dp52
g35
I6
sg36
I0
sg37
I37
ssI6
(dp53
g35
I6
sg36
I0
sg37
I23
ssI7
(dp54
g35
I7
sg36
I0
sg37
I1
ssI8
(dp55
g35
I5
sg36
I0
sg37
I25
ssI9
(dp56
g35
I7
sg36
I0
sg37
I18
ssI10
(dp57
g35
I5
sg36
I0
sg37
I18
ssI14
(dp58
g35
I5
sg36
I0
sg37
I6
ssI16
(dp59
g35
I8
sg36
I0
sg37
I33
ssI18
(dp60
g35
I8
sg36
I0
sg37
I35
sssI3
(dp61
I1
(dp62
g35
I8
sg36
I0
sg37
I38
ssI2
(dp63
g35
I8
sg36
I0
sg37
I0
ssI5
(dp64
g35
I6
sg36
I0
sg37
I31
ssI7
(dp65
g35
I7
sg36
I0
sg37
I50
ssI9
(dp66
g35
I8
sg36
I0
sg37
I19
ssI10
(dp67
g35
I6
sg36
I0
sg37
I23
ssI12
(dp68
g35
I7
sg36
I0
sg37
I33
ssI14
(dp69
g35
I7
sg36
I0
sg37
I42
ssI17
(dp70
g35
I6
sg36
I0
sg37
I1
ssI19
(dp71
g35
I8
sg36
I0
sg37
I49
sssI4
(dp72
I2
(dp73
g35
I8
sg36
I0
sg37
I0
ssI9
(dp74
g35
I7
sg36
I0
sg37
I31
ssI13
(dp75
g35
I8
sg36
I0
sg37
I14
ssI14
(dp76
g35
I5
sg36
I0
sg37
I17
ssI15
(dp77
g35
I5
sg36
I0
sg37
I15
ssI16
(dp78
g35
I8
sg36
I0
sg37
I24
ssI17
(dp79
g35
I5
sg36
I0
sg37
I44
ssI19
(dp80
g35
I6
sg36
I0
sg37
I44
sssI5
(dp81
I1
(dp82
g35
I5
sg36
I0
sg37
I1
ssI2
(dp83
g35
I7
sg36
I0
sg37
I17
ssI3
(dp84
g35
I7
sg36
I0
sg37
I29
ssI6
(dp85
g35
I5
sg36
I0
sg37
I35
ssI7
(dp86
g35
I8
sg36
I0
sg37
I31
ssI8
(dp87
g35
I8
sg36
I0
sg37
I1
ssI9
(dp88
g35
I5
sg36
I0
sg37
I3
ssI10
(dp89
g35
I7
sg36
I0
sg37
I18
ssI12
(dp90
g35
I7
sg36
I0
sg37
I39
ssI19
(dp91
g35
I8
sg36
I0
sg37
I3
sssI6
(dp92
I2
(dp93
g35
I8
sg36
I0
sg37
I9
ssI7
(dp94
g35
I5
sg36
I0
sg37
I22
ssI8
(dp95
g35
I5
sg36
I0
sg37
I11
ssI10
(dp96
g35
I7
sg36
I0
sg37
I42
ssI13
(dp97
g35
I6
sg36
I0
sg37
I14
ssI17
(dp98
g35
I5
sg36
I0
sg37
I5
ssI18
(dp99
g35
I5
sg36
I0
sg37
I32
sssI7
(dp100
I1
(dp101
g35
I5
sg36
I0
sg37
I49
ssI2
(dp102
g35
I7
sg36
I0
sg37
I13
ssI4
(dp103
g35
I8
sg36
I0
sg37
I22
ssI6
(dp104
g35
I6
sg36
I0
sg37
I32
ssI8
(dp105
g35
I5
sg36
I0
sg37
I13
ssI10
(dp106
g35
I8
sg36
I0
sg37
I43
ssI13
(dp107
g35
I6
sg36
I0
sg37
I31
ssI15
(dp108
g35
I8
sg36
I0
sg37
I24
ssI16
(dp109
g35
I5
sg36
I0
sg37
I22
ssI17
(dp110
g35
I7
sg36
I0
sg37
I7
ssI19
(dp111
g35
I5
sg36
I0
sg37
I3
sssI8
(dp112
I4
(dp113
g35
I8
sg36
I0
sg37
I49
ssI7
(dp114
g35
I8
sg36
I0
sg37
I14
ssI9
(dp115
g35
I6
sg36
I0
sg37
I40
ssI11
(dp116
g35
I6
sg36
I0
sg37
I17
ssI12
(dp117
g35
I5
sg36
I0
sg37
I44
ssI16
(dp118
g35
I7
sg36
I0
sg37
I48
ssI17
(dp119
g35
I8
sg36
I0
sg37
I15
ssI19
(dp120
g35
I8
sg36
I0
sg37
I28
ssI20
(dp121
g35
I7
sg36
I0
sg37
I0
sssI9
(dp122
I1
(dp123
g35
I5
sg36
I0
sg37
I12
ssI2
(dp124
g35
I5
sg36
I0
sg37
I17
ssI3
(dp125
g35
I6
sg36
I0
sg37
I35
ssI4
(dp126
g35
I8
sg36
I0
sg37
I4
ssI5
(dp127
g35
I6
sg36
I0
sg37
I36
ssI6
(dp128
g35
I6
sg36
I0
sg37
I27
ssI7
(dp129
g35
I5
sg36
I0
sg37
I19
ssI10
(dp130
g35
I7
sg36
I0
sg37
I23
ssI13
(dp131
g35
I6
sg36
I0
sg37
I5
ssI15
(dp132
g35
I7
sg36
I0
sg37
I40
ssI17
(dp133
g35
I5
sg36
I0
sg37
I21
ssI18
(dp134
g35
I7
sg36
I0
sg37
I35
sssI10
(dp135
I4
(dp136
g35
I6
sg36
I0
sg37
I13
ssI6
(dp137
g35
I7
sg36
I0
sg37
I22
ssI11
(dp138
g35
I7
sg36
I0
sg37
I42
ssI13
(dp139
g35
I8
sg36
I0
sg37
I46
ssI15
(dp140
g35
I6
sg36
I0
sg37
I23
ssI16
(dp141
g35
I6
sg36
I0
sg37
I50
ssI18
(dp142
g35
I8
sg36
I0
sg37
I29
sssI11
(dp143
I1
(dp144
g35
I6
sg36
I0
sg37
I11
ssI2
(dp145
g35
I8
sg36
I0
sg37
I45
ssI6
(dp146
g35
I5
sg36
I0
sg37
I42
ssI8
(dp147
g35
I6
sg36
I0
sg37
I35
ssI10
(dp148
g35
I6
sg36
I0
sg37
I24
ssI14
(dp149
g35
I6
sg36
I0
sg37
I35
ssI15
(dp150
g35
I5
sg36
I0
sg37
I6
ssI16
(dp151
g35
I7
sg36
I0
sg37
I19
ssI17
(dp152
g35
I7
sg36
I0
sg37
I16
sssI12
(dp153
I1
(dp154
g35
I7
sg36
I0
sg37
I26
ssI2
(dp155
g35
I8
sg36
I0
sg37
I46
ssI5
(dp156
g35
I6
sg36
I0
sg37
I34
ssI8
(dp157
g35
I7
sg36
I0
sg37
I34
ssI14
(dp158
g35
I8
sg36
I0
sg37
I31
ssI19
(dp159
g35
I7
sg36
I0
sg37
I6
sssI13
(dp160
I4
(dp161
g35
I8
sg36
I0
sg37
I27
ssI6
(dp162
g35
I8
sg36
I0
sg37
I27
ssI7
(dp163
g35
I5
sg36
I0
sg37
I7
ssI10
(dp164
g35
I6
sg36
I0
sg37
I50
ssI12
(dp165
g35
I6
sg36
I0
sg37
I5
ssI15
(dp166
g35
I6
sg36
I0
sg37
I21
ssI17
(dp167
g35
I6
sg36
I0
sg37
I26
ssI20
(dp168
g35
I7
sg36
I0
sg37
I8
sssI14
(dp169
I1
(dp170
g35
I8
sg36
I0
sg37
I12
ssI3
(dp171
g35
I5
sg36
I0
sg37
I13
ssI4
(dp172
g35
I8
sg36
I0
sg37
I33
ssI6
(dp173
g35
I7
sg36
I0
sg37
I28
ssI7
(dp174
g35
I8
sg36
I0
sg37
I3
ssI8
(dp175
g35
I7
sg36
I0
sg37
I47
ssI9
(dp176
g35
I6
sg36
I0
sg37
I4
ssI12
(dp177
g35
I6
sg36
I0
sg37
I50
ssI17
(dp178
g35
I6
sg36
I0
sg37
I34
ssI20
(dp179
g35
I7
sg36
I0
sg37
I43
sssI15
(dp180
I1
(dp181
g35
I7
sg36
I0
sg37
I36
ssI2
(dp182
g35
I6
sg36
I0
sg37
I31
ssI6
(dp183
g35
I6
sg36
I0
sg37
I49
ssI9
(dp184
g35
I6
sg36
I0
sg37
I7
ssI11
(dp185
g35
I8
sg36
I0
sg37
I46
ssI16
(dp186
g35
I5
sg36
I0
sg37
I15
ssI18
(dp187
g35
I8
sg36
I0
sg37
I14
ssI20
(dp188
g35
I6
sg36
I0
sg37
I44
sssI16
(dp189
I3
(dp190
g35
I6
sg36
I0
sg37
I9
ssI5
(dp191
g35
I5
sg36
I0
sg37
I32
ssI6
(dp192
g35
I7
sg36
I0
sg37
I23
ssI8
(dp193
g35
I6
sg36
I0
sg37
I43
ssI9
(dp194
g35
I7
sg36
I0
sg37
I28
ssI10
(dp195
g35
I6
sg36
I0
sg37
I10
ssI11
(dp196
g35
I5
sg36
I0
sg37
I0
ssI13
(dp197
g35
I8
sg36
I0
sg37
I45
ssI14
(dp198
g35
I6
sg36
I0
sg37
I8
ssI15
(dp199
g35
I6
sg36
I0
sg37
I30
ssI20
(dp200
g35
I6
sg36
I0
sg37
I44
sssI17
(dp201
I4
(dp202
g35
I7
sg36
I0
sg37
I1
ssI6
(dp203
g35
I7
sg36
I0
sg37
I23
ssI7
(dp204
g35
I5
sg36
I0
sg37
I29
ssI9
(dp205
g35
I6
sg36
I0
sg37
I35
ssI10
(dp206
g35
I7
sg36
I0
sg37
I47
ssI12
(dp207
g35
I5
sg36
I0
sg37
I33
ssI13
(dp208
g35
I6
sg36
I0
sg37
I24
ssI19
(dp209
g35
I8
sg36
I0
sg37
I9
sssI18
(dp210
I1
(dp211
g35
I6
sg36
I0
sg37
I18
ssI4
(dp212
g35
I5
sg36
I0
sg37
I22
ssI5
(dp213
g35
I5
sg36
I0
sg37
I49
ssI6
(dp214
g35
I5
sg36
I0
sg37
I40
ssI10
(dp215
g35
I6
sg36
I0
sg37
I5
ssI13
(dp216
g35
I8
sg36
I0
sg37
I25
ssI15
(dp217
g35
I5
sg36
I0
sg37
I50
ssI16
(dp218
g35
I6
sg36
I0
sg37
I45
ssI17
(dp219
g35
I5
sg36
I0
sg37
I17
ssI20
(dp220
g35
I8
sg36
I0
sg37
I12
sssI19
(dp221
I3
(dp222
g35
I8
sg36
I0
sg37
I2
ssI4
(dp223
g35
I7
sg36
I0
sg37
I48
ssI5
(dp224
g35
I8
sg36
I0
sg37
I48
ssI7
(dp225
g35
I5
sg36
I0
sg37
I6
ssI8
(dp226
g35
I8
sg36
I0
sg37
I34
ssI12
(dp227
g35
I7
sg36
I0
sg37
I44
ssI13
(dp228
g35
I5
sg36
I0
sg37
I32
ssI15
(dp229
g35
I7
sg36
I0
sg37
I2
ssI18
(dp230
g35
I7
sg36
I0
sg37
I13
sssI20
(dp231
I1
(dp232
g35
I5
sg36
I0
sg37
I37
ssI2
(dp233
g35
I6
sg36
I0
sg37
I47
ssI3
(dp234
g35
I6
sg36
I0
sg37
I47
ssI4
(dp235
g35
I7
sg36
I0
sg37
I5
ssI5
(dp236
g35
I8
sg36
I0
sg37
I23
ssI6
(dp237
g35
I7
sg36
I0
sg37
I8
ssI7
(dp238
g35
I5
sg36
I0
sg37
I31
ssI8
(dp239
g35
I5
sg36
I0
sg37
I22
ssI11
(dp240
g35
I7
sg36
I0
sg37
I45
ssI12
(dp241
g35
I8
sg36
I0
sg37
I9
ssI13
(dp242
g35
I7
sg36
I0
sg37
I23
ssI14
(dp243
g35
I8
sg36
I0
sg37
I21
ssI16
(dp244
g35
I5
sg36
I0
sg37
I35
ssI18
(dp245
g35
I7
sg36
I0
sg37
I36
ssssS'edge'
p246
g32
sS'pred'
p247
(dp248
I1
(dp249
I2
g49
sI3
g62
sI5
g82
sI7
g101
sI9
g123
sI11
g144
sI12
g154
sI14
g170
sI15
g181
sI18
g211
sI20
g232
ssI2
(dp250
I1
g34
sI3
g63
sI4
g73
sI5
g83
sI6
g93
sI7
g102
sI9
g124
sI11
g145
sI12
g155
sI15
g182
sI20
g233
ssI3
(dp251
I1
g38
sI2
g50
sI5
g84
sI9
g125
sI14
g171
sI16
g190
sI19
g222
sI20
g234
ssI4
(dp252
I2
g51
sI7
g103
sI8
g113
sI9
g126
sI10
g136
sI13
g161
sI14
g172
sI17
g202
sI18
g212
sI19
g223
sI20
g235
ssI5
(dp253
I1
g39
sI2
g52
sI3
g64
sI9
g127
sI12
g156
sI16
g191
sI18
g213
sI19
g224
sI20
g236
ssI6
(dp254
I1
g40
sI2
g53
sI5
g85
sI7
g104
sI9
g128
sI10
g137
sI11
g146
sI13
g162
sI14
g173
sI15
g183
sI16
g192
sI17
g203
sI18
g214
sI20
g237
ssI7
(dp255
I1
g41
sI2
g54
sI3
g65
sI5
g86
sI6
g94
sI8
g114
sI9
g129
sI13
g163
sI14
g174
sI17
g204
sI19
g225
sI20
g238
ssI8
(dp256
I1
g42
sI2
g55
sI5
g87
sI6
g95
sI7
g105
sI11
g147
sI12
g157
sI14
g175
sI16
g193
sI19
g226
sI20
g239
ssI9
(dp257
I1
g43
sI2
g56
sI3
g66
sI4
g74
sI5
g88
sI8
g115
sI14
g176
sI15
g184
sI16
g194
sI17
g205
ssI10
(dp258
I2
g57
sI3
g67
sI5
g89
sI6
g96
sI7
g106
sI9
g130
sI11
g148
sI13
g164
sI16
g195
sI17
g206
sI18
g215
ssI11
(dp259
I8
g116
sI16
g196
sI10
g138
sI20
g240
sI15
g185
ssI12
(dp260
I3
g68
sI5
g90
sI8
g117
sI13
g165
sI14
g177
sI17
g207
sI19
g227
sI20
g241
ssI13
(dp261
I1
g44
sI4
g75
sI6
g97
sI7
g107
sI9
g131
sI10
g139
sI16
g197
sI17
g208
sI18
g216
sI19
g228
sI20
g242
ssI14
(dp262
I1
g45
sI2
g58
sI3
g69
sI4
g76
sI11
g149
sI12
g158
sI16
g198
sI20
g243
ssI15
(dp263
I4
g77
sI7
g108
sI9
g132
sI10
g140
sI11
g150
sI13
g166
sI16
g199
sI18
g217
sI19
g229
ssI16
(dp264
I2
g59
sI4
g78
sI7
g109
sI8
g118
sI10
g141
sI11
g151
sI15
g186
sI18
g218
sI20
g244
ssI17
(dp265
I3
g70
sI4
g79
sI6
g98
sI7
g110
sI8
g119
sI9
g133
sI11
g152
sI13
g167
sI14
g178
sI18
g219
ssI18
(dp266
I1
g46
sI2
g60
sI6
g99
sI9
g134
sI10
g142
sI15
g187
sI19
g230
sI20
g245
ssI19
(dp267
I1
g47
sI3
g71
sI4
g80
sI5
g91
sI7
g111
sI8
g120
sI12
g159
sI17
g209
ssI20
(dp268
I8
g121
sI13
g168
sI14
g179
sI15
g188
sI16
g200
sI18
g220
sssS'adj'
p269
g32
sb.