ccopy_reg
_reconstructor
p1
(cnetworkx.classes.digraph
DiGraph
p2
c__builtin__
object
p3
NtRp4
(dp5
S'node'
p6
(dp7
I1
(dp8
S'demand'
p9
I6
ssI2
(dp10
g9
I15
ssI3
(dp11
g9
I8
ssI4
(dp12
g9
I1
ssI5
(dp13
g9
I3
ssI6
(dp14
g9
I3
ssI7
(dp15
g9
I5
ssI8
(dp16
g9
I8
ssI9
(dp17
g9
I4
ssI10
(dp18
g9
I13
ssI11
(dp19
g9
I0
ssI12
(dp20
g9
I0
ssI13
(dp21
g9
I0
ssI14
(dp22
g9
I0
ssI15
(dp23
g9
I0
ssI16
(dp24
g9
I0
ssI17
(dp25
g9
I0
ssI18
(dp26
g9
I0
ssI19
(dp27
g9
I0
ssI20
(dp28
g9
I-66
sssS'graph'
p29
(dp30
sS'succ'
p31
(dp32
I1
(dp33
I2
(dp34
S'capacity'
p35
I7
sS'fluxo'
p36
I0
sS'weight'
p37
I40
ssI3
(dp38
g35
I6
sg36
I0
sg37
I24
ssI5
(dp39
g35
I5
sg36
I0
sg37
I49
ssI6
(dp40
g35
I7
sg36
I0
sg37
I30
ssI7
(dp41
g35
I5
sg36
I0
sg37
I7
ssI8
(dp42
g35
I6
sg36
I0
sg37
I59
ssI9
(dp43
g35
I8
sg36
I0
sg37
I35
ssI12
(dp44
g35
I7
sg36
I0
sg37
I55
ssI14
(dp45
g35
I7
sg36
I0
sg37
I15
ssI16
(dp46
g35
I6
sg36
I0
sg37
I70
ssI17
(dp47
g35
I5
sg36
I0
sg37
I24
sssI2
(dp48
I1
(dp49
g35
I5
sg36
I0
sg37
I4
ssI4
(dp50
g35
I6
sg36
I0
sg37
I55
ssI5
(dp51
g35
I6
sg36
I0
sg37
I48
ssI7
(dp52
g35
I6
sg36
I0
sg37
I0
ssI8
(dp53
g35
I5
sg36
I0
sg37
I6
ssI9
(dp54
g35
I5
sg36
I0
sg37
I5
ssI12
(dp55
g35
I5
sg36
I0
sg37
I37
ssI13
(dp56
g35
I8
sg36
I0
sg37
I21
ssI14
(dp57
g35
I5
sg36
I0
sg37
I69
ssI19
(dp58
g35
I6
sg36
I0
sg37
I55
sssI3
(dp59
I1
(dp60
g35
I7
sg36
I0
sg37
I14
ssI4
(dp61
g35
I5
sg36
I0
sg37
I69
ssI5
(dp62
g35
I8
sg36
I0
sg37
I1
ssI6
(dp63
g35
I7
sg36
I0
sg37
I16
ssI7
(dp64
g35
I5
sg36
I0
sg37
I65
ssI8
(dp65
g35
I6
sg36
I0
sg37
I53
ssI11
(dp66
g35
I8
sg36
I0
sg37
I65
ssI13
(dp67
g35
I5
sg36
I0
sg37
I53
ssI16
(dp68
g35
I6
sg36
I0
sg37
I62
ssI18
(dp69
g35
I8
sg36
I0
sg37
I32
sssI4
(dp70
I1
(dp71
g35
I8
sg36
I0
sg37
I9
ssI2
(dp72
g35
I5
sg36
I0
sg37
I16
ssI8
(dp73
g35
I6
sg36
I0
sg37
I32
ssI9
(dp74
g35
I6
sg36
I0
sg37
I10
ssI11
(dp75
g35
I8
sg36
I0
sg37
I19
ssI12
(dp76
g35
I5
sg36
I0
sg37
I12
ssI14
(dp77
g35
I8
sg36
I0
sg37
I21
ssI16
(dp78
g35
I5
sg36
I0
sg37
I13
ssI17
(dp79
g35
I6
sg36
I0
sg37
I30
ssI19
(dp80
g35
I7
sg36
I0
sg37
I62
sssI5
(dp81
I2
(dp82
g35
I7
sg36
I0
sg37
I59
ssI3
(dp83
g35
I6
sg36
I0
sg37
I43
ssI4
(dp84
g35
I5
sg36
I0
sg37
I27
ssI8
(dp85
g35
I7
sg36
I0
sg37
I32
ssI12
(dp86
g35
I7
sg36
I0
sg37
I51
ssI13
(dp87
g35
I6
sg36
I0
sg37
I49
ssI14
(dp88
g35
I6
sg36
I0
sg37
I5
ssI15
(dp89
g35
I6
sg36
I0
sg37
I53
ssI16
(dp90
g35
I8
sg36
I0
sg37
I20
sssI6
(dp91
I2
(dp92
g35
I7
sg36
I0
sg37
I12
ssI4
(dp93
g35
I6
sg36
I0
sg37
I60
ssI7
(dp94
g35
I8
sg36
I0
sg37
I51
ssI9
(dp95
g35
I5
sg36
I0
sg37
I59
ssI12
(dp96
g35
I5
sg36
I0
sg37
I68
ssI13
(dp97
g35
I5
sg36
I0
sg37
I54
ssI16
(dp98
g35
I7
sg36
I0
sg37
I49
ssI20
(dp99
g35
I5
sg36
I0
sg37
I34
sssI7
(dp100
I2
(dp101
g35
I8
sg36
I0
sg37
I11
ssI5
(dp102
g35
I6
sg36
I0
sg37
I14
ssI6
(dp103
g35
I5
sg36
I0
sg37
I16
ssI9
(dp104
g35
I6
sg36
I0
sg37
I40
ssI10
(dp105
g35
I6
sg36
I0
sg37
I63
ssI11
(dp106
g35
I8
sg36
I0
sg37
I61
ssI16
(dp107
g35
I5
sg36
I0
sg37
I70
ssI18
(dp108
g35
I8
sg36
I0
sg37
I49
sssI8
(dp109
I3
(dp110
g35
I5
sg36
I0
sg37
I65
ssI5
(dp111
g35
I5
sg36
I0
sg37
I67
ssI6
(dp112
g35
I6
sg36
I0
sg37
I69
ssI7
(dp113
g35
I5
sg36
I0
sg37
I52
ssI9
(dp114
g35
I8
sg36
I0
sg37
I4
ssI10
(dp115
g35
I5
sg36
I0
sg37
I43
ssI12
(dp116
g35
I7
sg36
I0
sg37
I55
ssI14
(dp117
g35
I8
sg36
I0
sg37
I43
ssI15
(dp118
g35
I8
sg36
I0
sg37
I13
ssI16
(dp119
g35
I8
sg36
I0
sg37
I32
ssI17
(dp120
g35
I8
sg36
I0
sg37
I59
ssI19
(dp121
g35
I7
sg36
I0
sg37
I52
sssI9
(dp122
I2
(dp123
g35
I7
sg36
I0
sg37
I26
ssI3
(dp124
g35
I7
sg36
I0
sg37
I69
ssI4
(dp125
g35
I7
sg36
I0
sg37
I60
ssI5
(dp126
g35
I7
sg36
I0
sg37
I13
ssI6
(dp127
g35
I7
sg36
I0
sg37
I33
ssI10
(dp128
g35
I8
sg36
I0
sg37
I48
ssI11
(dp129
g35
I5
sg36
I0
sg37
I36
ssI14
(dp130
g35
I7
sg36
I0
sg37
I65
ssI15
(dp131
g35
I5
sg36
I0
sg37
I2
ssI17
(dp132
g35
I5
sg36
I0
sg37
I42
ssI18
(dp133
g35
I7
sg36
I0
sg37
I52
sssI10
(dp134
I1
(dp135
g35
I6
sg36
I0
sg37
I3
ssI5
(dp136
g35
I5
sg36
I0
sg37
I57
ssI6
(dp137
g35
I7
sg36
I0
sg37
I58
ssI7
(dp138
g35
I7
sg36
I0
sg37
I35
ssI8
(dp139
g35
I8
sg36
I0
sg37
I47
ssI15
(dp140
g35
I5
sg36
I0
sg37
I26
ssI19
(dp141
g35
I6
sg36
I0
sg37
I69
ssI20
(dp142
g35
I6
sg36
I0
sg37
I8
sssI11
(dp143
I2
(dp144
g35
I8
sg36
I0
sg37
I55
ssI3
(dp145
g35
I8
sg36
I0
sg37
I66
ssI4
(dp146
g35
I7
sg36
I0
sg37
I58
ssI8
(dp147
g35
I7
sg36
I0
sg37
I26
ssI9
(dp148
g35
I6
sg36
I0
sg37
I60
ssI10
(dp149
g35
I5
sg36
I0
sg37
I6
ssI14
(dp150
g35
I5
sg36
I0
sg37
I23
ssI20
(dp151
g35
I7
sg36
I0
sg37
I2
sssI12
(dp152
I2
(dp153
g35
I6
sg36
I0
sg37
I64
ssI4
(dp154
g35
I7
sg36
I0
sg37
I12
ssI8
(dp155
g35
I7
sg36
I0
sg37
I28
ssI9
(dp156
g35
I6
sg36
I0
sg37
I31
ssI10
(dp157
g35
I8
sg36
I0
sg37
I39
ssI14
(dp158
g35
I8
sg36
I0
sg37
I53
ssI16
(dp159
g35
I6
sg36
I0
sg37
I29
ssI18
(dp160
g35
I8
sg36
I0
sg37
I59
ssI20
(dp161
g35
I8
sg36
I0
sg37
I9
sssI13
(dp162
I4
(dp163
g35
I8
sg36
I0
sg37
I58
ssI6
(dp164
g35
I8
sg36
I0
sg37
I10
ssI9
(dp165
g35
I7
sg36
I0
sg37
I53
ssI10
(dp166
g35
I8
sg36
I0
sg37
I44
ssI11
(dp167
g35
I8
sg36
I0
sg37
I3
ssI14
(dp168
g35
I5
sg36
I0
sg37
I3
ssI16
(dp169
g35
I7
sg36
I0
sg37
I58
ssI17
(dp170
g35
I7
sg36
I0
sg37
I3
ssI20
(dp171
g35
I8
sg36
I0
sg37
I68
sssI14
(dp172
I2
(dp173
g35
I8
sg36
I0
sg37
I52
ssI3
(dp174
g35
I7
sg36
I0
sg37
I1
ssI4
(dp175
g35
I5
sg36
I0
sg37
I25
ssI6
(dp176
g35
I5
sg36
I0
sg37
I22
ssI8
(dp177
g35
I7
sg36
I0
sg37
I27
ssI9
(dp178
g35
I6
sg36
I0
sg37
I40
ssI13
(dp179
g35
I6
sg36
I0
sg37
I13
ssI17
(dp180
g35
I6
sg36
I0
sg37
I56
ssI19
(dp181
g35
I6
sg36
I0
sg37
I2
sssI15
(dp182
I1
(dp183
g35
I8
sg36
I0
sg37
I54
ssI2
(dp184
g35
I8
sg36
I0
sg37
I55
ssI4
(dp185
g35
I7
sg36
I0
sg37
I38
ssI6
(dp186
g35
I6
sg36
I0
sg37
I47
ssI8
(dp187
g35
I7
sg36
I0
sg37
I31
ssI10
(dp188
g35
I5
sg36
I0
sg37
I3
ssI11
(dp189
g35
I6
sg36
I0
sg37
I45
ssI12
(dp190
g35
I6
sg36
I0
sg37
I34
ssI13
(dp191
g35
I5
sg36
I0
sg37
I61
ssI16
(dp192
g35
I8
sg36
I0
sg37
I35
ssI20
(dp193
g35
I5
sg36
I0
sg37
I69
sssI16
(dp194
I4
(dp195
g35
I8
sg36
I0
sg37
I64
ssI5
(dp196
g35
I8
sg36
I0
sg37
I38
ssI6
(dp197
g35
I8
sg36
I0
sg37
I50
ssI8
(dp198
g35
I6
sg36
I0
sg37
I51
ssI11
(dp199
g35
I7
sg36
I0
sg37
I60
ssI12
(dp200
g35
I7
sg36
I0
sg37
I1
ssI14
(dp201
g35
I7
sg36
I0
sg37
I68
ssI17
(dp202
g35
I8
sg36
I0
sg37
I21
ssI18
(dp203
g35
I5
sg36
I0
sg37
I63
ssI19
(dp204
g35
I7
sg36
I0
sg37
I5
sssI17
(dp205
I2
(dp206
g35
I8
sg36
I0
sg37
I22
ssI5
(dp207
g35
I7
sg36
I0
sg37
I7
ssI7
(dp208
g35
I7
sg36
I0
sg37
I3
ssI8
(dp209
g35
I5
sg36
I0
sg37
I15
ssI15
(dp210
g35
I6
sg36
I0
sg37
I13
ssI19
(dp211
g35
I8
sg36
I0
sg37
I50
ssI20
(dp212
g35
I8
sg36
I0
sg37
I6
sssI18
(dp213
I3
(dp214
g35
I8
sg36
I0
sg37
I64
ssI4
(dp215
g35
I7
sg36
I0
sg37
I38
ssI10
(dp216
g35
I8
sg36
I0
sg37
I14
ssI12
(dp217
g35
I6
sg36
I0
sg37
I38
ssI13
(dp218
g35
I7
sg36
I0
sg37
I21
ssI14
(dp219
g35
I7
sg36
I0
sg37
I29
sssI19
(dp220
I1
(dp221
g35
I8
sg36
I0
sg37
I27
ssI3
(dp222
g35
I8
sg36
I0
sg37
I31
ssI5
(dp223
g35
I5
sg36
I0
sg37
I70
ssI6
(dp224
g35
I6
sg36
I0
sg37
I6
ssI8
(dp225
g35
I5
sg36
I0
sg37
I40
ssI9
(dp226
g35
I5
sg36
I0
sg37
I27
ssI11
(dp227
g35
I8
sg36
I0
sg37
I0
ssI12
(dp228
g35
I7
sg36
I0
sg37
I38
ssI13
(dp229
g35
I6
sg36
I0
sg37
I69
ssI16
(dp230
g35
I6
sg36
I0
sg37
I63
ssI17
(dp231
g35
I7
sg36
I0
sg37
I26
ssI20
(dp232
g35
I7
sg36
I0
sg37
I2
sssI20
(dp233
I1
(dp234
g35
I6
sg36
I0
sg37
I54
ssI2
(dp235
g35
I8
sg36
I0
sg37
I20
ssI5
(dp236
g35
I8
sg36
I0
sg37
I34
ssI6
(dp237
g35
I8
sg36
I0
sg37
I21
ssI7
(dp238
g35
I6
sg36
I0
sg37
I0
ssI8
(dp239
g35
I7
sg36
I0
sg37
I56
ssI11
(dp240
g35
I8
sg36
I0
sg37
I33
ssI12
(dp241
g35
I5
sg36
I0
sg37
I31
ssI14
(dp242
g35
I7
sg36
I0
sg37
I10
ssI15
(dp243
g35
I6
sg36
I0
sg37
I48
ssI16
(dp244
g35
I7
sg36
I0
sg37
I51
ssI18
(dp245
g35
I6
sg36
I0
sg37
I50
ssssS'edge'
p246
g32
sS'pred'
p247
(dp248
I1
(dp249
I2
g49
sI3
g60
sI4
g71
sI10
g135
sI15
g183
sI19
g221
sI20
g234
ssI2
(dp250
I1
g34
sI4
g72
sI5
g82
sI6
g92
sI7
g101
sI9
g123
sI11
g144
sI12
g153
sI14
g173
sI15
g184
sI17
g206
sI20
g235
ssI3
(dp251
I1
g38
sI5
g83
sI8
g110
sI9
g124
sI11
g145
sI14
g174
sI18
g214
sI19
g222
ssI4
(dp252
I2
g50
sI3
g61
sI5
g84
sI6
g93
sI9
g125
sI11
g146
sI12
g154
sI13
g163
sI14
g175
sI15
g185
sI16
g195
sI18
g215
ssI5
(dp253
I1
g39
sI2
g51
sI3
g62
sI7
g102
sI8
g111
sI9
g126
sI10
g136
sI16
g196
sI17
g207
sI19
g223
sI20
g236
ssI6
(dp254
I1
g40
sI3
g63
sI7
g103
sI8
g112
sI9
g127
sI10
g137
sI13
g164
sI14
g176
sI15
g186
sI16
g197
sI19
g224
sI20
g237
ssI7
(dp255
I1
g41
sI2
g52
sI3
g64
sI6
g94
sI8
g113
sI10
g138
sI17
g208
sI20
g238
ssI8
(dp256
I1
g42
sI2
g53
sI3
g65
sI4
g73
sI5
g85
sI10
g139
sI11
g147
sI12
g155
sI14
g177
sI15
g187
sI16
g198
sI17
g209
sI19
g225
sI20
g239
ssI9
(dp257
I1
g43
sI2
g54
sI4
g74
sI6
g95
sI7
g104
sI8
g114
sI11
g148
sI12
g156
sI13
g165
sI14
g178
sI19
g226
ssI10
(dp258
I7
g105
sI8
g115
sI9
g128
sI11
g149
sI12
g157
sI13
g166
sI15
g188
sI18
g216
ssI11
(dp259
I3
g66
sI4
g75
sI7
g106
sI9
g129
sI13
g167
sI15
g189
sI16
g199
sI19
g227
sI20
g240
ssI12
(dp260
I1
g44
sI2
g55
sI4
g76
sI5
g86
sI6
g96
sI8
g116
sI15
g190
sI16
g200
sI18
g217
sI19
g228
sI20
g241
ssI13
(dp261
I2
g56
sI3
g67
sI5
g87
sI6
g97
sI14
g179
sI15
g191
sI18
g218
sI19
g229
ssI14
(dp262
I1
g45
sI2
g57
sI4
g77
sI5
g88
sI8
g117
sI9
g130
sI11
g150
sI12
g158
sI13
g168
sI16
g201
sI18
g219
sI20
g242
ssI15
(dp263
I5
g89
sI8
g118
sI9
g131
sI10
g140
sI17
g210
sI20
g243
ssI16
(dp264
I1
g46
sI3
g68
sI4
g78
sI5
g90
sI6
g98
sI7
g107
sI8
g119
sI12
g159
sI13
g169
sI15
g192
sI19
g230
sI20
g244
ssI17
(dp265
I1
g47
sI4
g79
sI8
g120
sI9
g132
sI13
g170
sI14
g180
sI16
g202
sI19
g231
ssI18
(dp266
I3
g69
sI7
g108
sI9
g133
sI12
g160
sI16
g203
sI20
g245
ssI19
(dp267
I2
g58
sI4
g80
sI8
g121
sI10
g141
sI14
g181
sI16
g204
sI17
g211
ssI20
(dp268
I6
g99
sI10
g142
sI11
g151
sI12
g161
sI13
g171
sI15
g193
sI17
g212
sI19
g232
sssS'adj'
p269
g32
sb.