ccopy_reg
_reconstructor
p1
(cnetworkx.classes.digraph
DiGraph
p2
c__builtin__
object
p3
NtRp4
(dp5
S'node'
p6
(dp7
I1
(dp8
S'demand'
p9
I6
ssI2
(dp10
g9
I6
ssI3
(dp11
g9
I2
ssI4
(dp12
g9
I1
ssI5
(dp13
g9
I7
ssI6
(dp14
g9
I10
ssI7
(dp15
g9
I15
ssI8
(dp16
g9
I12
ssI9
(dp17
g9
I10
ssI10
(dp18
g9
I10
ssI11
(dp19
g9
I0
ssI12
(dp20
g9
I0
ssI13
(dp21
g9
I0
ssI14
(dp22
g9
I0
ssI15
(dp23
g9
I0
ssI16
(dp24
g9
I0
ssI17
(dp25
g9
I0
ssI18
(dp26
g9
I0
ssI19
(dp27
g9
I0
ssI20
(dp28
g9
I-79
sssS'graph'
p29
(dp30
sS'succ'
p31
(dp32
I1
(dp33
I5
(dp34
S'capacity'
p35
I8
sS'fluxo'
p36
I0
sS'weight'
p37
I58
ssI6
(dp38
g35
I5
sg36
I0
sg37
I3
ssI11
(dp39
g35
I7
sg36
I0
sg37
I42
ssI12
(dp40
g35
I5
sg36
I0
sg37
I11
ssI14
(dp41
g35
I5
sg36
I0
sg37
I37
ssI15
(dp42
g35
I6
sg36
I0
sg37
I51
ssI16
(dp43
g35
I8
sg36
I0
sg37
I2
ssI17
(dp44
g35
I5
sg36
I0
sg37
I5
ssI18
(dp45
g35
I6
sg36
I0
sg37
I31
ssI19
(dp46
g35
I7
sg36
I0
sg37
I37
sssI2
(dp47
I4
(dp48
g35
I8
sg36
I0
sg37
I19
ssI5
(dp49
g35
I6
sg36
I0
sg37
I6
ssI6
(dp50
g35
I7
sg36
I0
sg37
I27
ssI7
(dp51
g35
I8
sg36
I0
sg37
I0
ssI9
(dp52
g35
I6
sg36
I0
sg37
I9
ssI10
(dp53
g35
I6
sg36
I0
sg37
I40
ssI15
(dp54
g35
I8
sg36
I0
sg37
I42
sssI3
(dp55
I1
(dp56
g35
I8
sg36
I0
sg37
I34
ssI2
(dp57
g35
I7
sg36
I0
sg37
I20
ssI4
(dp58
g35
I5
sg36
I0
sg37
I8
ssI5
(dp59
g35
I5
sg36
I0
sg37
I19
ssI6
(dp60
g35
I8
sg36
I0
sg37
I10
ssI10
(dp61
g35
I8
sg36
I0
sg37
I37
ssI12
(dp62
g35
I7
sg36
I0
sg37
I55
ssI13
(dp63
g35
I6
sg36
I0
sg37
I5
ssI17
(dp64
g35
I7
sg36
I0
sg37
I59
ssI18
(dp65
g35
I5
sg36
I0
sg37
I8
sssI4
(dp66
I3
(dp67
g35
I7
sg36
I0
sg37
I58
ssI6
(dp68
g35
I8
sg36
I0
sg37
I41
ssI7
(dp69
g35
I7
sg36
I0
sg37
I10
ssI9
(dp70
g35
I7
sg36
I0
sg37
I54
ssI18
(dp71
g35
I6
sg36
I0
sg37
I40
ssI19
(dp72
g35
I7
sg36
I0
sg37
I33
ssI20
(dp73
g35
I5
sg36
I0
sg37
I14
sssI5
(dp74
I1
(dp75
g35
I7
sg36
I0
sg37
I26
ssI2
(dp76
g35
I8
sg36
I0
sg37
I0
ssI3
(dp77
g35
I6
sg36
I0
sg37
I33
ssI4
(dp78
g35
I5
sg36
I0
sg37
I54
ssI6
(dp79
g35
I7
sg36
I0
sg37
I36
ssI7
(dp80
g35
I5
sg36
I0
sg37
I46
ssI12
(dp81
g35
I5
sg36
I0
sg37
I34
ssI13
(dp82
g35
I6
sg36
I0
sg37
I25
ssI14
(dp83
g35
I6
sg36
I0
sg37
I33
ssI15
(dp84
g35
I8
sg36
I0
sg37
I49
ssI17
(dp85
g35
I6
sg36
I0
sg37
I16
sssI6
(dp86
I1
(dp87
g35
I8
sg36
I0
sg37
I34
ssI2
(dp88
g35
I7
sg36
I0
sg37
I4
ssI3
(dp89
g35
I7
sg36
I0
sg37
I54
ssI5
(dp90
g35
I5
sg36
I0
sg37
I53
ssI7
(dp91
g35
I7
sg36
I0
sg37
I12
ssI8
(dp92
g35
I8
sg36
I0
sg37
I50
ssI20
(dp93
g35
I5
sg36
I0
sg37
I3
sssI7
(dp94
I1
(dp95
g35
I5
sg36
I0
sg37
I18
ssI3
(dp96
g35
I7
sg36
I0
sg37
I22
ssI4
(dp97
g35
I6
sg36
I0
sg37
I31
ssI5
(dp98
g35
I8
sg36
I0
sg37
I56
ssI9
(dp99
g35
I7
sg36
I0
sg37
I8
ssI10
(dp100
g35
I5
sg36
I0
sg37
I6
ssI11
(dp101
g35
I8
sg36
I0
sg37
I34
ssI13
(dp102
g35
I5
sg36
I0
sg37
I4
ssI19
(dp103
g35
I8
sg36
I0
sg37
I56
sssI8
(dp104
I3
(dp105
g35
I6
sg36
I0
sg37
I28
ssI7
(dp106
g35
I5
sg36
I0
sg37
I20
ssI12
(dp107
g35
I5
sg36
I0
sg37
I58
ssI13
(dp108
g35
I8
sg36
I0
sg37
I12
ssI16
(dp109
g35
I7
sg36
I0
sg37
I0
ssI17
(dp110
g35
I5
sg36
I0
sg37
I31
ssI19
(dp111
g35
I5
sg36
I0
sg37
I23
ssI20
(dp112
g35
I5
sg36
I0
sg37
I58
sssI9
(dp113
I2
(dp114
g35
I8
sg36
I0
sg37
I10
ssI4
(dp115
g35
I8
sg36
I0
sg37
I6
ssI6
(dp116
g35
I8
sg36
I0
sg37
I37
ssI10
(dp117
g35
I6
sg36
I0
sg37
I59
ssI15
(dp118
g35
I7
sg36
I0
sg37
I9
ssI18
(dp119
g35
I6
sg36
I0
sg37
I36
sssI10
(dp120
I4
(dp121
g35
I6
sg36
I0
sg37
I34
ssI7
(dp122
g35
I8
sg36
I0
sg37
I8
ssI8
(dp123
g35
I7
sg36
I0
sg37
I11
ssI11
(dp124
g35
I5
sg36
I0
sg37
I45
ssI12
(dp125
g35
I7
sg36
I0
sg37
I44
ssI15
(dp126
g35
I6
sg36
I0
sg37
I58
ssI17
(dp127
g35
I5
sg36
I0
sg37
I2
ssI20
(dp128
g35
I8
sg36
I0
sg37
I49
sssI11
(dp129
I1
(dp130
g35
I8
sg36
I0
sg37
I26
ssI2
(dp131
g35
I5
sg36
I0
sg37
I27
ssI4
(dp132
g35
I5
sg36
I0
sg37
I11
ssI5
(dp133
g35
I5
sg36
I0
sg37
I33
ssI6
(dp134
g35
I7
sg36
I0
sg37
I16
ssI8
(dp135
g35
I5
sg36
I0
sg37
I51
ssI10
(dp136
g35
I5
sg36
I0
sg37
I35
ssI13
(dp137
g35
I5
sg36
I0
sg37
I20
ssI14
(dp138
g35
I6
sg36
I0
sg37
I26
ssI17
(dp139
g35
I6
sg36
I0
sg37
I12
ssI18
(dp140
g35
I7
sg36
I0
sg37
I42
sssI12
(dp141
I1
(dp142
g35
I5
sg36
I0
sg37
I54
ssI3
(dp143
g35
I5
sg36
I0
sg37
I41
ssI4
(dp144
g35
I5
sg36
I0
sg37
I31
ssI5
(dp145
g35
I5
sg36
I0
sg37
I9
ssI7
(dp146
g35
I7
sg36
I0
sg37
I7
ssI8
(dp147
g35
I5
sg36
I0
sg37
I46
ssI9
(dp148
g35
I6
sg36
I0
sg37
I34
ssI10
(dp149
g35
I7
sg36
I0
sg37
I32
ssI14
(dp150
g35
I6
sg36
I0
sg37
I10
ssI20
(dp151
g35
I8
sg36
I0
sg37
I15
sssI13
(dp152
I5
(dp153
g35
I6
sg36
I0
sg37
I13
ssI10
(dp154
g35
I8
sg36
I0
sg37
I6
ssI15
(dp155
g35
I7
sg36
I0
sg37
I20
ssI17
(dp156
g35
I8
sg36
I0
sg37
I10
ssI19
(dp157
g35
I7
sg36
I0
sg37
I45
ssI20
(dp158
g35
I7
sg36
I0
sg37
I28
sssI14
(dp159
I1
(dp160
g35
I8
sg36
I0
sg37
I17
ssI4
(dp161
g35
I5
sg36
I0
sg37
I48
ssI5
(dp162
g35
I5
sg36
I0
sg37
I50
ssI9
(dp163
g35
I6
sg36
I0
sg37
I45
ssI10
(dp164
g35
I6
sg36
I0
sg37
I15
ssI11
(dp165
g35
I7
sg36
I0
sg37
I12
ssI13
(dp166
g35
I6
sg36
I0
sg37
I56
ssI16
(dp167
g35
I7
sg36
I0
sg37
I57
ssI17
(dp168
g35
I8
sg36
I0
sg37
I33
ssI18
(dp169
g35
I5
sg36
I0
sg37
I27
ssI20
(dp170
g35
I6
sg36
I0
sg37
I37
sssI15
(dp171
I1
(dp172
g35
I5
sg36
I0
sg37
I29
ssI3
(dp173
g35
I5
sg36
I0
sg37
I12
ssI4
(dp174
g35
I6
sg36
I0
sg37
I37
ssI5
(dp175
g35
I8
sg36
I0
sg37
I3
ssI6
(dp176
g35
I8
sg36
I0
sg37
I15
ssI8
(dp177
g35
I8
sg36
I0
sg37
I44
ssI9
(dp178
g35
I7
sg36
I0
sg37
I36
ssI10
(dp179
g35
I6
sg36
I0
sg37
I12
ssI11
(dp180
g35
I5
sg36
I0
sg37
I21
ssI12
(dp181
g35
I7
sg36
I0
sg37
I52
ssI13
(dp182
g35
I5
sg36
I0
sg37
I50
ssI16
(dp183
g35
I8
sg36
I0
sg37
I18
ssI19
(dp184
g35
I8
sg36
I0
sg37
I24
sssI16
(dp185
I1
(dp186
g35
I7
sg36
I0
sg37
I18
ssI6
(dp187
g35
I5
sg36
I0
sg37
I57
ssI7
(dp188
g35
I7
sg36
I0
sg37
I36
ssI8
(dp189
g35
I5
sg36
I0
sg37
I47
ssI13
(dp190
g35
I8
sg36
I0
sg37
I19
ssI14
(dp191
g35
I5
sg36
I0
sg37
I49
ssI15
(dp192
g35
I8
sg36
I0
sg37
I56
ssI19
(dp193
g35
I8
sg36
I0
sg37
I53
sssI17
(dp194
I1
(dp195
g35
I7
sg36
I0
sg37
I12
ssI3
(dp196
g35
I5
sg36
I0
sg37
I7
ssI4
(dp197
g35
I7
sg36
I0
sg37
I33
ssI6
(dp198
g35
I5
sg36
I0
sg37
I17
ssI7
(dp199
g35
I7
sg36
I0
sg37
I29
ssI8
(dp200
g35
I8
sg36
I0
sg37
I43
ssI11
(dp201
g35
I6
sg36
I0
sg37
I51
ssI12
(dp202
g35
I7
sg36
I0
sg37
I37
ssI13
(dp203
g35
I7
sg36
I0
sg37
I51
sssI18
(dp204
I2
(dp205
g35
I8
sg36
I0
sg37
I8
ssI3
(dp206
g35
I6
sg36
I0
sg37
I54
ssI6
(dp207
g35
I5
sg36
I0
sg37
I28
ssI8
(dp208
g35
I6
sg36
I0
sg37
I50
ssI9
(dp209
g35
I5
sg36
I0
sg37
I39
ssI10
(dp210
g35
I6
sg36
I0
sg37
I56
ssI11
(dp211
g35
I6
sg36
I0
sg37
I4
ssI13
(dp212
g35
I6
sg36
I0
sg37
I4
ssI14
(dp213
g35
I8
sg36
I0
sg37
I55
ssI15
(dp214
g35
I5
sg36
I0
sg37
I20
ssI16
(dp215
g35
I5
sg36
I0
sg37
I58
ssI17
(dp216
g35
I7
sg36
I0
sg37
I56
ssI20
(dp217
g35
I6
sg36
I0
sg37
I3
sssI19
(dp218
I1
(dp219
g35
I7
sg36
I0
sg37
I31
ssI2
(dp220
g35
I8
sg36
I0
sg37
I25
ssI5
(dp221
g35
I8
sg36
I0
sg37
I34
ssI6
(dp222
g35
I6
sg36
I0
sg37
I36
ssI8
(dp223
g35
I5
sg36
I0
sg37
I6
ssI9
(dp224
g35
I7
sg36
I0
sg37
I12
ssI11
(dp225
g35
I5
sg36
I0
sg37
I37
ssI12
(dp226
g35
I5
sg36
I0
sg37
I8
ssI13
(dp227
g35
I8
sg36
I0
sg37
I60
ssI14
(dp228
g35
I8
sg36
I0
sg37
I44
ssI15
(dp229
g35
I7
sg36
I0
sg37
I35
ssI18
(dp230
g35
I5
sg36
I0
sg37
I27
ssI20
(dp231
g35
I7
sg36
I0
sg37
I54
sssI20
(dp232
I1
(dp233
g35
I8
sg36
I0
sg37
I47
ssI2
(dp234
g35
I8
sg36
I0
sg37
I44
ssI6
(dp235
g35
I6
sg36
I0
sg37
I12
ssI7
(dp236
g35
I6
sg36
I0
sg37
I40
ssI8
(dp237
g35
I7
sg36
I0
sg37
I48
ssI9
(dp238
g35
I8
sg36
I0
sg37
I46
ssI10
(dp239
g35
I8
sg36
I0
sg37
I15
ssI12
(dp240
g35
I7
sg36
I0
sg37
I13
ssI15
(dp241
g35
I5
sg36
I0
sg37
I54
ssI16
(dp242
g35
I8
sg36
I0
sg37
I32
ssI17
(dp243
g35
I5
sg36
I0
sg37
I39
ssI18
(dp244
g35
I6
sg36
I0
sg37
I54
ssI19
(dp245
g35
I5
sg36
I0
sg37
I22
ssssS'edge'
p246
g32
sS'pred'
p247
(dp248
I1
(dp249
I3
g56
sI5
g75
sI6
g87
sI7
g95
sI11
g130
sI12
g142
sI14
g160
sI15
g172
sI16
g186
sI17
g195
sI19
g219
sI20
g233
ssI2
(dp250
I3
g57
sI5
g76
sI6
g88
sI9
g114
sI11
g131
sI18
g205
sI19
g220
sI20
g234
ssI3
(dp251
I4
g67
sI5
g77
sI6
g89
sI7
g96
sI8
g105
sI12
g143
sI15
g173
sI17
g196
sI18
g206
ssI4
(dp252
I2
g48
sI3
g58
sI5
g78
sI7
g97
sI9
g115
sI10
g121
sI11
g132
sI12
g144
sI14
g161
sI15
g174
sI17
g197
ssI5
(dp253
I1
g34
sI2
g49
sI3
g59
sI6
g90
sI7
g98
sI11
g133
sI12
g145
sI13
g153
sI14
g162
sI15
g175
sI19
g221
ssI6
(dp254
I1
g38
sI2
g50
sI3
g60
sI4
g68
sI5
g79
sI9
g116
sI11
g134
sI15
g176
sI16
g187
sI17
g198
sI18
g207
sI19
g222
sI20
g235
ssI7
(dp255
I2
g51
sI4
g69
sI5
g80
sI6
g91
sI8
g106
sI10
g122
sI12
g146
sI16
g188
sI17
g199
sI20
g236
ssI8
(dp256
I6
g92
sI10
g123
sI11
g135
sI12
g147
sI15
g177
sI16
g189
sI17
g200
sI18
g208
sI19
g223
sI20
g237
ssI9
(dp257
I2
g52
sI4
g70
sI7
g99
sI12
g148
sI14
g163
sI15
g178
sI18
g209
sI19
g224
sI20
g238
ssI10
(dp258
I2
g53
sI3
g61
sI7
g100
sI9
g117
sI11
g136
sI12
g149
sI13
g154
sI14
g164
sI15
g179
sI18
g210
sI20
g239
ssI11
(dp259
I1
g39
sI7
g101
sI10
g124
sI14
g165
sI15
g180
sI17
g201
sI18
g211
sI19
g225
ssI12
(dp260
I1
g40
sI3
g62
sI5
g81
sI8
g107
sI10
g125
sI15
g181
sI17
g202
sI19
g226
sI20
g240
ssI13
(dp261
I3
g63
sI5
g82
sI7
g102
sI8
g108
sI11
g137
sI14
g166
sI15
g182
sI16
g190
sI17
g203
sI18
g212
sI19
g227
ssI14
(dp262
I1
g41
sI5
g83
sI11
g138
sI12
g150
sI16
g191
sI18
g213
sI19
g228
ssI15
(dp263
I1
g42
sI2
g54
sI5
g84
sI9
g118
sI10
g126
sI13
g155
sI16
g192
sI18
g214
sI19
g229
sI20
g241
ssI16
(dp264
I1
g43
sI8
g109
sI14
g167
sI15
g183
sI18
g215
sI20
g242
ssI17
(dp265
I1
g44
sI3
g64
sI5
g85
sI8
g110
sI10
g127
sI11
g139
sI13
g156
sI14
g168
sI18
g216
sI20
g243
ssI18
(dp266
I1
g45
sI3
g65
sI4
g71
sI9
g119
sI11
g140
sI14
g169
sI19
g230
sI20
g244
ssI19
(dp267
I1
g46
sI4
g72
sI7
g103
sI8
g111
sI13
g157
sI15
g184
sI16
g193
sI20
g245
ssI20
(dp268
I4
g73
sI6
g93
sI8
g112
sI10
g128
sI12
g151
sI13
g158
sI14
g170
sI18
g217
sI19
g231
sssS'adj'
p269
g32
sb.