ccopy_reg
_reconstructor
p1
(cnetworkx.classes.digraph
DiGraph
p2
c__builtin__
object
p3
NtRp4
(dp5
S'node'
p6
(dp7
I1
(dp8
S'demand'
p9
I15
ssI2
(dp10
g9
I6
ssI3
(dp11
g9
I1
ssI4
(dp12
g9
I10
ssI5
(dp13
g9
I4
ssI6
(dp14
g9
I8
ssI7
(dp15
g9
I8
ssI8
(dp16
g9
I2
ssI9
(dp17
g9
I9
ssI10
(dp18
g9
I2
ssI11
(dp19
g9
I0
ssI12
(dp20
g9
I0
ssI13
(dp21
g9
I0
ssI14
(dp22
g9
I0
ssI15
(dp23
g9
I0
ssI16
(dp24
g9
I0
ssI17
(dp25
g9
I0
ssI18
(dp26
g9
I0
ssI19
(dp27
g9
I0
ssI20
(dp28
g9
I-65
sssS'graph'
p29
(dp30
sS'succ'
p31
(dp32
I1
(dp33
I2
(dp34
S'capacity'
p35
I5
sS'fluxo'
p36
I0
sS'weight'
p37
I5
ssI3
(dp38
g35
I6
sg36
I0
sg37
I1
ssI5
(dp39
g35
I5
sg36
I0
sg37
I21
ssI7
(dp40
g35
I8
sg36
I0
sg37
I9
ssI8
(dp41
g35
I7
sg36
I0
sg37
I8
ssI10
(dp42
g35
I5
sg36
I0
sg37
I23
ssI11
(dp43
g35
I8
sg36
I0
sg37
I14
ssI12
(dp44
g35
I8
sg36
I0
sg37
I2
ssI13
(dp45
g35
I8
sg36
I0
sg37
I16
ssI14
(dp46
g35
I6
sg36
I0
sg37
I0
ssI15
(dp47
g35
I6
sg36
I0
sg37
I12
sssI2
(dp48
I6
(dp49
g35
I6
sg36
I0
sg37
I15
ssI8
(dp50
g35
I6
sg36
I0
sg37
I30
ssI9
(dp51
g35
I8
sg36
I0
sg37
I25
ssI10
(dp52
g35
I5
sg36
I0
sg37
I0
ssI11
(dp53
g35
I7
sg36
I0
sg37
I6
ssI12
(dp54
g35
I6
sg36
I0
sg37
I15
ssI18
(dp55
g35
I7
sg36
I0
sg37
I15
ssI20
(dp56
g35
I8
sg36
I0
sg37
I27
sssI3
(dp57
I2
(dp58
g35
I8
sg36
I0
sg37
I24
ssI4
(dp59
g35
I7
sg36
I0
sg37
I15
ssI5
(dp60
g35
I8
sg36
I0
sg37
I9
ssI6
(dp61
g35
I6
sg36
I0
sg37
I6
ssI7
(dp62
g35
I8
sg36
I0
sg37
I25
ssI8
(dp63
g35
I8
sg36
I0
sg37
I27
ssI10
(dp64
g35
I8
sg36
I0
sg37
I25
ssI13
(dp65
g35
I8
sg36
I0
sg37
I4
ssI16
(dp66
g35
I6
sg36
I0
sg37
I3
ssI18
(dp67
g35
I5
sg36
I0
sg37
I2
sssI4
(dp68
I6
(dp69
g35
I5
sg36
I0
sg37
I21
ssI8
(dp70
g35
I5
sg36
I0
sg37
I7
ssI10
(dp71
g35
I8
sg36
I0
sg37
I26
ssI11
(dp72
g35
I7
sg36
I0
sg37
I20
ssI12
(dp73
g35
I8
sg36
I0
sg37
I28
ssI16
(dp74
g35
I6
sg36
I0
sg37
I11
ssI19
(dp75
g35
I7
sg36
I0
sg37
I10
ssI20
(dp76
g35
I7
sg36
I0
sg37
I4
sssI5
(dp77
I1
(dp78
g35
I7
sg36
I0
sg37
I18
ssI2
(dp79
g35
I8
sg36
I0
sg37
I10
ssI4
(dp80
g35
I7
sg36
I0
sg37
I20
ssI7
(dp81
g35
I8
sg36
I0
sg37
I10
ssI8
(dp82
g35
I5
sg36
I0
sg37
I6
ssI9
(dp83
g35
I8
sg36
I0
sg37
I12
ssI10
(dp84
g35
I7
sg36
I0
sg37
I7
ssI11
(dp85
g35
I8
sg36
I0
sg37
I9
ssI14
(dp86
g35
I8
sg36
I0
sg37
I29
ssI19
(dp87
g35
I7
sg36
I0
sg37
I1
sssI6
(dp88
I1
(dp89
g35
I7
sg36
I0
sg37
I16
ssI2
(dp90
g35
I5
sg36
I0
sg37
I11
ssI3
(dp91
g35
I5
sg36
I0
sg37
I14
ssI10
(dp92
g35
I5
sg36
I0
sg37
I6
ssI11
(dp93
g35
I8
sg36
I0
sg37
I3
ssI16
(dp94
g35
I6
sg36
I0
sg37
I16
ssI17
(dp95
g35
I7
sg36
I0
sg37
I9
ssI18
(dp96
g35
I7
sg36
I0
sg37
I7
ssI19
(dp97
g35
I5
sg36
I0
sg37
I8
ssI20
(dp98
g35
I8
sg36
I0
sg37
I20
sssI7
(dp99
I1
(dp100
g35
I8
sg36
I0
sg37
I7
ssI3
(dp101
g35
I7
sg36
I0
sg37
I21
ssI12
(dp102
g35
I6
sg36
I0
sg37
I22
ssI14
(dp103
g35
I8
sg36
I0
sg37
I21
ssI15
(dp104
g35
I7
sg36
I0
sg37
I26
sssI8
(dp105
I1
(dp106
g35
I5
sg36
I0
sg37
I3
ssI2
(dp107
g35
I5
sg36
I0
sg37
I29
ssI5
(dp108
g35
I6
sg36
I0
sg37
I0
ssI9
(dp109
g35
I8
sg36
I0
sg37
I28
ssI11
(dp110
g35
I8
sg36
I0
sg37
I22
ssI12
(dp111
g35
I6
sg36
I0
sg37
I8
ssI20
(dp112
g35
I7
sg36
I0
sg37
I20
sssI9
(dp113
I1
(dp114
g35
I6
sg36
I0
sg37
I15
ssI5
(dp115
g35
I7
sg36
I0
sg37
I11
ssI7
(dp116
g35
I7
sg36
I0
sg37
I29
ssI10
(dp117
g35
I7
sg36
I0
sg37
I17
ssI11
(dp118
g35
I8
sg36
I0
sg37
I0
ssI13
(dp119
g35
I6
sg36
I0
sg37
I21
ssI15
(dp120
g35
I6
sg36
I0
sg37
I5
ssI17
(dp121
g35
I6
sg36
I0
sg37
I10
ssI19
(dp122
g35
I7
sg36
I0
sg37
I10
sssI10
(dp123
I3
(dp124
g35
I7
sg36
I0
sg37
I20
ssI4
(dp125
g35
I8
sg36
I0
sg37
I24
ssI8
(dp126
g35
I6
sg36
I0
sg37
I9
ssI9
(dp127
g35
I8
sg36
I0
sg37
I27
ssI11
(dp128
g35
I6
sg36
I0
sg37
I29
ssI12
(dp129
g35
I7
sg36
I0
sg37
I26
ssI14
(dp130
g35
I6
sg36
I0
sg37
I16
ssI15
(dp131
g35
I8
sg36
I0
sg37
I14
ssI16
(dp132
g35
I7
sg36
I0
sg37
I11
ssI19
(dp133
g35
I5
sg36
I0
sg37
I18
sssI11
(dp134
I5
(dp135
g35
I7
sg36
I0
sg37
I23
ssI6
(dp136
g35
I6
sg36
I0
sg37
I13
ssI7
(dp137
g35
I6
sg36
I0
sg37
I6
ssI8
(dp138
g35
I7
sg36
I0
sg37
I28
ssI10
(dp139
g35
I8
sg36
I0
sg37
I22
ssI14
(dp140
g35
I8
sg36
I0
sg37
I7
ssI17
(dp141
g35
I7
sg36
I0
sg37
I11
ssI18
(dp142
g35
I6
sg36
I0
sg37
I30
ssI20
(dp143
g35
I8
sg36
I0
sg37
I30
sssI12
(dp144
I5
(dp145
g35
I6
sg36
I0
sg37
I3
ssI11
(dp146
g35
I5
sg36
I0
sg37
I0
ssI13
(dp147
g35
I8
sg36
I0
sg37
I25
ssI14
(dp148
g35
I6
sg36
I0
sg37
I20
ssI16
(dp149
g35
I8
sg36
I0
sg37
I10
ssI17
(dp150
g35
I6
sg36
I0
sg37
I13
ssI19
(dp151
g35
I6
sg36
I0
sg37
I1
sssI13
(dp152
I1
(dp153
g35
I8
sg36
I0
sg37
I26
ssI3
(dp154
g35
I7
sg36
I0
sg37
I19
ssI5
(dp155
g35
I7
sg36
I0
sg37
I12
ssI7
(dp156
g35
I7
sg36
I0
sg37
I29
ssI10
(dp157
g35
I5
sg36
I0
sg37
I21
ssI12
(dp158
g35
I8
sg36
I0
sg37
I10
ssI14
(dp159
g35
I5
sg36
I0
sg37
I21
ssI17
(dp160
g35
I8
sg36
I0
sg37
I7
ssI18
(dp161
g35
I8
sg36
I0
sg37
I22
ssI19
(dp162
g35
I5
sg36
I0
sg37
I3
ssI20
(dp163
g35
I6
sg36
I0
sg37
I25
sssI14
(dp164
I1
(dp165
g35
I6
sg36
I0
sg37
I4
ssI3
(dp166
g35
I7
sg36
I0
sg37
I19
ssI5
(dp167
g35
I6
sg36
I0
sg37
I13
ssI8
(dp168
g35
I7
sg36
I0
sg37
I10
ssI10
(dp169
g35
I5
sg36
I0
sg37
I30
ssI11
(dp170
g35
I6
sg36
I0
sg37
I29
ssI16
(dp171
g35
I6
sg36
I0
sg37
I0
ssI17
(dp172
g35
I5
sg36
I0
sg37
I23
ssI18
(dp173
g35
I5
sg36
I0
sg37
I22
ssI20
(dp174
g35
I6
sg36
I0
sg37
I3
sssI15
(dp175
I1
(dp176
g35
I5
sg36
I0
sg37
I2
ssI2
(dp177
g35
I7
sg36
I0
sg37
I23
ssI6
(dp178
g35
I8
sg36
I0
sg37
I10
ssI8
(dp179
g35
I5
sg36
I0
sg37
I7
ssI9
(dp180
g35
I8
sg36
I0
sg37
I15
ssI10
(dp181
g35
I5
sg36
I0
sg37
I16
ssI11
(dp182
g35
I5
sg36
I0
sg37
I30
ssI12
(dp183
g35
I5
sg36
I0
sg37
I28
ssI13
(dp184
g35
I6
sg36
I0
sg37
I9
ssI14
(dp185
g35
I7
sg36
I0
sg37
I3
ssI17
(dp186
g35
I6
sg36
I0
sg37
I28
ssI18
(dp187
g35
I7
sg36
I0
sg37
I6
ssI19
(dp188
g35
I5
sg36
I0
sg37
I4
sssI16
(dp189
I3
(dp190
g35
I8
sg36
I0
sg37
I28
ssI4
(dp191
g35
I7
sg36
I0
sg37
I29
ssI6
(dp192
g35
I5
sg36
I0
sg37
I23
ssI7
(dp193
g35
I8
sg36
I0
sg37
I9
ssI9
(dp194
g35
I8
sg36
I0
sg37
I24
ssI13
(dp195
g35
I5
sg36
I0
sg37
I1
ssI14
(dp196
g35
I8
sg36
I0
sg37
I27
ssI19
(dp197
g35
I7
sg36
I0
sg37
I8
sssI17
(dp198
I1
(dp199
g35
I5
sg36
I0
sg37
I24
ssI3
(dp200
g35
I7
sg36
I0
sg37
I15
ssI8
(dp201
g35
I8
sg36
I0
sg37
I8
ssI9
(dp202
g35
I7
sg36
I0
sg37
I25
ssI12
(dp203
g35
I7
sg36
I0
sg37
I30
ssI14
(dp204
g35
I6
sg36
I0
sg37
I16
ssI15
(dp205
g35
I8
sg36
I0
sg37
I14
ssI16
(dp206
g35
I7
sg36
I0
sg37
I30
ssI18
(dp207
g35
I6
sg36
I0
sg37
I21
ssI19
(dp208
g35
I6
sg36
I0
sg37
I11
ssI20
(dp209
g35
I8
sg36
I0
sg37
I30
sssI18
(dp210
I2
(dp211
g35
I7
sg36
I0
sg37
I24
ssI3
(dp212
g35
I7
sg36
I0
sg37
I29
ssI5
(dp213
g35
I5
sg36
I0
sg37
I13
ssI6
(dp214
g35
I6
sg36
I0
sg37
I11
ssI7
(dp215
g35
I8
sg36
I0
sg37
I2
ssI8
(dp216
g35
I6
sg36
I0
sg37
I23
ssI10
(dp217
g35
I6
sg36
I0
sg37
I15
ssI12
(dp218
g35
I7
sg36
I0
sg37
I16
ssI13
(dp219
g35
I6
sg36
I0
sg37
I7
ssI14
(dp220
g35
I8
sg36
I0
sg37
I26
ssI16
(dp221
g35
I5
sg36
I0
sg37
I20
ssI17
(dp222
g35
I6
sg36
I0
sg37
I4
ssI19
(dp223
g35
I5
sg36
I0
sg37
I28
sssI19
(dp224
I1
(dp225
g35
I5
sg36
I0
sg37
I6
ssI2
(dp226
g35
I7
sg36
I0
sg37
I4
ssI3
(dp227
g35
I7
sg36
I0
sg37
I23
ssI5
(dp228
g35
I6
sg36
I0
sg37
I3
ssI7
(dp229
g35
I8
sg36
I0
sg37
I20
ssI9
(dp230
g35
I7
sg36
I0
sg37
I21
ssI10
(dp231
g35
I6
sg36
I0
sg37
I8
ssI12
(dp232
g35
I5
sg36
I0
sg37
I28
ssI18
(dp233
g35
I7
sg36
I0
sg37
I21
sssI20
(dp234
I1
(dp235
g35
I7
sg36
I0
sg37
I8
ssI3
(dp236
g35
I8
sg36
I0
sg37
I22
ssI7
(dp237
g35
I8
sg36
I0
sg37
I10
ssI8
(dp238
g35
I7
sg36
I0
sg37
I25
ssI9
(dp239
g35
I5
sg36
I0
sg37
I0
ssI11
(dp240
g35
I6
sg36
I0
sg37
I1
ssI12
(dp241
g35
I7
sg36
I0
sg37
I4
ssI13
(dp242
g35
I7
sg36
I0
sg37
I27
ssI14
(dp243
g35
I6
sg36
I0
sg37
I20
ssI16
(dp244
g35
I8
sg36
I0
sg37
I14
ssI17
(dp245
g35
I5
sg36
I0
sg37
I13
ssssS'edge'
p246
g32
sS'pred'
p247
(dp248
I1
(dp249
I5
g78
sI6
g89
sI7
g100
sI8
g106
sI9
g114
sI13
g153
sI14
g165
sI15
g176
sI17
g199
sI19
g225
sI20
g235
ssI2
(dp250
I1
g34
sI3
g58
sI5
g79
sI6
g90
sI8
g107
sI15
g177
sI18
g211
sI19
g226
ssI3
(dp251
I1
g38
sI6
g91
sI7
g101
sI10
g124
sI13
g154
sI14
g166
sI16
g190
sI17
g200
sI18
g212
sI19
g227
sI20
g236
ssI4
(dp252
I16
g191
sI10
g125
sI3
g59
sI5
g80
ssI5
(dp253
I1
g39
sI3
g60
sI8
g108
sI9
g115
sI11
g135
sI12
g145
sI13
g155
sI14
g167
sI18
g213
sI19
g228
ssI6
(dp254
I2
g49
sI3
g61
sI4
g69
sI11
g136
sI15
g178
sI16
g192
sI18
g214
ssI7
(dp255
I1
g40
sI3
g62
sI5
g81
sI9
g116
sI11
g137
sI13
g156
sI16
g193
sI18
g215
sI19
g229
sI20
g237
ssI8
(dp256
I1
g41
sI2
g50
sI3
g63
sI4
g70
sI5
g82
sI10
g126
sI11
g138
sI14
g168
sI15
g179
sI17
g201
sI18
g216
sI20
g238
ssI9
(dp257
I2
g51
sI5
g83
sI8
g109
sI10
g127
sI15
g180
sI16
g194
sI17
g202
sI19
g230
sI20
g239
ssI10
(dp258
I1
g42
sI2
g52
sI3
g64
sI4
g71
sI5
g84
sI6
g92
sI9
g117
sI11
g139
sI13
g157
sI14
g169
sI15
g181
sI18
g217
sI19
g231
ssI11
(dp259
I1
g43
sI2
g53
sI4
g72
sI5
g85
sI6
g93
sI8
g110
sI9
g118
sI10
g128
sI12
g146
sI14
g170
sI15
g182
sI20
g240
ssI12
(dp260
I1
g44
sI2
g54
sI4
g73
sI7
g102
sI8
g111
sI10
g129
sI13
g158
sI15
g183
sI17
g203
sI18
g218
sI19
g232
sI20
g241
ssI13
(dp261
I1
g45
sI3
g65
sI9
g119
sI12
g147
sI15
g184
sI16
g195
sI18
g219
sI20
g242
ssI14
(dp262
I1
g46
sI5
g86
sI7
g103
sI10
g130
sI11
g140
sI12
g148
sI13
g159
sI15
g185
sI16
g196
sI17
g204
sI18
g220
sI20
g243
ssI15
(dp263
I9
g120
sI10
g131
sI7
g104
sI1
g47
sI17
g205
ssI16
(dp264
I3
g66
sI4
g74
sI6
g94
sI10
g132
sI12
g149
sI14
g171
sI17
g206
sI18
g221
sI20
g244
ssI17
(dp265
I6
g95
sI9
g121
sI11
g141
sI12
g150
sI13
g160
sI14
g172
sI15
g186
sI18
g222
sI20
g245
ssI18
(dp266
I2
g55
sI3
g67
sI6
g96
sI11
g142
sI13
g161
sI14
g173
sI15
g187
sI17
g207
sI19
g233
ssI19
(dp267
I4
g75
sI5
g87
sI6
g97
sI9
g122
sI10
g133
sI12
g151
sI13
g162
sI15
g188
sI16
g197
sI17
g208
sI18
g223
ssI20
(dp268
I2
g56
sI4
g76
sI6
g98
sI8
g112
sI11
g143
sI13
g163
sI14
g174
sI17
g209
sssS'adj'
p269
g32
sb.