ccopy_reg
_reconstructor
p1
(cnetworkx.classes.digraph
DiGraph
p2
c__builtin__
object
p3
NtRp4
(dp5
S'node'
p6
(dp7
I1
(dp8
S'demand'
p9
I15
ssI2
(dp10
g9
I7
ssI3
(dp11
g9
I2
ssI4
(dp12
g9
I12
ssI5
(dp13
g9
I12
ssI6
(dp14
g9
I11
ssI7
(dp15
g9
I1
ssI8
(dp16
g9
I2
ssI9
(dp17
g9
I8
ssI10
(dp18
g9
I1
ssI11
(dp19
g9
I0
ssI12
(dp20
g9
I0
ssI13
(dp21
g9
I0
ssI14
(dp22
g9
I0
ssI15
(dp23
g9
I0
ssI16
(dp24
g9
I0
ssI17
(dp25
g9
I0
ssI18
(dp26
g9
I0
ssI19
(dp27
g9
I0
ssI20
(dp28
g9
I-71
sssS'graph'
p29
(dp30
sS'succ'
p31
(dp32
I1
(dp33
I3
(dp34
S'capacity'
p35
I8
sS'fluxo'
p36
I0
sS'weight'
p37
I3
ssI4
(dp38
g35
I5
sg36
I0
sg37
I35
ssI6
(dp39
g35
I5
sg36
I0
sg37
I32
ssI8
(dp40
g35
I6
sg36
I0
sg37
I28
ssI10
(dp41
g35
I8
sg36
I0
sg37
I10
ssI14
(dp42
g35
I5
sg36
I0
sg37
I35
ssI18
(dp43
g35
I7
sg36
I0
sg37
I29
ssI20
(dp44
g35
I7
sg36
I0
sg37
I1
sssI2
(dp45
I8
(dp46
g35
I8
sg36
I0
sg37
I19
ssI17
(dp47
g35
I8
sg36
I0
sg37
I17
ssI4
(dp48
g35
I6
sg36
I0
sg37
I22
ssI6
(dp49
g35
I5
sg36
I0
sg37
I3
ssI7
(dp50
g35
I5
sg36
I0
sg37
I16
sssI3
(dp51
I1
(dp52
g35
I7
sg36
I0
sg37
I7
ssI2
(dp53
g35
I7
sg36
I0
sg37
I6
ssI4
(dp54
g35
I7
sg36
I0
sg37
I12
ssI5
(dp55
g35
I5
sg36
I0
sg37
I27
ssI7
(dp56
g35
I8
sg36
I0
sg37
I39
ssI10
(dp57
g35
I5
sg36
I0
sg37
I37
ssI13
(dp58
g35
I7
sg36
I0
sg37
I31
ssI14
(dp59
g35
I8
sg36
I0
sg37
I1
ssI16
(dp60
g35
I7
sg36
I0
sg37
I9
ssI17
(dp61
g35
I5
sg36
I0
sg37
I15
sssI4
(dp62
I1
(dp63
g35
I8
sg36
I0
sg37
I8
ssI6
(dp64
g35
I7
sg36
I0
sg37
I6
ssI7
(dp65
g35
I7
sg36
I0
sg37
I22
ssI9
(dp66
g35
I5
sg36
I0
sg37
I38
ssI12
(dp67
g35
I5
sg36
I0
sg37
I22
ssI13
(dp68
g35
I8
sg36
I0
sg37
I6
ssI15
(dp69
g35
I5
sg36
I0
sg37
I18
ssI18
(dp70
g35
I7
sg36
I0
sg37
I31
ssI19
(dp71
g35
I7
sg36
I0
sg37
I33
ssI20
(dp72
g35
I6
sg36
I0
sg37
I5
sssI5
(dp73
I1
(dp74
g35
I5
sg36
I0
sg37
I40
ssI3
(dp75
g35
I5
sg36
I0
sg37
I14
ssI4
(dp76
g35
I6
sg36
I0
sg37
I16
ssI6
(dp77
g35
I5
sg36
I0
sg37
I14
ssI7
(dp78
g35
I6
sg36
I0
sg37
I34
ssI8
(dp79
g35
I6
sg36
I0
sg37
I36
ssI9
(dp80
g35
I8
sg36
I0
sg37
I15
ssI13
(dp81
g35
I5
sg36
I0
sg37
I3
ssI14
(dp82
g35
I6
sg36
I0
sg37
I14
ssI15
(dp83
g35
I6
sg36
I0
sg37
I8
ssI16
(dp84
g35
I8
sg36
I0
sg37
I22
ssI17
(dp85
g35
I7
sg36
I0
sg37
I19
ssI18
(dp86
g35
I7
sg36
I0
sg37
I2
ssI19
(dp87
g35
I7
sg36
I0
sg37
I38
ssI20
(dp88
g35
I5
sg36
I0
sg37
I14
sssI6
(dp89
I1
(dp90
g35
I7
sg36
I0
sg37
I40
ssI2
(dp91
g35
I5
sg36
I0
sg37
I22
ssI4
(dp92
g35
I7
sg36
I0
sg37
I6
ssI7
(dp93
g35
I8
sg36
I0
sg37
I10
ssI9
(dp94
g35
I6
sg36
I0
sg37
I38
ssI16
(dp95
g35
I7
sg36
I0
sg37
I25
sssI7
(dp96
I2
(dp97
g35
I5
sg36
I0
sg37
I27
ssI3
(dp98
g35
I5
sg36
I0
sg37
I18
ssI4
(dp99
g35
I8
sg36
I0
sg37
I4
ssI9
(dp100
g35
I7
sg36
I0
sg37
I27
ssI11
(dp101
g35
I7
sg36
I0
sg37
I33
ssI13
(dp102
g35
I6
sg36
I0
sg37
I19
ssI14
(dp103
g35
I5
sg36
I0
sg37
I8
ssI16
(dp104
g35
I7
sg36
I0
sg37
I29
ssI17
(dp105
g35
I5
sg36
I0
sg37
I30
ssI18
(dp106
g35
I6
sg36
I0
sg37
I5
ssI19
(dp107
g35
I5
sg36
I0
sg37
I38
sssI8
(dp108
I5
(dp109
g35
I8
sg36
I0
sg37
I29
ssI9
(dp110
g35
I8
sg36
I0
sg37
I7
ssI12
(dp111
g35
I6
sg36
I0
sg37
I3
ssI13
(dp112
g35
I7
sg36
I0
sg37
I8
ssI14
(dp113
g35
I5
sg36
I0
sg37
I30
ssI18
(dp114
g35
I7
sg36
I0
sg37
I30
ssI20
(dp115
g35
I8
sg36
I0
sg37
I36
sssI9
(dp116
I1
(dp117
g35
I8
sg36
I0
sg37
I25
ssI4
(dp118
g35
I7
sg36
I0
sg37
I33
ssI7
(dp119
g35
I8
sg36
I0
sg37
I4
ssI8
(dp120
g35
I6
sg36
I0
sg37
I17
ssI11
(dp121
g35
I7
sg36
I0
sg37
I11
ssI13
(dp122
g35
I5
sg36
I0
sg37
I5
ssI19
(dp123
g35
I5
sg36
I0
sg37
I5
sssI10
(dp124
I1
(dp125
g35
I6
sg36
I0
sg37
I38
ssI2
(dp126
g35
I8
sg36
I0
sg37
I24
ssI5
(dp127
g35
I8
sg36
I0
sg37
I3
ssI6
(dp128
g35
I6
sg36
I0
sg37
I20
ssI9
(dp129
g35
I6
sg36
I0
sg37
I23
ssI16
(dp130
g35
I7
sg36
I0
sg37
I6
ssI19
(dp131
g35
I5
sg36
I0
sg37
I35
ssI20
(dp132
g35
I7
sg36
I0
sg37
I33
sssI11
(dp133
I1
(dp134
g35
I7
sg36
I0
sg37
I32
ssI3
(dp135
g35
I8
sg36
I0
sg37
I29
ssI4
(dp136
g35
I7
sg36
I0
sg37
I1
ssI8
(dp137
g35
I5
sg36
I0
sg37
I22
ssI9
(dp138
g35
I7
sg36
I0
sg37
I27
ssI10
(dp139
g35
I7
sg36
I0
sg37
I5
ssI12
(dp140
g35
I5
sg36
I0
sg37
I4
ssI13
(dp141
g35
I8
sg36
I0
sg37
I17
ssI15
(dp142
g35
I7
sg36
I0
sg37
I39
ssI20
(dp143
g35
I5
sg36
I0
sg37
I36
sssI12
(dp144
I1
(dp145
g35
I5
sg36
I0
sg37
I31
ssI2
(dp146
g35
I8
sg36
I0
sg37
I1
ssI3
(dp147
g35
I6
sg36
I0
sg37
I36
ssI4
(dp148
g35
I8
sg36
I0
sg37
I36
ssI5
(dp149
g35
I7
sg36
I0
sg37
I1
ssI9
(dp150
g35
I6
sg36
I0
sg37
I25
ssI10
(dp151
g35
I8
sg36
I0
sg37
I13
ssI13
(dp152
g35
I8
sg36
I0
sg37
I4
ssI14
(dp153
g35
I8
sg36
I0
sg37
I9
ssI16
(dp154
g35
I5
sg36
I0
sg37
I28
ssI17
(dp155
g35
I5
sg36
I0
sg37
I5
ssI18
(dp156
g35
I7
sg36
I0
sg37
I27
ssI19
(dp157
g35
I5
sg36
I0
sg37
I15
ssI20
(dp158
g35
I8
sg36
I0
sg37
I10
sssI13
(dp159
I3
(dp160
g35
I5
sg36
I0
sg37
I5
ssI5
(dp161
g35
I8
sg36
I0
sg37
I2
ssI7
(dp162
g35
I6
sg36
I0
sg37
I8
ssI10
(dp163
g35
I8
sg36
I0
sg37
I6
ssI11
(dp164
g35
I8
sg36
I0
sg37
I13
ssI14
(dp165
g35
I6
sg36
I0
sg37
I40
ssI16
(dp166
g35
I8
sg36
I0
sg37
I24
ssI18
(dp167
g35
I8
sg36
I0
sg37
I13
ssI19
(dp168
g35
I5
sg36
I0
sg37
I30
ssI20
(dp169
g35
I6
sg36
I0
sg37
I25
sssI14
(dp170
I5
(dp171
g35
I6
sg36
I0
sg37
I12
ssI6
(dp172
g35
I5
sg36
I0
sg37
I7
ssI8
(dp173
g35
I5
sg36
I0
sg37
I6
ssI9
(dp174
g35
I5
sg36
I0
sg37
I27
ssI11
(dp175
g35
I6
sg36
I0
sg37
I20
ssI12
(dp176
g35
I6
sg36
I0
sg37
I4
ssI13
(dp177
g35
I5
sg36
I0
sg37
I30
ssI15
(dp178
g35
I5
sg36
I0
sg37
I12
ssI17
(dp179
g35
I5
sg36
I0
sg37
I24
ssI18
(dp180
g35
I5
sg36
I0
sg37
I6
ssI19
(dp181
g35
I7
sg36
I0
sg37
I3
ssI20
(dp182
g35
I7
sg36
I0
sg37
I4
sssI15
(dp183
I3
(dp184
g35
I7
sg36
I0
sg37
I12
ssI4
(dp185
g35
I5
sg36
I0
sg37
I28
ssI8
(dp186
g35
I8
sg36
I0
sg37
I18
ssI10
(dp187
g35
I6
sg36
I0
sg37
I3
ssI13
(dp188
g35
I8
sg36
I0
sg37
I22
ssI18
(dp189
g35
I6
sg36
I0
sg37
I26
sssI16
(dp190
I1
(dp191
g35
I8
sg36
I0
sg37
I0
ssI2
(dp192
g35
I8
sg36
I0
sg37
I13
ssI4
(dp193
g35
I8
sg36
I0
sg37
I36
ssI5
(dp194
g35
I6
sg36
I0
sg37
I18
ssI6
(dp195
g35
I6
sg36
I0
sg37
I23
ssI13
(dp196
g35
I6
sg36
I0
sg37
I6
ssI15
(dp197
g35
I5
sg36
I0
sg37
I25
ssI20
(dp198
g35
I8
sg36
I0
sg37
I15
sssI17
(dp199
I2
(dp200
g35
I7
sg36
I0
sg37
I38
ssI3
(dp201
g35
I5
sg36
I0
sg37
I26
ssI4
(dp202
g35
I7
sg36
I0
sg37
I16
ssI7
(dp203
g35
I5
sg36
I0
sg37
I33
ssI12
(dp204
g35
I7
sg36
I0
sg37
I8
ssI13
(dp205
g35
I6
sg36
I0
sg37
I12
ssI15
(dp206
g35
I7
sg36
I0
sg37
I12
ssI18
(dp207
g35
I7
sg36
I0
sg37
I28
ssI19
(dp208
g35
I6
sg36
I0
sg37
I24
ssI20
(dp209
g35
I5
sg36
I0
sg37
I11
sssI18
(dp210
I1
(dp211
g35
I5
sg36
I0
sg37
I6
ssI2
(dp212
g35
I8
sg36
I0
sg37
I15
ssI3
(dp213
g35
I8
sg36
I0
sg37
I39
ssI5
(dp214
g35
I7
sg36
I0
sg37
I0
ssI7
(dp215
g35
I8
sg36
I0
sg37
I4
ssI8
(dp216
g35
I8
sg36
I0
sg37
I4
ssI10
(dp217
g35
I8
sg36
I0
sg37
I17
ssI12
(dp218
g35
I7
sg36
I0
sg37
I37
ssI14
(dp219
g35
I7
sg36
I0
sg37
I8
ssI19
(dp220
g35
I6
sg36
I0
sg37
I16
ssI20
(dp221
g35
I5
sg36
I0
sg37
I4
sssI19
(dp222
I1
(dp223
g35
I6
sg36
I0
sg37
I39
ssI2
(dp224
g35
I8
sg36
I0
sg37
I10
ssI3
(dp225
g35
I7
sg36
I0
sg37
I38
ssI4
(dp226
g35
I6
sg36
I0
sg37
I31
ssI5
(dp227
g35
I5
sg36
I0
sg37
I36
ssI8
(dp228
g35
I8
sg36
I0
sg37
I33
ssI11
(dp229
g35
I8
sg36
I0
sg37
I26
ssI12
(dp230
g35
I8
sg36
I0
sg37
I27
ssI13
(dp231
g35
I6
sg36
I0
sg37
I23
ssI18
(dp232
g35
I5
sg36
I0
sg37
I16
sssI20
(dp233
I2
(dp234
g35
I7
sg36
I0
sg37
I14
ssI3
(dp235
g35
I6
sg36
I0
sg37
I10
ssI4
(dp236
g35
I8
sg36
I0
sg37
I15
ssI5
(dp237
g35
I5
sg36
I0
sg37
I13
ssI6
(dp238
g35
I6
sg36
I0
sg37
I36
ssI9
(dp239
g35
I6
sg36
I0
sg37
I6
ssI10
(dp240
g35
I5
sg36
I0
sg37
I17
ssI11
(dp241
g35
I8
sg36
I0
sg37
I11
ssI12
(dp242
g35
I6
sg36
I0
sg37
I6
ssI15
(dp243
g35
I5
sg36
I0
sg37
I28
ssI18
(dp244
g35
I7
sg36
I0
sg37
I31
ssI19
(dp245
g35
I8
sg36
I0
sg37
I1
ssssS'edge'
p246
g32
sS'pred'
p247
(dp248
I1
(dp249
I3
g52
sI4
g63
sI5
g74
sI6
g90
sI9
g117
sI10
g125
sI11
g134
sI12
g145
sI16
g191
sI18
g211
sI19
g223
ssI2
(dp250
I3
g53
sI6
g91
sI7
g97
sI10
g126
sI12
g146
sI16
g192
sI17
g200
sI18
g212
sI19
g224
sI20
g234
ssI3
(dp251
I1
g34
sI5
g75
sI7
g98
sI11
g135
sI12
g147
sI13
g160
sI15
g184
sI17
g201
sI18
g213
sI19
g225
sI20
g235
ssI4
(dp252
I1
g38
sI2
g48
sI3
g54
sI5
g76
sI6
g92
sI7
g99
sI9
g118
sI11
g136
sI12
g148
sI15
g185
sI16
g193
sI17
g202
sI19
g226
sI20
g236
ssI5
(dp253
I3
g55
sI8
g109
sI10
g127
sI12
g149
sI13
g161
sI14
g171
sI16
g194
sI18
g214
sI19
g227
sI20
g237
ssI6
(dp254
I1
g39
sI2
g49
sI4
g64
sI5
g77
sI10
g128
sI14
g172
sI16
g195
sI20
g238
ssI7
(dp255
I2
g50
sI3
g56
sI4
g65
sI5
g78
sI6
g93
sI9
g119
sI13
g162
sI17
g203
sI18
g215
ssI8
(dp256
I1
g40
sI2
g46
sI5
g79
sI9
g120
sI11
g137
sI14
g173
sI15
g186
sI18
g216
sI19
g228
ssI9
(dp257
I4
g66
sI5
g80
sI6
g94
sI7
g100
sI8
g110
sI10
g129
sI11
g138
sI12
g150
sI14
g174
sI20
g239
ssI10
(dp258
I1
g41
sI3
g57
sI11
g139
sI12
g151
sI13
g163
sI15
g187
sI18
g217
sI20
g240
ssI11
(dp259
I7
g101
sI9
g121
sI13
g164
sI14
g175
sI19
g229
sI20
g241
ssI12
(dp260
I4
g67
sI8
g111
sI11
g140
sI14
g176
sI17
g204
sI18
g218
sI19
g230
sI20
g242
ssI13
(dp261
I3
g58
sI4
g68
sI5
g81
sI7
g102
sI8
g112
sI9
g122
sI11
g141
sI12
g152
sI14
g177
sI15
g188
sI16
g196
sI17
g205
sI19
g231
ssI14
(dp262
I1
g42
sI3
g59
sI5
g82
sI7
g103
sI8
g113
sI12
g153
sI13
g165
sI18
g219
ssI15
(dp263
I4
g69
sI5
g83
sI11
g142
sI14
g178
sI16
g197
sI17
g206
sI20
g243
ssI16
(dp264
I3
g60
sI5
g84
sI6
g95
sI7
g104
sI10
g130
sI12
g154
sI13
g166
ssI17
(dp265
I2
g47
sI3
g61
sI5
g85
sI7
g105
sI12
g155
sI14
g179
ssI18
(dp266
I1
g43
sI4
g70
sI5
g86
sI7
g106
sI8
g114
sI12
g156
sI13
g167
sI14
g180
sI15
g189
sI17
g207
sI19
g232
sI20
g244
ssI19
(dp267
I4
g71
sI5
g87
sI7
g107
sI9
g123
sI10
g131
sI12
g157
sI13
g168
sI14
g181
sI17
g208
sI18
g220
sI20
g245
ssI20
(dp268
I1
g44
sI4
g72
sI5
g88
sI8
g115
sI10
g132
sI11
g143
sI12
g158
sI13
g169
sI14
g182
sI16
g198
sI17
g209
sI18
g221
sssS'adj'
p269
g32
sb.