ccopy_reg
_reconstructor
p1
(cnetworkx.classes.digraph
DiGraph
p2
c__builtin__
object
p3
NtRp4
(dp5
S'node'
p6
(dp7
I1
(dp8
S'demand'
p9
I4
ssI2
(dp10
g9
I2
ssI3
(dp11
g9
I6
ssI4
(dp12
g9
I5
ssI5
(dp13
g9
I8
ssI6
(dp14
g9
I4
ssI7
(dp15
g9
I1
ssI8
(dp16
g9
I5
ssI9
(dp17
g9
I2
ssI10
(dp18
g9
I1
ssI11
(dp19
g9
I0
ssI12
(dp20
g9
I0
ssI13
(dp21
g9
I0
ssI14
(dp22
g9
I0
ssI15
(dp23
g9
I0
ssI16
(dp24
g9
I0
ssI17
(dp25
g9
I0
ssI18
(dp26
g9
I0
ssI19
(dp27
g9
I0
ssI20
(dp28
g9
I-38
sssS'graph'
p29
(dp30
sS'succ'
p31
(dp32
I1
(dp33
I2
(dp34
S'capacity'
p35
I7
sS'fluxo'
p36
I0
sS'weight'
p37
I12
ssI4
(dp38
g35
I6
sg36
I0
sg37
I9
ssI8
(dp39
g35
I6
sg36
I0
sg37
I9
ssI11
(dp40
g35
I6
sg36
I0
sg37
I11
ssI12
(dp41
g35
I5
sg36
I0
sg37
I14
ssI13
(dp42
g35
I8
sg36
I0
sg37
I18
ssI15
(dp43
g35
I8
sg36
I0
sg37
I7
ssI16
(dp44
g35
I8
sg36
I0
sg37
I6
ssI17
(dp45
g35
I5
sg36
I0
sg37
I0
ssI19
(dp46
g35
I5
sg36
I0
sg37
I15
ssI20
(dp47
g35
I5
sg36
I0
sg37
I7
sssI2
(dp48
I3
(dp49
g35
I6
sg36
I0
sg37
I9
ssI8
(dp50
g35
I5
sg36
I0
sg37
I7
ssI9
(dp51
g35
I6
sg36
I0
sg37
I16
ssI12
(dp52
g35
I5
sg36
I0
sg37
I14
ssI13
(dp53
g35
I8
sg36
I0
sg37
I9
ssI15
(dp54
g35
I8
sg36
I0
sg37
I11
ssI18
(dp55
g35
I6
sg36
I0
sg37
I4
ssI19
(dp56
g35
I6
sg36
I0
sg37
I3
ssI20
(dp57
g35
I5
sg36
I0
sg37
I17
sssI3
(dp58
I4
(dp59
g35
I6
sg36
I0
sg37
I1
ssI7
(dp60
g35
I6
sg36
I0
sg37
I2
ssI8
(dp61
g35
I5
sg36
I0
sg37
I19
ssI9
(dp62
g35
I5
sg36
I0
sg37
I16
ssI10
(dp63
g35
I7
sg36
I0
sg37
I13
ssI11
(dp64
g35
I5
sg36
I0
sg37
I11
ssI12
(dp65
g35
I6
sg36
I0
sg37
I14
ssI14
(dp66
g35
I7
sg36
I0
sg37
I0
ssI15
(dp67
g35
I7
sg36
I0
sg37
I9
ssI16
(dp68
g35
I8
sg36
I0
sg37
I16
ssI18
(dp69
g35
I8
sg36
I0
sg37
I19
sssI4
(dp70
I1
(dp71
g35
I8
sg36
I0
sg37
I3
ssI5
(dp72
g35
I7
sg36
I0
sg37
I18
ssI6
(dp73
g35
I6
sg36
I0
sg37
I7
ssI7
(dp74
g35
I7
sg36
I0
sg37
I4
ssI8
(dp75
g35
I6
sg36
I0
sg37
I5
ssI9
(dp76
g35
I7
sg36
I0
sg37
I1
ssI10
(dp77
g35
I7
sg36
I0
sg37
I14
ssI11
(dp78
g35
I5
sg36
I0
sg37
I11
ssI15
(dp79
g35
I8
sg36
I0
sg37
I0
ssI19
(dp80
g35
I6
sg36
I0
sg37
I10
ssI20
(dp81
g35
I8
sg36
I0
sg37
I18
sssI5
(dp82
I3
(dp83
g35
I8
sg36
I0
sg37
I11
ssI4
(dp84
g35
I7
sg36
I0
sg37
I17
ssI6
(dp85
g35
I7
sg36
I0
sg37
I16
ssI7
(dp86
g35
I6
sg36
I0
sg37
I8
ssI9
(dp87
g35
I5
sg36
I0
sg37
I13
ssI10
(dp88
g35
I8
sg36
I0
sg37
I9
ssI17
(dp89
g35
I5
sg36
I0
sg37
I10
ssI19
(dp90
g35
I5
sg36
I0
sg37
I1
sssI6
(dp91
I2
(dp92
g35
I6
sg36
I0
sg37
I1
ssI5
(dp93
g35
I6
sg36
I0
sg37
I18
ssI7
(dp94
g35
I6
sg36
I0
sg37
I1
ssI8
(dp95
g35
I5
sg36
I0
sg37
I14
ssI10
(dp96
g35
I6
sg36
I0
sg37
I13
ssI11
(dp97
g35
I8
sg36
I0
sg37
I12
ssI12
(dp98
g35
I5
sg36
I0
sg37
I18
ssI16
(dp99
g35
I6
sg36
I0
sg37
I17
ssI17
(dp100
g35
I8
sg36
I0
sg37
I19
sssI7
(dp101
I5
(dp102
g35
I7
sg36
I0
sg37
I17
ssI6
(dp103
g35
I5
sg36
I0
sg37
I4
ssI10
(dp104
g35
I8
sg36
I0
sg37
I0
ssI12
(dp105
g35
I7
sg36
I0
sg37
I16
ssI13
(dp106
g35
I8
sg36
I0
sg37
I8
ssI14
(dp107
g35
I5
sg36
I0
sg37
I4
ssI16
(dp108
g35
I5
sg36
I0
sg37
I14
ssI17
(dp109
g35
I6
sg36
I0
sg37
I15
ssI18
(dp110
g35
I8
sg36
I0
sg37
I12
sssI8
(dp111
I1
(dp112
g35
I5
sg36
I0
sg37
I13
ssI2
(dp113
g35
I6
sg36
I0
sg37
I14
ssI4
(dp114
g35
I8
sg36
I0
sg37
I17
ssI9
(dp115
g35
I6
sg36
I0
sg37
I17
ssI10
(dp116
g35
I8
sg36
I0
sg37
I6
ssI14
(dp117
g35
I5
sg36
I0
sg37
I4
ssI17
(dp118
g35
I5
sg36
I0
sg37
I1
ssI18
(dp119
g35
I7
sg36
I0
sg37
I19
sssI9
(dp120
I1
(dp121
g35
I5
sg36
I0
sg37
I2
ssI3
(dp122
g35
I5
sg36
I0
sg37
I1
ssI4
(dp123
g35
I6
sg36
I0
sg37
I0
ssI7
(dp124
g35
I7
sg36
I0
sg37
I12
ssI12
(dp125
g35
I8
sg36
I0
sg37
I20
ssI13
(dp126
g35
I5
sg36
I0
sg37
I15
ssI14
(dp127
g35
I7
sg36
I0
sg37
I8
ssI16
(dp128
g35
I6
sg36
I0
sg37
I8
ssI17
(dp129
g35
I7
sg36
I0
sg37
I2
ssI19
(dp130
g35
I8
sg36
I0
sg37
I3
ssI20
(dp131
g35
I8
sg36
I0
sg37
I15
sssI10
(dp132
I3
(dp133
g35
I5
sg36
I0
sg37
I9
ssI6
(dp134
g35
I6
sg36
I0
sg37
I10
ssI9
(dp135
g35
I5
sg36
I0
sg37
I13
ssI13
(dp136
g35
I8
sg36
I0
sg37
I14
ssI16
(dp137
g35
I7
sg36
I0
sg37
I5
ssI17
(dp138
g35
I8
sg36
I0
sg37
I20
ssI19
(dp139
g35
I8
sg36
I0
sg37
I13
sssI11
(dp140
I3
(dp141
g35
I8
sg36
I0
sg37
I1
ssI4
(dp142
g35
I7
sg36
I0
sg37
I8
ssI7
(dp143
g35
I6
sg36
I0
sg37
I17
ssI10
(dp144
g35
I5
sg36
I0
sg37
I15
ssI13
(dp145
g35
I6
sg36
I0
sg37
I15
ssI14
(dp146
g35
I8
sg36
I0
sg37
I18
ssI15
(dp147
g35
I8
sg36
I0
sg37
I16
ssI16
(dp148
g35
I6
sg36
I0
sg37
I3
ssI18
(dp149
g35
I8
sg36
I0
sg37
I2
ssI19
(dp150
g35
I5
sg36
I0
sg37
I2
sssI12
(dp151
I1
(dp152
g35
I8
sg36
I0
sg37
I18
ssI3
(dp153
g35
I5
sg36
I0
sg37
I8
ssI5
(dp154
g35
I5
sg36
I0
sg37
I12
ssI7
(dp155
g35
I8
sg36
I0
sg37
I0
ssI8
(dp156
g35
I7
sg36
I0
sg37
I5
ssI10
(dp157
g35
I6
sg36
I0
sg37
I19
ssI11
(dp158
g35
I8
sg36
I0
sg37
I15
ssI15
(dp159
g35
I7
sg36
I0
sg37
I10
ssI17
(dp160
g35
I5
sg36
I0
sg37
I0
ssI19
(dp161
g35
I6
sg36
I0
sg37
I15
ssI20
(dp162
g35
I6
sg36
I0
sg37
I18
sssI13
(dp163
I4
(dp164
g35
I6
sg36
I0
sg37
I13
ssI7
(dp165
g35
I6
sg36
I0
sg37
I18
ssI8
(dp166
g35
I7
sg36
I0
sg37
I14
ssI9
(dp167
g35
I5
sg36
I0
sg37
I19
ssI11
(dp168
g35
I6
sg36
I0
sg37
I4
ssI15
(dp169
g35
I6
sg36
I0
sg37
I3
ssI16
(dp170
g35
I7
sg36
I0
sg37
I11
ssI17
(dp171
g35
I5
sg36
I0
sg37
I17
ssI20
(dp172
g35
I5
sg36
I0
sg37
I17
sssI14
(dp173
I1
(dp174
g35
I8
sg36
I0
sg37
I8
ssI3
(dp175
g35
I6
sg36
I0
sg37
I15
ssI4
(dp176
g35
I8
sg36
I0
sg37
I12
ssI6
(dp177
g35
I6
sg36
I0
sg37
I14
ssI7
(dp178
g35
I5
sg36
I0
sg37
I11
ssI8
(dp179
g35
I8
sg36
I0
sg37
I7
ssI10
(dp180
g35
I6
sg36
I0
sg37
I9
ssI11
(dp181
g35
I8
sg36
I0
sg37
I14
ssI13
(dp182
g35
I8
sg36
I0
sg37
I0
ssI16
(dp183
g35
I8
sg36
I0
sg37
I17
ssI17
(dp184
g35
I8
sg36
I0
sg37
I11
ssI18
(dp185
g35
I7
sg36
I0
sg37
I3
sssI15
(dp186
I4
(dp187
g35
I6
sg36
I0
sg37
I16
ssI10
(dp188
g35
I8
sg36
I0
sg37
I12
ssI11
(dp189
g35
I5
sg36
I0
sg37
I1
ssI12
(dp190
g35
I5
sg36
I0
sg37
I9
ssI13
(dp191
g35
I5
sg36
I0
sg37
I2
ssI14
(dp192
g35
I6
sg36
I0
sg37
I19
ssI16
(dp193
g35
I8
sg36
I0
sg37
I5
ssI17
(dp194
g35
I7
sg36
I0
sg37
I10
ssI18
(dp195
g35
I6
sg36
I0
sg37
I7
ssI20
(dp196
g35
I6
sg36
I0
sg37
I0
sssI16
(dp197
I1
(dp198
g35
I8
sg36
I0
sg37
I20
ssI2
(dp199
g35
I6
sg36
I0
sg37
I18
ssI7
(dp200
g35
I8
sg36
I0
sg37
I9
ssI8
(dp201
g35
I5
sg36
I0
sg37
I17
ssI9
(dp202
g35
I6
sg36
I0
sg37
I17
ssI12
(dp203
g35
I8
sg36
I0
sg37
I0
ssI14
(dp204
g35
I6
sg36
I0
sg37
I14
ssI15
(dp205
g35
I8
sg36
I0
sg37
I4
ssI19
(dp206
g35
I7
sg36
I0
sg37
I12
sssI17
(dp207
I1
(dp208
g35
I6
sg36
I0
sg37
I7
ssI2
(dp209
g35
I5
sg36
I0
sg37
I20
ssI4
(dp210
g35
I6
sg36
I0
sg37
I10
ssI5
(dp211
g35
I5
sg36
I0
sg37
I0
ssI8
(dp212
g35
I7
sg36
I0
sg37
I17
ssI9
(dp213
g35
I8
sg36
I0
sg37
I12
ssI12
(dp214
g35
I5
sg36
I0
sg37
I17
ssI13
(dp215
g35
I6
sg36
I0
sg37
I11
ssI16
(dp216
g35
I5
sg36
I0
sg37
I16
ssI18
(dp217
g35
I7
sg36
I0
sg37
I8
ssI19
(dp218
g35
I5
sg36
I0
sg37
I6
ssI20
(dp219
g35
I7
sg36
I0
sg37
I16
sssI18
(dp220
I2
(dp221
g35
I5
sg36
I0
sg37
I19
ssI10
(dp222
g35
I8
sg36
I0
sg37
I18
ssI12
(dp223
g35
I7
sg36
I0
sg37
I13
ssI13
(dp224
g35
I6
sg36
I0
sg37
I6
ssI16
(dp225
g35
I8
sg36
I0
sg37
I17
ssI19
(dp226
g35
I8
sg36
I0
sg37
I1
ssI20
(dp227
g35
I7
sg36
I0
sg37
I5
sssI19
(dp228
I1
(dp229
g35
I5
sg36
I0
sg37
I0
ssI2
(dp230
g35
I7
sg36
I0
sg37
I16
ssI3
(dp231
g35
I5
sg36
I0
sg37
I4
ssI4
(dp232
g35
I7
sg36
I0
sg37
I9
ssI6
(dp233
g35
I8
sg36
I0
sg37
I6
ssI7
(dp234
g35
I8
sg36
I0
sg37
I18
ssI15
(dp235
g35
I5
sg36
I0
sg37
I7
ssI18
(dp236
g35
I6
sg36
I0
sg37
I6
ssI20
(dp237
g35
I8
sg36
I0
sg37
I7
sssI20
(dp238
I7
(dp239
g35
I6
sg36
I0
sg37
I20
ssI8
(dp240
g35
I6
sg36
I0
sg37
I19
ssI10
(dp241
g35
I7
sg36
I0
sg37
I1
ssI12
(dp242
g35
I7
sg36
I0
sg37
I6
ssI14
(dp243
g35
I5
sg36
I0
sg37
I1
ssI17
(dp244
g35
I7
sg36
I0
sg37
I4
ssI19
(dp245
g35
I5
sg36
I0
sg37
I7
ssssS'edge'
p246
g32
sS'pred'
p247
(dp248
I1
(dp249
I4
g71
sI8
g112
sI9
g121
sI12
g152
sI14
g174
sI16
g198
sI17
g208
sI19
g229
ssI2
(dp250
I1
g34
sI6
g92
sI8
g113
sI16
g199
sI17
g209
sI18
g221
sI19
g230
ssI3
(dp251
I2
g49
sI5
g83
sI9
g122
sI10
g133
sI11
g141
sI12
g153
sI14
g175
sI19
g231
ssI4
(dp252
I1
g38
sI3
g59
sI5
g84
sI8
g114
sI9
g123
sI11
g142
sI13
g164
sI14
g176
sI15
g187
sI17
g210
sI19
g232
ssI5
(dp253
I4
g72
sI12
g154
sI17
g211
sI6
g93
sI7
g102
ssI6
(dp254
I4
g73
sI5
g85
sI7
g103
sI10
g134
sI14
g177
sI19
g233
ssI7
(dp255
I3
g60
sI4
g74
sI5
g86
sI6
g94
sI9
g124
sI11
g143
sI12
g155
sI13
g165
sI14
g178
sI16
g200
sI19
g234
sI20
g239
ssI8
(dp256
I1
g39
sI2
g50
sI3
g61
sI4
g75
sI6
g95
sI12
g156
sI13
g166
sI14
g179
sI16
g201
sI17
g212
sI20
g240
ssI9
(dp257
I2
g51
sI3
g62
sI4
g76
sI5
g87
sI8
g115
sI10
g135
sI13
g167
sI16
g202
sI17
g213
ssI10
(dp258
I3
g63
sI4
g77
sI5
g88
sI6
g96
sI7
g104
sI8
g116
sI11
g144
sI12
g157
sI14
g180
sI15
g188
sI18
g222
sI20
g241
ssI11
(dp259
I1
g40
sI3
g64
sI4
g78
sI6
g97
sI12
g158
sI13
g168
sI14
g181
sI15
g189
ssI12
(dp260
I1
g41
sI2
g52
sI3
g65
sI6
g98
sI7
g105
sI9
g125
sI15
g190
sI16
g203
sI17
g214
sI18
g223
sI20
g242
ssI13
(dp261
I1
g42
sI2
g53
sI7
g106
sI9
g126
sI10
g136
sI11
g145
sI14
g182
sI15
g191
sI17
g215
sI18
g224
ssI14
(dp262
I3
g66
sI7
g107
sI8
g117
sI9
g127
sI11
g146
sI15
g192
sI16
g204
sI20
g243
ssI15
(dp263
I1
g43
sI2
g54
sI3
g67
sI4
g79
sI11
g147
sI12
g159
sI13
g169
sI16
g205
sI19
g235
ssI16
(dp264
I1
g44
sI3
g68
sI6
g99
sI7
g108
sI9
g128
sI10
g137
sI11
g148
sI13
g170
sI14
g183
sI15
g193
sI17
g216
sI18
g225
ssI17
(dp265
I1
g45
sI5
g89
sI6
g100
sI7
g109
sI8
g118
sI9
g129
sI10
g138
sI12
g160
sI13
g171
sI14
g184
sI15
g194
sI20
g244
ssI18
(dp266
I2
g55
sI3
g69
sI7
g110
sI8
g119
sI11
g149
sI14
g185
sI15
g195
sI17
g217
sI19
g236
ssI19
(dp267
I1
g46
sI2
g56
sI4
g80
sI5
g90
sI9
g130
sI10
g139
sI11
g150
sI12
g161
sI16
g206
sI17
g218
sI18
g226
sI20
g245
ssI20
(dp268
I1
g47
sI2
g57
sI4
g81
sI9
g131
sI12
g162
sI13
g172
sI15
g196
sI17
g219
sI18
g227
sI19
g237
sssS'adj'
p269
g32
sb.