ccopy_reg
_reconstructor
p1
(cnetworkx.classes.digraph
DiGraph
p2
c__builtin__
object
p3
NtRp4
(dp5
S'node'
p6
(dp7
I1
(dp8
S'demand'
p9
I4
ssI2
(dp10
g9
I13
ssI3
(dp11
g9
I1
ssI4
(dp12
g9
I1
ssI5
(dp13
g9
I3
ssI6
(dp14
g9
I4
ssI7
(dp15
g9
I12
ssI8
(dp16
g9
I4
ssI9
(dp17
g9
I2
ssI10
(dp18
g9
I7
ssI11
(dp19
g9
I0
ssI12
(dp20
g9
I0
ssI13
(dp21
g9
I0
ssI14
(dp22
g9
I0
ssI15
(dp23
g9
I0
ssI16
(dp24
g9
I0
ssI17
(dp25
g9
I0
ssI18
(dp26
g9
I0
ssI19
(dp27
g9
I0
ssI20
(dp28
g9
I-51
sssS'graph'
p29
(dp30
sS'succ'
p31
(dp32
I1
(dp33
I2
(dp34
S'capacity'
p35
I7
sS'fluxo'
p36
I0
sS'weight'
p37
I10
ssI3
(dp38
g35
I8
sg36
I0
sg37
I4
ssI4
(dp39
g35
I5
sg36
I0
sg37
I1
ssI5
(dp40
g35
I7
sg36
I0
sg37
I3
ssI6
(dp41
g35
I5
sg36
I0
sg37
I6
ssI9
(dp42
g35
I5
sg36
I0
sg37
I0
ssI11
(dp43
g35
I6
sg36
I0
sg37
I1
ssI12
(dp44
g35
I5
sg36
I0
sg37
I9
ssI15
(dp45
g35
I7
sg36
I0
sg37
I3
ssI18
(dp46
g35
I5
sg36
I0
sg37
I8
ssI19
(dp47
g35
I7
sg36
I0
sg37
I8
ssI20
(dp48
g35
I7
sg36
I0
sg37
I1
sssI2
(dp49
I1
(dp50
g35
I5
sg36
I0
sg37
I7
ssI3
(dp51
g35
I8
sg36
I0
sg37
I8
ssI4
(dp52
g35
I5
sg36
I0
sg37
I9
ssI5
(dp53
g35
I7
sg36
I0
sg37
I4
ssI6
(dp54
g35
I7
sg36
I0
sg37
I0
ssI8
(dp55
g35
I6
sg36
I0
sg37
I8
ssI9
(dp56
g35
I5
sg36
I0
sg37
I6
ssI10
(dp57
g35
I7
sg36
I0
sg37
I6
ssI15
(dp58
g35
I7
sg36
I0
sg37
I8
ssI19
(dp59
g35
I7
sg36
I0
sg37
I2
sssI3
(dp60
I2
(dp61
g35
I8
sg36
I0
sg37
I1
ssI4
(dp62
g35
I7
sg36
I0
sg37
I3
ssI8
(dp63
g35
I8
sg36
I0
sg37
I10
ssI10
(dp64
g35
I8
sg36
I0
sg37
I1
ssI11
(dp65
g35
I5
sg36
I0
sg37
I4
ssI12
(dp66
g35
I5
sg36
I0
sg37
I1
ssI13
(dp67
g35
I8
sg36
I0
sg37
I2
ssI14
(dp68
g35
I8
sg36
I0
sg37
I3
ssI16
(dp69
g35
I7
sg36
I0
sg37
I4
ssI19
(dp70
g35
I7
sg36
I0
sg37
I4
ssI20
(dp71
g35
I5
sg36
I0
sg37
I2
sssI4
(dp72
I1
(dp73
g35
I7
sg36
I0
sg37
I0
ssI5
(dp74
g35
I8
sg36
I0
sg37
I2
ssI8
(dp75
g35
I8
sg36
I0
sg37
I1
ssI10
(dp76
g35
I6
sg36
I0
sg37
I7
ssI12
(dp77
g35
I5
sg36
I0
sg37
I5
ssI15
(dp78
g35
I6
sg36
I0
sg37
I1
ssI16
(dp79
g35
I7
sg36
I0
sg37
I10
ssI17
(dp80
g35
I5
sg36
I0
sg37
I2
ssI19
(dp81
g35
I8
sg36
I0
sg37
I3
sssI5
(dp82
I3
(dp83
g35
I7
sg36
I0
sg37
I0
ssI7
(dp84
g35
I7
sg36
I0
sg37
I1
ssI9
(dp85
g35
I7
sg36
I0
sg37
I1
ssI11
(dp86
g35
I6
sg36
I0
sg37
I3
ssI14
(dp87
g35
I5
sg36
I0
sg37
I0
ssI15
(dp88
g35
I8
sg36
I0
sg37
I8
ssI18
(dp89
g35
I7
sg36
I0
sg37
I5
ssI19
(dp90
g35
I5
sg36
I0
sg37
I9
sssI6
(dp91
I7
(dp92
g35
I8
sg36
I0
sg37
I0
ssI11
(dp93
g35
I6
sg36
I0
sg37
I10
ssI12
(dp94
g35
I7
sg36
I0
sg37
I7
ssI15
(dp95
g35
I6
sg36
I0
sg37
I0
ssI17
(dp96
g35
I8
sg36
I0
sg37
I10
ssI18
(dp97
g35
I5
sg36
I0
sg37
I9
ssI19
(dp98
g35
I5
sg36
I0
sg37
I10
ssI20
(dp99
g35
I6
sg36
I0
sg37
I2
sssI7
(dp100
I2
(dp101
g35
I5
sg36
I0
sg37
I0
ssI4
(dp102
g35
I7
sg36
I0
sg37
I4
ssI6
(dp103
g35
I7
sg36
I0
sg37
I8
ssI8
(dp104
g35
I8
sg36
I0
sg37
I6
ssI9
(dp105
g35
I8
sg36
I0
sg37
I6
ssI10
(dp106
g35
I5
sg36
I0
sg37
I8
ssI11
(dp107
g35
I8
sg36
I0
sg37
I3
ssI12
(dp108
g35
I6
sg36
I0
sg37
I3
ssI13
(dp109
g35
I8
sg36
I0
sg37
I6
ssI15
(dp110
g35
I8
sg36
I0
sg37
I6
ssI18
(dp111
g35
I5
sg36
I0
sg37
I0
ssI19
(dp112
g35
I7
sg36
I0
sg37
I5
sssI8
(dp113
I1
(dp114
g35
I8
sg36
I0
sg37
I8
ssI2
(dp115
g35
I5
sg36
I0
sg37
I9
ssI3
(dp116
g35
I6
sg36
I0
sg37
I5
ssI4
(dp117
g35
I6
sg36
I0
sg37
I8
ssI6
(dp118
g35
I8
sg36
I0
sg37
I10
ssI7
(dp119
g35
I6
sg36
I0
sg37
I9
ssI10
(dp120
g35
I8
sg36
I0
sg37
I7
ssI12
(dp121
g35
I7
sg36
I0
sg37
I5
ssI13
(dp122
g35
I7
sg36
I0
sg37
I2
ssI15
(dp123
g35
I6
sg36
I0
sg37
I2
ssI17
(dp124
g35
I8
sg36
I0
sg37
I9
ssI18
(dp125
g35
I8
sg36
I0
sg37
I1
sssI9
(dp126
I3
(dp127
g35
I8
sg36
I0
sg37
I0
ssI4
(dp128
g35
I6
sg36
I0
sg37
I7
ssI5
(dp129
g35
I6
sg36
I0
sg37
I7
ssI6
(dp130
g35
I7
sg36
I0
sg37
I6
ssI8
(dp131
g35
I6
sg36
I0
sg37
I6
ssI10
(dp132
g35
I6
sg36
I0
sg37
I6
ssI11
(dp133
g35
I7
sg36
I0
sg37
I2
ssI12
(dp134
g35
I7
sg36
I0
sg37
I9
ssI14
(dp135
g35
I7
sg36
I0
sg37
I5
ssI16
(dp136
g35
I5
sg36
I0
sg37
I10
ssI17
(dp137
g35
I8
sg36
I0
sg37
I9
ssI19
(dp138
g35
I7
sg36
I0
sg37
I9
sssI10
(dp139
I1
(dp140
g35
I6
sg36
I0
sg37
I7
ssI3
(dp141
g35
I7
sg36
I0
sg37
I9
ssI4
(dp142
g35
I8
sg36
I0
sg37
I7
ssI5
(dp143
g35
I5
sg36
I0
sg37
I4
ssI12
(dp144
g35
I7
sg36
I0
sg37
I0
ssI13
(dp145
g35
I7
sg36
I0
sg37
I3
ssI15
(dp146
g35
I6
sg36
I0
sg37
I6
ssI16
(dp147
g35
I5
sg36
I0
sg37
I8
sssI11
(dp148
I1
(dp149
g35
I6
sg36
I0
sg37
I1
ssI7
(dp150
g35
I8
sg36
I0
sg37
I10
ssI13
(dp151
g35
I8
sg36
I0
sg37
I8
ssI14
(dp152
g35
I7
sg36
I0
sg37
I4
ssI15
(dp153
g35
I6
sg36
I0
sg37
I7
ssI18
(dp154
g35
I8
sg36
I0
sg37
I10
sssI12
(dp155
I1
(dp156
g35
I6
sg36
I0
sg37
I6
ssI2
(dp157
g35
I5
sg36
I0
sg37
I6
ssI4
(dp158
g35
I5
sg36
I0
sg37
I3
ssI5
(dp159
g35
I6
sg36
I0
sg37
I3
ssI7
(dp160
g35
I5
sg36
I0
sg37
I0
ssI8
(dp161
g35
I7
sg36
I0
sg37
I3
ssI11
(dp162
g35
I6
sg36
I0
sg37
I8
ssI13
(dp163
g35
I8
sg36
I0
sg37
I5
ssI15
(dp164
g35
I7
sg36
I0
sg37
I8
sssI13
(dp165
I2
(dp166
g35
I5
sg36
I0
sg37
I4
ssI3
(dp167
g35
I6
sg36
I0
sg37
I9
ssI4
(dp168
g35
I5
sg36
I0
sg37
I4
ssI5
(dp169
g35
I7
sg36
I0
sg37
I8
ssI7
(dp170
g35
I6
sg36
I0
sg37
I10
ssI8
(dp171
g35
I7
sg36
I0
sg37
I9
ssI11
(dp172
g35
I8
sg36
I0
sg37
I9
ssI14
(dp173
g35
I8
sg36
I0
sg37
I2
ssI17
(dp174
g35
I8
sg36
I0
sg37
I9
ssI18
(dp175
g35
I7
sg36
I0
sg37
I8
ssI19
(dp176
g35
I6
sg36
I0
sg37
I0
sssI14
(dp177
I4
(dp178
g35
I5
sg36
I0
sg37
I4
ssI6
(dp179
g35
I5
sg36
I0
sg37
I1
ssI7
(dp180
g35
I8
sg36
I0
sg37
I8
ssI8
(dp181
g35
I7
sg36
I0
sg37
I6
ssI11
(dp182
g35
I5
sg36
I0
sg37
I6
ssI12
(dp183
g35
I6
sg36
I0
sg37
I0
ssI17
(dp184
g35
I5
sg36
I0
sg37
I9
ssI18
(dp185
g35
I6
sg36
I0
sg37
I6
ssI19
(dp186
g35
I6
sg36
I0
sg37
I10
sssI15
(dp187
I16
(dp188
g35
I5
sg36
I0
sg37
I6
ssI1
(dp189
g35
I8
sg36
I0
sg37
I10
ssI18
(dp190
g35
I8
sg36
I0
sg37
I1
ssI4
(dp191
g35
I6
sg36
I0
sg37
I4
sssI16
(dp192
I1
(dp193
g35
I8
sg36
I0
sg37
I5
ssI2
(dp194
g35
I7
sg36
I0
sg37
I1
ssI3
(dp195
g35
I5
sg36
I0
sg37
I9
ssI4
(dp196
g35
I8
sg36
I0
sg37
I6
ssI5
(dp197
g35
I6
sg36
I0
sg37
I4
ssI6
(dp198
g35
I5
sg36
I0
sg37
I9
ssI7
(dp199
g35
I5
sg36
I0
sg37
I9
ssI9
(dp200
g35
I5
sg36
I0
sg37
I9
ssI10
(dp201
g35
I7
sg36
I0
sg37
I9
ssI12
(dp202
g35
I7
sg36
I0
sg37
I3
ssI13
(dp203
g35
I6
sg36
I0
sg37
I0
ssI17
(dp204
g35
I8
sg36
I0
sg37
I0
sssI17
(dp205
I3
(dp206
g35
I5
sg36
I0
sg37
I1
ssI7
(dp207
g35
I8
sg36
I0
sg37
I10
ssI9
(dp208
g35
I8
sg36
I0
sg37
I6
ssI10
(dp209
g35
I8
sg36
I0
sg37
I9
ssI13
(dp210
g35
I7
sg36
I0
sg37
I9
ssI14
(dp211
g35
I7
sg36
I0
sg37
I4
ssI15
(dp212
g35
I5
sg36
I0
sg37
I2
ssI18
(dp213
g35
I7
sg36
I0
sg37
I8
ssI20
(dp214
g35
I8
sg36
I0
sg37
I10
sssI18
(dp215
I6
(dp216
g35
I7
sg36
I0
sg37
I8
ssI8
(dp217
g35
I8
sg36
I0
sg37
I10
ssI11
(dp218
g35
I8
sg36
I0
sg37
I4
ssI12
(dp219
g35
I7
sg36
I0
sg37
I2
ssI16
(dp220
g35
I5
sg36
I0
sg37
I1
ssI17
(dp221
g35
I7
sg36
I0
sg37
I0
ssI19
(dp222
g35
I8
sg36
I0
sg37
I8
sssI19
(dp223
I1
(dp224
g35
I6
sg36
I0
sg37
I5
ssI3
(dp225
g35
I5
sg36
I0
sg37
I1
ssI6
(dp226
g35
I8
sg36
I0
sg37
I9
ssI7
(dp227
g35
I5
sg36
I0
sg37
I10
ssI8
(dp228
g35
I5
sg36
I0
sg37
I3
ssI9
(dp229
g35
I5
sg36
I0
sg37
I0
ssI11
(dp230
g35
I6
sg36
I0
sg37
I6
ssI15
(dp231
g35
I7
sg36
I0
sg37
I6
ssI16
(dp232
g35
I6
sg36
I0
sg37
I8
ssI20
(dp233
g35
I6
sg36
I0
sg37
I6
sssI20
(dp234
I3
(dp235
g35
I6
sg36
I0
sg37
I3
ssI4
(dp236
g35
I8
sg36
I0
sg37
I7
ssI5
(dp237
g35
I8
sg36
I0
sg37
I2
ssI6
(dp238
g35
I6
sg36
I0
sg37
I7
ssI7
(dp239
g35
I6
sg36
I0
sg37
I8
ssI9
(dp240
g35
I8
sg36
I0
sg37
I2
ssI10
(dp241
g35
I5
sg36
I0
sg37
I5
ssI13
(dp242
g35
I8
sg36
I0
sg37
I4
ssI16
(dp243
g35
I8
sg36
I0
sg37
I4
ssI18
(dp244
g35
I7
sg36
I0
sg37
I10
ssI19
(dp245
g35
I8
sg36
I0
sg37
I1
ssssS'edge'
p246
g32
sS'pred'
p247
(dp248
I1
(dp249
I2
g50
sI4
g73
sI8
g114
sI10
g140
sI11
g149
sI12
g156
sI15
g189
sI16
g193
sI19
g224
ssI2
(dp250
I1
g34
sI3
g61
sI7
g101
sI8
g115
sI12
g157
sI13
g166
sI16
g194
ssI3
(dp251
I1
g38
sI2
g51
sI5
g83
sI8
g116
sI9
g127
sI10
g141
sI13
g167
sI16
g195
sI17
g206
sI19
g225
sI20
g235
ssI4
(dp252
I1
g39
sI2
g52
sI3
g62
sI7
g102
sI8
g117
sI9
g128
sI10
g142
sI12
g158
sI13
g168
sI14
g178
sI15
g191
sI16
g196
sI20
g236
ssI5
(dp253
I1
g40
sI2
g53
sI4
g74
sI9
g129
sI10
g143
sI12
g159
sI13
g169
sI16
g197
sI20
g237
ssI6
(dp254
I1
g41
sI2
g54
sI7
g103
sI8
g118
sI9
g130
sI14
g179
sI16
g198
sI18
g216
sI19
g226
sI20
g238
ssI7
(dp255
I5
g84
sI6
g92
sI8
g119
sI11
g150
sI12
g160
sI13
g170
sI14
g180
sI16
g199
sI17
g207
sI19
g227
sI20
g239
ssI8
(dp256
I2
g55
sI3
g63
sI4
g75
sI7
g104
sI9
g131
sI12
g161
sI13
g171
sI14
g181
sI18
g217
sI19
g228
ssI9
(dp257
I1
g42
sI2
g56
sI5
g85
sI7
g105
sI16
g200
sI17
g208
sI19
g229
sI20
g240
ssI10
(dp258
I2
g57
sI3
g64
sI4
g76
sI7
g106
sI8
g120
sI9
g132
sI16
g201
sI17
g209
sI20
g241
ssI11
(dp259
I1
g43
sI3
g65
sI5
g86
sI6
g93
sI7
g107
sI9
g133
sI12
g162
sI13
g172
sI14
g182
sI18
g218
sI19
g230
ssI12
(dp260
I1
g44
sI3
g66
sI4
g77
sI6
g94
sI7
g108
sI8
g121
sI9
g134
sI10
g144
sI14
g183
sI16
g202
sI18
g219
ssI13
(dp261
I3
g67
sI7
g109
sI8
g122
sI10
g145
sI11
g151
sI12
g163
sI16
g203
sI17
g210
sI20
g242
ssI14
(dp262
I3
g68
sI5
g87
sI9
g135
sI11
g152
sI13
g173
sI17
g211
ssI15
(dp263
I1
g45
sI2
g58
sI4
g78
sI5
g88
sI6
g95
sI7
g110
sI8
g123
sI10
g146
sI11
g153
sI12
g164
sI17
g212
sI19
g231
ssI16
(dp264
I3
g69
sI4
g79
sI9
g136
sI10
g147
sI15
g188
sI18
g220
sI19
g232
sI20
g243
ssI17
(dp265
I4
g80
sI6
g96
sI8
g124
sI9
g137
sI13
g174
sI14
g184
sI16
g204
sI18
g221
ssI18
(dp266
I1
g46
sI5
g89
sI6
g97
sI7
g111
sI8
g125
sI11
g154
sI13
g175
sI14
g185
sI15
g190
sI17
g213
sI20
g244
ssI19
(dp267
I1
g47
sI2
g59
sI3
g70
sI4
g81
sI5
g90
sI6
g98
sI7
g112
sI9
g138
sI13
g176
sI14
g186
sI18
g222
sI20
g245
ssI20
(dp268
I19
g233
sI1
g48
sI3
g71
sI6
g99
sI17
g214
sssS'adj'
p269
g32
sb.